le:_glClearStencil
wej:_Array_InternalArray__ICollection_Add_TisMark_t2724874473_m1613484179_gshared
cjq:_AN_ApplicationTemplate_GetOrCreateActivityWithName_m1685129218
ADd:__ZN5physx2Gu19gjkLocalPenetrationINS0_8CapsuleVENS0_17ShrunkConvexHullVEEEjRKT_RKT0_RKNS_6shdfnd3aos6FloatVERNSB_5Vec3VESG_SG_RSC_PhSI_Rhb
Dsg:__ZL80Graphic_t2426225576_CustomAttributesCacheGenerator_Graphic_OnFillVBO_m1723985607P21CustomAttributesCache
GUi:_RuntimeTypeHandle_GetObjectData_m3567098501
uac:__ZN18StreamedBinaryReadILb1EE21TransferSTLStyleArrayIN4core12basic_stringIcNS2_20StringStorageDefaultIcEEEEEEvRT_17TransferMetaFlags
NIr:_Raycast3DCallback_BeginInvoke_m3028685017
iV:__Z102Register_UnityEngine_Experimental_Director_AnimatorControllerPlayable_INTERNAL_CALL_ResetTriggerStringv
utq:_WP8AdMobController_StartInterstitialAd_m4074369522
sQk:_UInt64_System_IConvertible_ToDecimal_m4205696037
seu:_mbrlen
O0m:_GameObject_Internal_AddComponentWithType_m214735204
OLm:_AndroidNotificationManager_CancelLocalNotification_m321872280
bL:__ZN10StateRange8TransferI14SafeBinaryReadEEvRT_
OPa:__Z21SourceMipLevelForBlitiiii
Fzb:__ZN31CanvasBatchIntermediateRenderer15AddAsRenderNodeER15RenderNodeQueueRK20DeprecatedSourceData
t7j:_JSONNode_set_AsDouble_m2756477287
rcu:_vsnprintf
CEi:_Enumerator_get_Key_m2908810861
NL:__ZN15SerializeTraitsIN7mecanim6bitsetILj70EEEE8TransferI14SafeBinaryReadEEvRS2_RT_
Jfr:_Transform_1_Invoke_m1986378158_gshared
xQp:_Array_InternalArray__get_Item_TisVector3_t2243707580_m2841870745_gshared
Nem:_Level2MapComparer_Compare_m2537942367
A$l:_GameCenter_RTM_add_ActionDiconnectedPlayerReinvited_m4174278355
nue:__ZNK5physx2Sc5Scene24getContactModifyCallbackEv
Lpt:__ZN6il2cpp2vm5Class12GetFinalizerEP11Il2CppClass
eWr:_DTDReader_GetCharacterReference_m4176469706
_ni:_NGUITools_CalculateRaycastDepth_m4090187065
UR:__ZN23AnimationOffsetPlayable11SetRotationE11Quaternionf
DN:__ZN11UnityEngine9Animation28GenericAnimationBindingCacheD2Ev
txe:__ZN5physx2Sq10AABBPruner10addObjectsEPjPKNS_9PxBounds3EPKNS0_13PrunerPayloadEj
yv:__ZN15AnimationBinder13SetFloatValueERK20BoundCurveDeprecatedf
FEh:_List_1_System_Collections_IList_IndexOf_m39706221_gshared
Dxu:b117
CHi:_Decimal_op_Implicit_m2971610317
sUh:_List_1_ForEach_m2217267222_gshared
WLt:__ZN14dense_hash_mapI10KeyWrapperINSt3__24pairIPK12PropertyInfoP11Il2CppClassEEEj17ReflectionMapHashIS8_ENS9_14EqualsComparerINS1_8equal_toIS8_EEEENS1_9allocatorINS2_IKS9_jEEEEE15set_deleted_keyERSH_
Mak:_TeamExtensions_SetTeam_m208774809
dSp:_XmlTypeSerializationSource_GetHashCode_m1358929066
_c:invoke_viiiifiiiiif
Ehb:__Z18RestoreRenderStateR20CameraRenderOldStateR17ShaderPassContext
Mzi:_SynchronizedArrayListWrapper_get_Item_m3309425850
M9b:__Z18Transfer_BlittableI18StreamedBinaryReadILb1EELb1E5RectTIfEEvRK29SerializationCommandArgumentsR31RuntimeSerializationCommandInfo
w6b:__Z18Transfer_BlittableI24GenerateTypeTreeTransferLb0E11ColorRGBA32EvRK29SerializationCommandArgumentsR31RuntimeSerializationCommandInfo
zha:__Z25scripting_class_from_name17ScriptingImagePtrPKcS1_
ny:__ZNSt3__26vectorIN13AnimationClip10FloatCurveE13stl_allocatorIS2_L18MemLabelIdentifier25ELi16EEE6resizeEj
l0b:__Z29scripting_class_enum_basetype17ScriptingClassPtr
tgq:_XsollaTranslations_Parse_m562662395
gKc:__Z44SystemInfo_Get_Custom_PropGraphicsDeviceNamev
FCr:_U3CU3Ec__DisplayClass35_0_U3CInitU3Eb__1_m4212238081
hlm:_EncryptedPrivateKeyInfo_Decode_m1824098820
F3t:__ZN6il2cpp8metadata26Il2CppTypeEqualityComparer8AreEqualEPK10Il2CppTypeS4_
qQe:__ZN5physx2Sc14ConstraintCore10breakApartEv
dTn:_GenericTypeParameterBuilder_GetHashCode_m867619899
z4e:__Z13RegisterClassI15CapsuleColliderEvv
JPs:_EqualityComparer_1__cctor_m3397254040_gshared
viu:__ZNKSt3__220__time_get_c_storageIcE3__XEv
JO:__ZN18StreamedBinaryReadILb0EE21TransferSTLStyleArrayI22OffsetPtrArrayTransferIN4math8ColliderEEEEvRT_17TransferMetaFlags
eXe:__ZN5physx7Cooking20loadTriangleMeshDescERKNS_18PxTriangleMeshDescERNS_19TriangleMeshBuilderE
Mep:_ISN_MediaController_add_ActionPlaybackStateChanged_m1766531375
Jur:_TextGenerator_get_verts_m3124035267
leq:_U3CCreatePaymentFormU3Ec__AnonStorey0_U3CU3Em__0_m3207307334
JPd:__ZN5physx9NpFactory21releaseConnectorArrayEPNS_16NpConnectorArrayE
Vlk:_Socket_Accept_m678452185
D4q:_Enumerator_get_CurrentValue_m1099898468_gshared
mbd:__Z19UpdateProceduralTplIL27ParticleSystemCurveEvalMode1EEvRK22DualMinMax3DPolyCurvesRK11MinMaxCurveS6_S6_R23ParticleSystemParticlesRKN4math8float3x3Eb
qip:_Frame_SetFrame_m821049567
TJs:_Comparison_1_Invoke_m353639462_gshared
jFa:__ZN17PersistentManager22CheckInstanceIDsLoadedEPii
GNa:__ZN7ApiGLES17CopyBufferSubDataEjjlll
jMc:__Z41Register_UnityEngine_Camera_set_eventMaskv
cur:_TextGenerationSettings_CompareColors_m991725620
B$s:_U3CCreateWhereIteratorU3Ec__Iterator1D_1_Reset_m1773515612_gshared
lXj:_PaymentManagerExample_init_m1006799792
w9a:__ZN25CameraStackRenderingState20GetOrCreateBuiltinRTE24BuiltinRenderTextureTypeii17DepthBufferFormat19RenderTextureFormatj22RenderTextureReadWrite14VRTextureUsagei
X2:__ZN11AudioModule26SetDefaultMicrophoneDriverEPv
GDs:_ReadOnlyCollection_1_Contains_m1656472127_gshared
Ydb:__ZN17PrePassRenderLoop14RenderBasePassEP13RenderTextureRK14LightingLayersR13dynamic_arrayI16RenderObjectDataLj4EERbR10MinMaxAABB
d8j:_U3CU3Ec__Iterator1_Reset_m482771155
Wwj:_GraphicRegistry_RegisterGraphicForCanvas_m2284226562
Pwi:_Char_System_IConvertible_ToInt16_m2741348777_AdjustorThunk
VZc:__ZN5IMGUI18RepaintModalWindowER8GUIState
phu:__ZNKSt3__27num_getIwNS_19istreambuf_iteratorIwNS_11char_traitsIwEEEEE6do_getES4_S4_RNS_8ios_baseERjRPv
$8c:__ZN11ShapeModule8TransferI19StreamedBinaryWriteILb0EEEEvRT_
siu:__ZNKSt3__220__time_get_c_storageIcE3__cEv
tub:__ZN21ArchiveStorageCreator10InitializeERKN4core12basic_stringIcNS0_20StringStorageDefaultIcEEEEb
BAs:_ReadOnlyCollection_1_System_Collections_Generic_IListU3CTU3E_set_Item_m1547026160_gshared
nyf:__ZL61MarshalAsAttribute_t2900773360_CustomAttributesCacheGeneratorP21CustomAttributesCache
tTb:__Z23SetSpriteMeshIndexCountP14SharedMeshDataj
lqa:__ZN7Texture13SetFilterModeEi
rAq:_PaymentFormController_Next_m2048559291
Jxi:_Char_ToUpper_m109978609
DPo:_Rotateshine__ctor_m3751621595
A1t:__ZN6il2cpp8metadata13GenericMethod9GetMethodEPK19Il2CppGenericMethod
hu:__ZNSt3__26vectorIN4core12basic_stringIcNS1_20StringStorageDefaultIcEEEENS_9allocatorIS5_EEE7reserveEj
jKi:_Convert_ToUInt16_m2130758075
cIt:__ZN15dense_hashtableINSt3__24pairIK10KeyWrapperINS1_IPK11Il2CppImageP11Il2CppClassEEEjEES9_17ReflectionMapHashIS8_EN14dense_hash_mapIS9_jSD_NS9_14EqualsComparerINS0_8equal_toIS8_EEEENS0_9allocatorISB_EEE9SelectKeyESI_SK_E3endEv
Voq:_AN_SoomlaGrow_FriendsRequest_m2755349555
Fxt:__ZN6il2cpp6icalls6System6System3Net7Sockets6Socket8BlockingE12Il2CppIntPtrbPi
lsk:_X509BasicConstraintsExtension_Encode_m3505127076
j2j:_PhotonView_SerializeComponent_m548572674
tJr:_Scrollbar_OnRectTransformDimensionsChange_m330142657
DVt:__ZNSt3__26__treeINS_12__value_typeIjN6il2cpp2os17SocketHandleEntryEEENS_19__map_value_compareIjS5_NS_4lessIjEELb1EEENS_9allocatorIS5_EEE25__emplace_unique_key_argsIjJNS_4pairIKjS4_EEEEENSE_INS_15__tree_iteratorIS5_PNS_11__tree_nodeIS5_PvEEiEEbEERKT_DpOT0_
$Hn:_SslStream_EndRead_m2850086626
qIa:__ZN13GfxDeviceGLES11SetViewportERK5RectTIiE
RLq:_ObjectIDGenerator_HasId_m3452805087
bgi:_MNAndroidRateUsPopUp_Create_m2946591462
iPr:_Toggle_InternalToggle_m2323729210
YOi:_Decimal_System_IConvertible_ToInt64_m2504363272
fWc:__Z24Time_Get_Custom_PropTimev
WBh:_List_1_CheckIndex_m622843962_gshared
Mc:invoke_vifiiii
Hri:_Array_GetValue_m3182152438
l5k:_ObscuredPrefs_DecryptDoubleValue_m4071104536
If:_emscripten_glDepthRange
Iep:_ISN_MediaController_add_ActionQueueUpdated_m667123587
OS:__Z40Register_UnityEngine_Animation_IsPlayingv
yyd:__ZN5physx2Gu24contactConvexHeightfieldERKNS0_13GeometryUnionES3_RKNS_11PxTransformES6_RKfRNS0_5CacheERNS0_13ContactBufferE
kRd:__ZN5physx6shdfnd5ArrayIPvNS0_19ReflectionAllocatorINS_2Cm5BlockIS2_Lj8EEEEEE15growAndPushBackERKS2_
n7m:_GUILayoutGroup_CalcWidth_m4107152934
Wec:__Z14resize_trimmedINSt3__26vectorIN9ShaderLab20SerializedSubProgram12UAVParameterENS0_9allocatorIS4_EEEEEvRT_j
yFq:_SerializationInfo_AddValue_m1781549036
wYo:_PeerBase_InitCallback_m2650248812
cCl:_Dictionary_2__ctor_m3143729840_gshared
vnn:_TlsServerKeyExchange_verifySignature_m3641534563
gFc:__ZN13BuildSettings34ConvertScenePathToDisplayScenePathERKN4core12basic_stringIcNS0_20StringStorageDefaultIcEEEE
YJj:_UIForwardEvents_OnDoubleClick_m3844935897
jDc:__ZN17MemoryCacheReader10DirectReadEPvjj
QQm:_AS_SerializableDictionary__ctor_m326998631
whi:_MobileNativeDialog__ctor_m2885499418
mPa:__ZN4crndL20crnd_default_reallocEPvjPjbS0_
S9i:_Array_BinarySearch_TisInt32_t2071877448_m51233948_gshared
Upr:_SliderHandler__ctor_m1547880569
GCc:__ZN7Texture11SetWrapModeEi
gnu:__ZNSt3__26locale5__imp7installINS_9money_putIwNS_19ostreambuf_iteratorIwNS_11char_traitsIwEEEEEEEEvPT_
wFe:__ZN5physx24PxsComputeAABBLocalSpaceERKNS_18PxcAABBDataDynamicERNS_9PxBounds3E
OIq:_ProviderData_CopyFrom_m431414335
TVr:_DTDReader_ClearValueBuffer_m3573008646
RCc:__ZN16PackedQuatVector9PackQuatsEP11Quaternionfi
ulo:__Z115RuntimeInvoker_Void_t1841601450_Rect_t3681755626_Il2CppObject_Int32_t2071877448_Int32_t2071877448_Int32_t2071877448PK10MethodInfoPvPS2_
EVc:__Z33Texture_CUSTOM_Internal_GetHeightP12Il2CppObject
Wxc:__Z20IsValidRealtimeLightRK15SharedLightData9LightTypej
GDj:_LayoutGroup_get_preferredHeight_m3901163825
Cxt:__ZN6il2cpp6icalls6System6System3Net7Sockets27UnpackIPv6AddressFromBufferEPKhiPtPhPj
Syr:_U3CU3Ec_U3COnFacebookAuthResponseChangeU3Eb__40_0_m3862051451
X7a:__ZN23ScriptableRenderContextC2Ev
oz:__ZN7mecanim9animation18ClipMuscleConstant8TransferI24GenerateTypeTreeTransferEEvRT_
Nzu:_emscripten_glTexSubImage2D__wrapper
yqo:__Z74RuntimeInvoker_Void_t1841601450_Il2CppObject_Int64_t909078037_Il2CppObjectPK10MethodInfoPvPS2_
V2l:_GameCenterManager_SubmitAchievement_m2686801025
mHi:_DateTime_AbsoluteDays_m3061694073
eMl:_UM_AdExample_InitStyles_m1404683191
Zui:_Boolean_CompareTo_m1086129598_AdjustorThunk
tmf:_UNITY_FT_Stream_GetChar
Ftm:_Guid_FastNewGuidArray_m890293114
bBs:_ReadOnlyCollection_1_System_Collections_Generic_IListU3CTU3E_RemoveAt_m352618588_gshared
bZo:_DiffieHellmanCryptoProvider_get_PublicKey_m3028472447
gac:__Z18Transfer_BlittableI18StreamedBinaryReadILb1EELb1EdEvRK29SerializationCommandArgumentsR31RuntimeSerializationCommandInfo
rKl:_UIWidget_get_worldCenter_m1326689473
s7q:_Enumerator_System_Collections_IEnumerator_get_Current_m229223308_gshared
Xxe:__ZN5physx6shdfnd8internal8HashBaseINS0_4PairIKNS_2Sq13PrunerPayloadEjEES5_NS0_4HashIS5_EENS1_11HashMapBaseIS5_jS9_NS0_9AllocatorEE6GetKeyESB_Lb1EE5eraseERS6_
x0b:__Z26BuildSerializationCacheFor17ScriptingClassPtrRb
PRe:__ZN5physx13GuMeshFactory16createConvexMeshERNS_13PxInputStreamE
c1e:__ZN5physx6shdfnd8internal8HashBaseINS0_4PairIKPKcjEES5_NS0_4HashIS5_EENS1_11HashMapBaseIS5_jS9_NS_7profile26WrapperReflectionAllocatorIjEEE6GetKeyESD_Lb1EE6createERS6_Rb
q$m:_AnimatorControllerPlayable_CrossFadeInFixedTimeInternal_m3729673154
HUo:_JSONData__ctor_m2404334189
V_c:__ZN5IMGUI9GUIToggleER8GUIStateRK5RectTIfEbR10GUIContentR8GUIStylei
VNs:_X509CrlEntry_get_SerialNumber_m3603416806
dol:_Transform_1_BeginInvoke_m2336029567_gshared
Rll:_XmlSerializationWriter_WriteNullTagLiteral_m930714212
UEp:_GooglePlayUtils_OnAdvertisingIdLoaded_m1396036462
gGs:_ReadOnlyCollection_1_System_Collections_IEnumerable_GetEnumerator_m1734360860_gshared
etb:__ZN10FileSystem12MountHandlerEP17FileSystemHandler
ayn:_UnmanagedReadOrWrite_Invoke_m3422277916
_Qm:_AS_ShortDemo_OnDownload_m1905765722
y5s:_AesManaged_CreateEncryptor_m1729287824
vzi:_FixedSizeArrayListWrapper_AddRange_m2071800418
GP:__ZN13ProduceHelperI8AnimatorLb0EE7ProduceE18MemLabelIdentifier18ObjectCreationMode
noa:__Z9InitInputv
nxh:_Enumerator_VerifyState_m2358705882_AdjustorThunk
o7b:__Z29Transfer_Blittable_ArrayFieldI24GenerateTypeTreeTransfer11ColorRGBA32EvRT_R9ArrayInfoRK23StaticTransferFieldInfo
NRe:__ZNK5physx13GuMeshFactory15getConvexMeshesEPPNS_12PxConvexMeshEjj
KZj:_PhotonLagSimulationGui_OnGUI_m1687661053
MJr:_Selectable_Navigate_m915280351
bob:__ZN16MemoryFileSystem6DeleteER13FileEntryDatab
$8s:_Vector3_get_normalized_m936072361
v5:__Z48Register_UnityEngine_AudioSource_set_rolloffModev
jYo:_OperationResponse_get_Item_m1132132314
hDa:__ZL21BlitScaleStbImageImplRK14ImageReferenceRS_NS_10ColorSpaceE
n4d:__ZN5physx10NpMaterial17setStaticFrictionEf
iZs:_UnitySingleton_1__cctor_m2025859305_gshared
psd:__ZNSt3__26__sortIR31RayHitsByInverseDepthComparitorP12RaycastHit2DEEvT0_S5_T_
DDn:_FtpDataStream_BeginWrite_m3360549687
Moe:__ZNK5physx7NpScene19getFilterShaderDataEv
nkc:_jinit_marker_writer
d3b:__Z29Transfer_Blittable_ArrayFieldI14SafeBinaryReadyEvRT_R9ArrayInfoRK23StaticTransferFieldInfo
BFb:_UNITY_png_icc_set_sRGB
W$:__ZN20SoundChannelInstance15setChannelGroupEPN4FMOD12ChannelGroupE
Cbl:_ObscuredVector3_GetEncrypted_m1882973259
Iik:_UIButtonMessage_OnSelect_m439587158
p$d:__ZN5physx2Sc19ShapeInstancePairLL26onPoseChangedWhileSleepingEv
dad:__ZN12LightsModule13AwakeFromLoadEP14ParticleSystemRK27ParticleSystemReadOnlyState
f2i:_Evidence_Equals_m2325859915
Eze:__ZN5physx22PxcSweepCapsuleCapsuleERKNS_11PxsCCDShapeES2_PKNS_12PxsRigidBodyES5_RKNS_11PxTransformES8_S8_S8_fRNS_6PxVec3ESA_RNS_10PxcNpCacheERNS_18PxcNpThreadContextEf
TMn:_Default__ctor_m172834064
Td:invoke_vifffii
rZb:__ZN20ArchiveStorageReader17MakeStorageUnusedEv
hos:_Regex_IsMatch_m2159202025
BId:__ZNK5physx3Cct17CapsuleController21getHalfHeightInternalEv
BYa:__ZNK25MultiBlocksMemoryFileData5CloneEv
aEg:__ZL106GooglePlayManager_t746138120_CustomAttributesCacheGenerator_GooglePlayManager_resetLeaderBoard_m1535940699P21CustomAttributesCache
G6t:_GC_add_ext_descriptor
cGq:_RemotingServices_GetMethodBaseFromName_m3271095947
uSm:_AudioCategory_UnloadAllAudioClips_m2856746026
A1l:_GameCenterManager_ParseParticipanData_m3901552693
sUk:_BBundleEventListener_BBundleDownloadPercentChanged_m2044357828
ROd:__ZL30GeomOverlapCallback_CapsuleBoxRKN5physx10PxGeometryERKNS_11PxTransformES2_S5_PNS_2Gu12TriggerCacheE
gDp:_GooglePlaySavedGamesManager_remove_ActionGameSaveRemoved_m1718330669
U2o:_IOSNativePopUpManager_showMessage_m885280144
HEk:_ASCIIEncoding_GetBytes_m3617160053
Q6e:__Z38Rigidbody_CUSTOM_INTERNAL_get_velocityP12Il2CppObjectP8Vector3f
zam:_GoogleAnalyticsClient_GenerateHeaders_m395013132
lxs:_Context_get_HasGlobalDynamicSinks_m3205328884
vgk:_UI2DSprite_get_drawingDimensions_m1749435483
WVm:_AudioFader_get_isFadingOutOrScheduled_m3865917415
dR:__ZN26AnimatorControllerPlayable26ParameterControlledByCurveEi
Yjk:_MoveDelegate_Invoke_m3409939807
gjc:__ZL26KeywordSetToStringDontSortRKNSt3__26vectorIN4core12basic_stringIcNS1_20StringStorageDefaultIcEEEENS_9allocatorIS5_EEEERS5_
JLm:_AndroidNotificationManager_ScheduleLocalNotification_m3093817746
rya:__ZN6prcoreL17RemapGenericFloatI16TexFormatRGFloat17TexFormatRGBAHalfEEvPKNS_9InnerInfoE
jc:invoke_iiiidffi
wW:__ZN12AudioManager22CreateFMODSoundFromWWWEP10IWWWStream15FMOD_SOUND_TYPE17FMOD_SOUND_FORMATjjbbP10SampleClip
zuc:__ZNK32RendererMaterialAnimationBinding15GenerateBindingERKN4core12basic_stringIcNS0_20StringStorageDefaultIcEEEEbRN11UnityEngine9Animation14GenericBindingE
Q7p:_Settings_t3767021629_marshal_pinvoke_back
iUm:_AudioController__GetNextMusicTrack_m19388719
Pga:__ZN8Remapper23GetOrGenerateInstanceIDERK26SerializedObjectIdentifier
Ey:__ZN17AnimationCurveTplI8Vector3fEC2ERKS1_
Hvq:_WP8SocialManager_ShareMedia_m981641935
zDm:_StreamWriter_Flush_m3426120024
Kb:invoke_iiiiiifffiiifii
WVi:_SecurityElement_IsValidTag_m64902195
v7q:_Enumerator_System_Collections_IEnumerator_get_Current_m229223308_AdjustorThunk
Ecm:_GoogleAnalyticsClient_SendUserTimingHit_m2762963764
ghs:_CharacterInfo_get_uvBottomRight_m1981483310_AdjustorThunk
_gt:_RuntimeServices_IsPromotableNumeric_m3364364430
Y6m:_GUILayoutEntry_set_style_m70917293
jMh:_List_1_System_Collections_IList_Contains_m4193366963_gshared
BXs:_UnityEvent_3_FindMethod_Impl_m1889846153_gshared
oNn:_ConstructorInfo_Invoke_m2144827141
E1c:__Z32GUIStyle_Set_Custom_PropFontSizeP12Il2CppObjecti
eZl:_FriendInfo_get_IsInRoom_m1716340340
$Mb:__ZN6Sprite8TransferI24GenerateTypeTreeTransferEEvRT_
yXc:__Z48Register_UnityEngine_Transform_SetAsFirstSiblingv
E0m:_Font_get_fontSize_m1732593415
bNb:__ZN7SubMesh8TransferI24GenerateTypeTreeTransferEEvRT_
o1j:_PhotonStream_Serialize_m1699041752
rpa:__Z22MultiplyMatrices4x4REFPK10Matrix4x4fS1_PS_
lyn:_GZipStream_Seek_m265045829
xYn:_MonoProperty_get_CanWrite_m2124922514
Qys:_ReadOnlyCollection_1_System_Collections_Generic_ICollectionU3CTU3E_Remove_m2381940392_gshared
nJc:__Z48Register_UnityEngine_Application_get_absoluteURLv
yxd:__ZN5physx3Cct10Controller6setPosERKNS_14PxExtendedVec3E
Buh:_Enumerator_VerifyState_m4040942671_AdjustorThunk
Fzd:__ZN5physx2GuL14testFaceNormalERKNS0_13PolygonalDataES3_PNS0_12SupportLocalES5_RKNS_6shdfnd3aos15PsMatTransformVESA_RKNS7_6FloatVERSB_RjRNS7_5Vec3VENS0_13FeatureStatusERSI_
Rdi:_Localization_Load_m1254693088
MAm:_Stream_BeginRead_m1985960185
Gxj:_Graphic_UnregisterDirtyVerticesCallback_m1526739224
crc:__ZN13ProduceHelperI14Texture2DArrayLb0EE7ProduceE18MemLabelIdentifier18ObjectCreationMode
$z:__ZN7mecanim5human9HumanGoal8TransferI18StreamedBinaryReadILb0EEEEvRT_
Pjn:_MD4Managed_GG_m1462438360
yRc:__Z46Mesh_CUSTOM_PrintErrorCantAccessMeshForIndicesP12Il2CppObject
vwd:__Z55Register_UnityEngine_Rigidbody2D_INTERNAL_CALL_AddForcev
bIc:__ZN9Transform23SetSiblingIndexInternalEib
cuo:__Z101RuntimeInvoker_Il2CppObject_SByte_t454417549_Il2CppObject_Int32_t2071877448_Il2CppObject_Il2CppObjectPK10MethodInfoPvPS2_
bgm:_SimpleCollator_LastIndexOfOrdinal_m45234497
XOd:__ZL32GeomOverlapCallback_ConvexConvexRKN5physx10PxGeometryERKNS_11PxTransformES2_S5_PNS_2Gu12TriggerCacheE
o1r:_List_1_Equals_m2416030142_gshared
dHj:_UIDrawCall_get_activeList_m442662138
Ywj:_Graphic_get_canvasRenderer_m2902370808
LG:__ZN7mecanim5human12HumanPoseSubERNS0_9HumanPoseERKS1_S4_
WQm:_AS_ShortDemo_Start_m1149267767
Bjn:_MD4_Create_m2582504069
wui:_Boolean_System_IConvertible_ToInt16_m977801621
Y1b:__Z18Transfer_BlittableI14SafeBinaryReadLb0E10Matrix4x4fEvRK29SerializationCommandArgumentsR31RuntimeSerializationCommandInfo
k0a:__Z24GetFixedBehaviourManagerv
DKi:_Convert_ToUInt64_m1691869628
fzt:__ZN6il2cpp2vm10ThreadPool4WaitEP17Il2CppAsyncResultPPv
scu:_vfprintf
g1j:_PhotonStream__ctor_m2691747938
r9r:_Debug_get_logger_m4173808038
Bwr:_FacebookLogger_Warn_m3395822361
i7a:__ZN20DynamicPropertySheetD0Ev
TVp:_XmlDocument_get_XmlLang_m2970763012
u4o:_InvEquipment_HasEquipped_m2417602265
Rlb:__ZN14SafeBinaryRead17RegisterConverterEPKcS1_PFbPvRS_E
TUq:_InternalEnumerator_1_get_Current_m789289033_AdjustorThunk
vba:__ZN35RegisterRuntimeInitializeAndCleanup8RegisterEPFvPvES2_iS0_
Lfp:_ISN_Result__ctor_m2861769927
ux:__ZN7mecanim6memory16ChainedAllocator7ReserveEj
GEn:_FtpWebRequest_UploadData_m3373136954
MGs:_ReadOnlyCollection_1_System_Collections_IList_Clear_m2600246370_gshared
uLs:_SubjectAltNameExtension_get_DNSNames_m1798931443
VFj:_UIDragDropItem_OnDragEnd_m1153002525
ziq:_AIPlayer_my_rand01_m3825693237
Jnq:_AN_PlusButtonsManager__ctor_m30558995
vGb:_UNITY_png_create_read_struct
M4l:_GameCenterManager_LoadCurrentPlayerScore_m364109288
cbl:_ObscuredVector3_InternalDecryptField_m3156899447
Ize:__ZN5physx25PxcSweepConvexHeightfieldERKNS_11PxsCCDShapeES2_PKNS_12PxsRigidBodyES5_RKNS_11PxTransformES8_S8_S8_fRNS_6PxVec3ESA_RNS_10PxcNpCacheERNS_18PxcNpThreadContextEf
Hej:_Array_InternalArray__ICollection_Add_TisBounds_t3033363703_m3624902809_gshared
Ajm:_DSAManaged_NormalizeArray_m2287089393
j$l:_GameBillingManagerExample_UpdateStoreData_m3876131755
o0a:__ZN8Material26ResetAllCachedMaterialDataEP6Shader
Lti:_BitConverter_ToUInt32_m4153360341
l6p:_XsollaForm_GetNextStepString_m843163042
Emf:_UNITY_TT_Get_MM_Var
Uht:__ZN6il2cpp6icalls8mscorlib6System7Decimal13decimal2Int64EP19il2cpp_decimal_reprPx
GMd:__ZN5physx6shdfnd8PoolBaseINS_2Sc10NPhaseCore16ClothListElementENS0_19ReflectionAllocatorIS4_EEE17releaseEmptySlabsEv
da:invoke_diddi
uof:__ZNK2UI6Canvas13GetRenderModeEv
qIi:_Double_TryParseStringConstant_m2585405703
bmk:_Socket_Connect_m2568454999
reu:_unlink
Iii:_Net_RegistrationFormDownloaded_m2305910044
w1b:__Z18Transfer_BlittableI14SafeBinaryReadLb0EiEvRK29SerializationCommandArgumentsR31RuntimeSerializationCommandInfo
gxt:__ZN6il2cpp2vm13MetadataCache30GetPropertyDefinitionFromIndexEi
bts:_ResourceEnumerator__ctor_m1679839941
the:__ZN5physx14NpRigidDynamic7releaseEv
Vym:_MonoIO_GetException_m2577367044
mNj:_UILabel_set_applyGradient_m2277303409
fSp:_XmlChar_IsName_m2494708015
m4:__Z45AudioSource_Set_Custom_PropVelocityUpdateModeP12Il2CppObjecti
Yve:__ZN5physx6shdfnd8PoolBaseINS_21PxsBodyTransformVault13PxsBody2WorldENS0_19ReflectionAllocatorIS3_EEE15disposeElementsEv
m1p:_XmlTextReader_CloseEntity_m118217717
gM:__ZN15SerializeTraitsI9OffsetPtrIN7mecanim9animation23BlendDirectDataConstantEEE8TransferI24GenerateTypeTreeTransferEEvRS4_RT_
Ftr:_TextEditor_ReplaceSelection_m356220427
ryu:_emscripten_glDeleteBuffers__wrapper
aTi:_Enum_ToObject_m322320225
Gvr:_Parser__ctor_m1539748719
qSc:__ZN13MonoBehaviour34StopCoroutineFromEnumeratorManagedE18ScriptingObjectPtr
AGj:_UIDragObject_CancelSpring_m3708092301
m1i:_X509Certificate__ctor_m3860837120
GIb:_alloc_sarray
L5l:_GK_Player_SetPhotoLoadFailedEventData_m2999926306
gV:__Z100Register_UnityEngine_Experimental_Director_AnimatorControllerPlayable_INTERNAL_CALL_SetTriggerStringv
K0m:_GameObject_Internal_CreateGameObject_m3428198595
p8l:_Serializer__ctor_m3202640659
H2m:_GUI_DoRepeatButton_m3482958082
ean:_GUIStyle_Internal_DrawPrefixLabel_m1693575069
sfs:_Camera_RaycastTry2D_m755036866
HGs:_ReadOnlyCollection_1_System_Collections_Generic_IListU3CTU3E_set_Item_m3663361643_gshared
HFd:__ZN5physx2Gu30computeCapsule_TriangleMeshMTDERKNS_22PxTriangleMeshGeometryERKNS_11PxTransformERNS0_8CapsuleVEffbRNS_10PxSweepHitE
MEl:_Dictionary_2_ToTValue_m3070584439_gshared
Lmj:_EventTrigger_OnScroll_m626934407
B_m:_AnimatorControllerPlayable_GetCurrentAnimatorStateInfo_m689786022
vYb:__ZN30RuntimeInitializeOnLoadManager8TransferI18StreamedBinaryReadILb0EEEEvRT_
bRn:_TypeBuilder_not_supported_m3178173643
r_q:_InternalEnumerator_1_System_Collections_IEnumerator_get_Current_m2389982234_AdjustorThunk
Jef:_UNITY_tt_face_load_pclt
VZb:__ZN21ArchiveStorageCreator14StoreDirectoryEv
DGc:__ZL34GetComponentsImplementationRecurseILb1ELi0ELi2EEbR10GameObjectbRK17CompareParametersRK39GetComponentsImplementation_ReturnValue
opd:__ZN10ClipperLib7Clipper24InsertLocalMinimaIntoAELEx
Kai:_Collection_1_System_Collections_IList_set_Item_m2512935148_gshared
Vxn:_DeflateStream_get_CanWrite_m2090715306
u9t:__ZN6il2cpp6icalls8mscorlib6System9Threading5Mutex20CreateMutex_internalEbP12Il2CppStringPb
t9c:__ZN16CustomDataModule8TransferI19StreamedBinaryWriteILb0EEEEvRT_
dzi:_ArrayListWrapper_Remove_m1105489978
u6a:__ZNK6Camera18WorldToScreenPointERK8Vector3fPb
zLs:_PKCS12__ctor_m1564527510
OFe:__ZN5physx2Cm12DelegateTaskINS_10PxsContextEXadL_ZNS2_28mergeCMDiscreteUpdateResultsEPNS_10PxBaseTaskEEEE11runInternalEv
BWe:__ZN5physx19TriangleMeshBuilder10importMeshERKNS_18PxTriangleMeshDescERKNS_15PxCookingParamsEb
N3p:_ValidatorBase__ctor_m1273257043
RXl:_WorkerInGame_OnDisconnectedFromPhoton_m905306444
VCi:_HashKeys_CopyTo_m3566668422
OG:__ZN7mecanim9animation19AdjustPoseForMotionERKNS0_14AvatarConstantERKNS0_14SkeletonTQSMapERKN4math4trsXERNS_10ValueArrayERNS_8skeleton13SkeletonPoseTIS8_EESG_
Qo:FUNCTION_TABLE_fiiffffiiiii
cga:__ZNSt3__227__insertion_sort_incompleteIRPFbRKN18AwakeFromLoadQueue4ItemES4_EPS2_EEbT0_S9_T_
pMs:_PKCS12_Encrypt_m2154408631
pOn:_ILGenerator_label_fixup_m1325994348
$7i:_Enumerable_CreateConcatIterator_TisIl2CppObject_m671053745_gshared
fsr:_SystemInfo_get_supportsShadows_m2920500780
RHr:_Navigation_Equals_m4214630671_AdjustorThunk
w3l:_GameCenterExample_HandleOnAchievementsProgress_m3257875980
Wvl:_Dictionary_2_CopyToCheck_m2179734697_gshared
TDs:_ReadOnlyCollection_1_System_Collections_Generic_IListU3CTU3E_set_Item_m257196015_gshared
_8:__ZNK20LocalFileSystemPosix6ParentERK13FileEntryDataRN4core12basic_stringIcNS3_20StringStorageDefaultIcEEEE
uae:__ZN5physx6shdfnd5ArrayINS_18PxClothFabricPhaseENS0_19ReflectionAllocatorIS2_EEE8recreateEj
BJb:__ZN26EnlightenSystemInformation8TransferI14SafeBinaryReadEEvRT_
r0m:_RenderPipelineManager_PrepareRenderPipeline_m4209257657
gnn:_TlsClientCertificate__ctor_m987604448
F9c:__ZN13InitialModule5ResetEv
eQm:_AS_LoginGUI_RegistrationFormDownloaded_m4152568082
Pvr:_Parser_get_NextChar_m796156371
wRe:__ZN5physx2Sc19ClothFabricBulkData15exportExtraDataERNS_22PxSerializationContextE
Xpe:__ZN5physx2Sq17SceneQueryManager11shiftOriginERKNS_6PxVec3E
lQb:__ZN12MeshRendererD0Ev
LDd:__ZN5physx2Gu16sweepBoxTriangleERKNS_10PxTriangleERKNS_9PxBounds3ERKNS_6PxVec3ES9_RS7_SA_Rf
h8r:_InternalEnumerator_1_System_Collections_IEnumerator_get_Current_m2187749429_gshared
oyn:_GZipStream_BeginWrite_m2614829976
XBi:_Hashtable__ctor_m2702360557
xj:_utime
lXe:__ZN5physx10writeChunkEaaaaRNS_14PxOutputStreamE
Qvt:__ZN15dense_hashtableINSt3__24pairIK10KeyWrapperIPKcEP11Il2CppClassEES5_N6il2cpp5utils11StringUtils12StringHasherIS4_EEN14dense_hash_mapIS5_S8_SE_NS5_14EqualsComparerINSC_21CaseSensitiveComparerEEENS0_9allocatorIS9_EEE9SelectKeyESI_SK_E12resize_deltaEjj
gxn:_Stopwatch_get_ElapsedTicks_m3689589548
xku:__ZNSt3__212basic_stringIcNS_11char_traitsIcEENS_9allocatorIcEEE6appendIPcEENS_9enable_ifIXaasr21__is_forward_iteratorIT_EE5valuesr38__libcpp_string_gets_noexcept_iteratorIS9_EE5valueERS5_E4typeES9_S9_
nin:_PrimalityTest_Invoke_m4058801829
RYo:_BigInteger_op_GreaterThan_m2405874624
wJq:_RemotingConfiguration_SetCustomErrorsMode_m1844153208
bip:_CueController__ctor_m4261041818
iq:FUNCTION_TABLE_viiiiii
g1d:__ZN5physx2Sc9RigidCore13onShapeChangeERNS0_9ShapeCoreENS_7PxFlagsINS0_21ShapeChangeNotifyFlag4EnumEjEENS4_INS_11PxShapeFlag4EnumEhEE
jPp:_Array_InternalArray__get_Item_TisChar_t3454481338_m3646615547_gshared
XJ:__ZN7mecanim9animation22DestroyAvatarWorkspaceEPNS0_15AvatarWorkspaceERNS_6memory9AllocatorE
Q5l:_GK_PlayerSignatureResult__ctor_m2663773193
ipr:_ScriptableObject_CreateInstance_m3271154163
xuh:_Enumerator_System_Collections_IEnumerator_Reset_m4289646889_AdjustorThunk
dwk:_FactoryCache__ctor_m254400436
Pys:_ReadOnlyCollection_1_System_Collections_Generic_IListU3CTU3E_Insert_m2658233018_gshared
Tee:__ZN5physx6shdfnd5ArrayIPvNS0_15InlineAllocatorILj256ENS0_19ReflectionAllocatorINS_2Sc19ParticlePacketShapeEEEEEE15growAndPushBackERKS2_
fhp:_CoinUI__ctor_m604575630
Uts:_RuntimeHelpers_get_OffsetToStringData_m2323796287
lCe:__ZN5physx17solveContactBlockEPKNS_23PxcSolverConstraintDescEjRNS_16PxcSolverContextE
uXe:__ZN5physx6shdfnd10FoundationD2Ev
QZc:__ZNSt3__210__list_impIN10GUIManager12SortedScriptE11memory_poolIS2_EE5clearEv
eCb:__ZN14PlayableOutput17SetSourcePlayableEP8Playable
I1c:__Z32GUIStyle_Set_Custom_PropRichTextP12Il2CppObjecth
ND:__ZN7mecanim9animation29MotionOutputGetDeltaTransformEPKNS0_12MotionOutputE
xGj:_UIDragObject_UpdateBounds_m2034235792
S1i:_StrongNamePublicKeyBlob_Equals_m2407250401
lYk:_Button0_Start_m1124257273
Van:_Hash128_op_Equality_m4074554660
skd:__ZN24b2ChainAndCapsuleContact8EvaluateEP10b2ManifoldRK11b2TransformS4_
wQ:__ZN8Animator14OnAddComponentEPN5Unity9ComponentE
QQk:_UInt64_Equals_m1243465002_AdjustorThunk
iTh:_List_1_CheckMatch_m1184924052_gshared
FWc:__Z43Transform_CUSTOM_INTERNAL_get_localRotationP12Il2CppObjectP11Quaternionf
twe:__ZN5physx2Sc10NPhaseCoreD2Ev
UQd:__ZN5physx2Sc7BodySim18onConstraintDetachEv
Rko:__Z136RuntimeInvoker_Rect_t3681755626_Int32_t2071877448_Int32_t2071877448_Rect_t3681755626_Il2CppObject_Il2CppObject_Il2CppObject_Il2CppObjectPK10MethodInfoPvPS2_
pGn:_HttpWebResponse__ctor_m2248254905
Hvc:__ZZL23RegisterLightPropertiesR22GenericPropertyBindingEN20Wrapper_LightColorr013SetFloatValueEPvf
QPm:_AS_LoginGUI__ctor_m3539920560
$j:_emscripten_glGetTexParameteriv
kau:__ZN6il2cpp2vm9LastError31InitializeLastErrorThreadStaticEv
Soe:__ZN5physx7NpScene8simulateEfPNS_10PxBaseTaskEPvjb
oTq:_InternalEnumerator_1_get_Current_m3206960238_gshared
dik:_UIButtonColor_OnDragOut_m1915013775
Kkn:_RSAManaged_ImportParameters_m3060955884
Voc:__Z13RegisterClassI4MeshEvv
_Ri:_Double_TryParse_m815528105
B3g:__ZL67ManualPhotonViewAllocator_t870609218_CustomAttributesCacheGeneratorP21CustomAttributesCache
KBb:__ZN8PlayableD0Ev
rss:_StrongNameKeyPair_GetRSA_m2992233029
Ydn:_Mathf_SmoothDampAngle_m2501423753
OX:__ZN12AudioManager8TransferI19StreamedBinaryWriteILb0EEEEvRT_
qBm:_WriteDelegate_Invoke_m2103848735
Jpi:_ObjectPool__SetActiveAndSendMessages_m1891651225
iXl:_Vs1UI_FixedUpdate_m3719478316
Xac:__ZN18StreamedBinaryReadILb1EE21TransferSTLStyleArrayI13dynamic_arrayI11ColorRGBA32Lj4EEEEvRT_17TransferMetaFlags
Qfq:_XsollaSummaryItem_GetDescription_m215831593
fYs:_U3CStartU3Ec__Iterator0_Reset_m2580847683_gshared
Kbc:__Z18Transfer_BlittableI18StreamedBinaryReadILb0EELb0E8Vector2fEvRK29SerializationCommandArgumentsR31RuntimeSerializationCommandInfo
WZd:__ZN5physx18NpArticulationLink10clearForceENS_11PxForceMode4EnumE
eJq:_RemotingConfiguration_get_ProcessId_m3870172209
cCq:_RequestSubscriptions_ParseResult_m4179982184
vAd:__ZN5physx2Gu30distanceSegmentTriangleSquaredERKNS_6PxVec3ES3_S3_S3_S3_PfS4_S4_
Ror:_SceneManager_LoadScene_m1386820036
kSt:__ZN6il2cpp6icalls8mscorlib6System2IO6MonoIO4ReadE12Il2CppIntPtrP11Il2CppArrayiiPi
pBh:_List_1_System_Collections_IList_Contains_m917118923_gshared
qOo:_RequestChallenge_UpdateChallenge_m902609217
q9:__ZN22LocalFileSystemHandler9MakeLocalER13FileEntryDatab
rEk:_String_op_Inequality_m304203149
X2t:__ZN6il2cpp2vm8Profiler10AllocationEP12Il2CppObjectP11Il2CppClass
xHi:_Convert_ToDateTime_m1020507389
Utq:_WP8AdMobController_OnInterstitialAdOpened_m3921330976
Dtj:_ColorTween_AddOnChangedCallback_m3190875685
K0c:__Z56Register_UnityEngine_GUI_INTERNAL_CALL_Internal_DoWindowv
prp:_EventDelegate_set_target_m1286255617
F4k:_ObscuredPrefs_EncryptKey_m2662798523
Tym:_Path_IsPathRooted_m1347207448
_Kq:_ObjectManager_RegisterObjectInternal_m879109503
M3i:_Array_get_swapper_TisVector4_t2243707581_m97441823_gshared
lFa:__ZNSt3__26__sortIRNS_4lessIiEEPiEEvT0_S5_T_
Z7e:__ZN14SafeBinaryRead21TransferSTLStyleArrayI10vector_mapINSt3__24pairIttEEfN20TextRenderingPrivate8FontImpl14KerningCompareENS2_9allocatorINS3_IS4_fEEEEEEEvRT_17TransferMetaFlags
a8q:_Enumerator_System_Collections_IDictionaryEnumerator_get_Entry_m744625813_AdjustorThunk
rpc:__Z13RegisterClassI15QualitySettingsEvv
Rok:_AbortHelper_Abort_m1279089869
_rc:__ZN26SkinnedMeshRendererManager33HandleInvalidationRendererChangesEPK23TransformAccessReadOnlyj
A6p:_XsollaFormElement_Parse_m510379919
Ndb:__ZN25DeferredRenderLoopScratchD0Ev
RH:__ZN27AnimationLayerMixerPlayable14SetInputWeightEif
w5m:_GUIStyle_Internal_CalcSize_m1309259680
ufr:_ShimEnumerator_get_Current_m2740997414_gshared
DBt:__ZN15dense_hashtableINSt3__24pairIK10KeyWrapperIPK9EventInfoEP11Il2CppClassEES6_N6il2cpp6icalls8mscorlib6System19Il2CppEventInfoHashEN14dense_hash_mapIS6_S9_SF_NS6_14EqualsComparerINSE_22Il2CppEventInfoCompareEEENS0_9allocatorISA_EEE9SelectKeyESJ_SL_E12maybe_shrinkEv
HG:__ZN7mecanim9animation17EvaluateHumanPoseERKNS0_18ClipMuscleConstantERKNS0_15ClipMuscleInputEPKfRKNS0_12MotionOutputERNS_5human9HumanPoseE
evd:__ZN14dense_hash_mapINSt3__24pairIPK10Collider2DS4_EE11Collision2DNS2_23ColliderPairHashFunctorENS0_8equal_toIS5_EE13stl_allocatorINS1_IKS5_S6_EEL18MemLabelIdentifier65ELi16EEE15set_deleted_keyERSB_
LCj:_InputField_get_preferredHeight_m4231621064
Mam:_GoogleAnalyticsClient_SetDocumentTitle_m3238781406
Jec:__ZN15dense_hashtableINSt3__24pairIKiN4core17string_with_labelILi1EEEEEi18SInt32HashFunctionN14dense_hash_mapIiS5_S7_NS0_8equal_toIiEE13stl_allocatorIS6_L18MemLabelIdentifier1ELi16EEE9SelectKeyESA_SD_E9copy_fromERKSG_j
usa:__ZN6Camera11ResetAspectEv
nsk:_X509BasicConstraintsExtension_get_HasPathLengthConstraint_m3788532759
uSo:_SearchOponentAnimation_SearchAnimation_m2602837096
Czb:__ZNK17InstancedPropInfo22FillInstancePropertiesER19ShaderPropertySheetjPK17BatchInstanceDatajRK15RenderNodeQueue
e8p:_XsollaPaymentImpl_SetModeSandbox_m63230376
Uta:__ZN22CreateGpuProgramOutputD2Ev
Z1m:_GUI_Internal_SetTooltip_m3419738719
x3i:_Array_get_swapper_TisChar_t3454481338_m4185660724_gshared
BJd:__ZNK5physx3Cct15ObstacleContext14getNbObstaclesEv
O9j:_TableTab_ShowTablePattern_m467799590
wwm:_Int64_System_IConvertible_ToSingle_m1678482180_AdjustorThunk
Pil:_XmlReflectionImporter_IncludeType_m4024160934
lSt:__ZN6il2cpp6icalls8mscorlib6System2IO6MonoIO9SetLengthE12Il2CppIntPtrxPi
lUj:_UISliderColors_Start_m1801106774
lUe:__ZN5physx6shdfnd8PoolBaseINS_11NpAggregateENS0_19ReflectionAllocatorIS2_EEE12allocateSlabEv
j2:__ZN13ProduceHelperI13AudioListenerLb0EE7ProduceE18MemLabelIdentifier18ObjectCreationMode
HL:__ZN7mecanim9animation23BlendDirectDataConstant8TransferI14SafeBinaryReadEEvRT_
Oxt:__ZNSt3__26vectorIN6il2cpp2os11PollRequestENS_9allocatorIS3_EEE26__swap_out_circular_bufferERNS_14__split_bufferIS3_RS5_EE
G1r:_FacebookDelegate_1_Invoke_m3398592763_gshared
ixo:__Z130RuntimeInvoker_Il2CppObject_Il2CppObject_Vector3_t2243707580_Il2CppObject_Single_t2076509932_Single_t2076509932_Single_t2076509932PK10MethodInfoPvPS2_
Nfe:__ZN5physx7NpScene26removeFromParticleBaseListERNS_14PxParticleBaseE
mrm:_DateTimeFormatInfo_GetInstance_m3133223810
Hhn:_ModulusRing_BarrettReduction_m2802101099
cbe:__ZN5physx2Sc9ClothCore23setSelfCollisionIndicesEPKjj
cZa:__ZN12HandlerChain4OpenER13FileEntryData14FilePermission16FileAutoBehavior
KHl:_UITable_set_repositionNow_m1840796815
uzi:_FixedSizeArrayListWrapper_Add_m1263586472
Kir:_Plane__ctor_m3209791291
Qia:__ZN14FileCacherReadD2Ev
qEa:__ZN13RendererScene23UpdatePreviousFrameDataEii
P$j:_PhotonNetwork_JoinRandomRoom_m458347434
h$i:_RSAPKCS1SignatureDeformatter_VerifySignature_m1825067195
_Mc:__Z50Register_UnityEngine_CullingGroup_FinalizerFailurev
dth:_KeyValuePair_2_ToString_m2613351884_gshared
tnr:_RectTransformUtility_INTERNAL_CALL_PixelAdjustRect_m1237215542
Ixb:__ZN6Camera15ThreadedCleanupEv
naq:_XsollaPaystation_LoadGoods_m3885506355
SZk:_ClickManager_Update_m2203926979
Jrg:__ZL69ColorBlock_t2652774230_CustomAttributesCacheGenerator_m_DisabledColorP21CustomAttributesCache
TIr:_Scrollbar__ctor_m2244981801
hSt:__ZN6il2cpp6icalls8mscorlib6System2IO6MonoIO9GetLengthE12Il2CppIntPtrPi
MAl:_Dictionary_2_Resize_m2807616086_gshared
lze:__ZN5physx10PxsCCDPair12updateShapesEv
ksu:dynCall_viiifii
L$i:_SHA256Managed_HashCore_m4111458495
$al:_ObscuredVector3__ctor_m4263376834
gMq:_ObjectManager_RecordDelayedFixup_m1895730844
fsi:_ArrayTypeMismatchException__ctor_m1898555879
NV:__ZN9AudioClip23VirtualRedirectTransferER18StreamedBinaryReadILb0EE
$nn:_ClientSessionInfo_CheckDisposed_m1394638186
wVi:_SByte_Parse_m2544167007
asc:__ZN26SkinnedMeshRendererManager38HandleInvalidationRootHierarchyChangesEPK23TransformAccessReadOnlyj
D1l:_GK_TBM_LoadMatchesResult__ctor_m485725648
oNr:_Slider_get_axis_m162140813
Zlo:__Z61RuntimeInvoker_Boolean_t3825574718_Int32_t2071877448_IntPtr_tPK10MethodInfoPvPS2_
srb:__ZN24GenerateTypeTreeTransfer8TransferIN11AssetBundle9AssetInfoEEEvRT_PKc17TransferMetaFlags
Cbe:__ZN5physx2Sc9ClothCore22removeCollisionCapsuleEj
Igm:_BigInteger__ctor_m2945783161
hTj:_UIRoot_Broadcast_m2382930268
H5p:_FinanceItemBase__ctor_m4142705297
Ttm:_IndexOutOfRangeException__ctor_m3497760912
f0o:_U3CU3Ec__DisplayClass3_U3CSendDataU3Eb__1_m1317442026
aSd:__ZN5physx16PxsIslandManager25setArticulationLinkHandleEjPvRKNS_20PxsIslandManagerHookIjLj4294967295EEE
Bl:_glCopyTexSubImage2D
xcd:__ZNK21RotationBySpeedModule6UpdateERK27ParticleSystemReadOnlyStateRK19ParticleSystemStateR23ParticleSystemParticlesRKN4math7_float4Ejj
a0r:_BetterList_1_RemoveAt_m1241716413_gshared
YMd:__ZN5physx2Sc10NPhaseCore39pool_deleteParticleElementRbElementPairEPNS0_35ParticleElementRbElementInteractionEjj
JBu:_glActiveTexture__wrapper
shk:_UIAtlas_GetRandomSprite_m2278682715
b2a:_UNITY_png_write_zTXt
l8:__ZN18ScreenManagerWebGL13SetShowCursorEb
y$a:__ZZ23InitPlayerLoopCallbacksvEN37EarlyUpdateProcessMouseInWindowstruct7ForwardEv
erf:__ZN2UI13CanvasManager14GetRenderOrderEPKNS_6CanvasE
R$d:__ZN5physx6shdfnd5ArrayIPNS_3Scb5ShapeENS0_15InlineAllocatorILj16ENS0_19ReflectionAllocatorIS4_EEEEE15growAndPushBackERKS4_
W1b:__Z18Transfer_BlittableI14SafeBinaryReadLb0E5RectTIfEEvRK29SerializationCommandArgumentsR31RuntimeSerializationCommandInfo
WKa:__ZN9GfxDevice18InsertCustomMarkerEi
VWo:_Protocol_Deserialize_m1562500108
XEs:_ReadOnlyCollection_1_System_Collections_Generic_IListU3CTU3E_RemoveAt_m878653284_gshared
WOa:__ZN18AsyncUploadManager19AsyncResourceUploadER9GfxDeviceii9TextureID
dOa:__ZN14GfxContextGLES14GetFramebufferEv
$et:_WebSocket_Send_m2905861795
EPj:_UIPanel_IsVisible_m1110511972
VEj:_UIScrollView_get_canMoveHorizontally_m2354316132
gxa:__ZN6prcoreL21CreateRemapAnyBlitterE13TextureFormatS0_
wEc:__ZN17AnimationCurveTplIfE16StripInvalidKeysEv
D0l:_GameCenter_TBM_add_ActionMatchDataUpdated_m2211388142
zUr:_XmlTextReader_MoveToAttribute_m2777961970
Wdj:_Array_InternalArray__ICollection_Add_TisKeyValuePair_2_t3716250094_m2381539361_gshared
hIj:_UIEventListener_OnSelect_m4265006643
aom:_X509Extension_WriteLine_m2850991173
Wpf:__ZNK2UI6Canvas17GetSortingLayerIDEv
Ylc:__ZL12HashLen0to16PKcj
nsd:__ZN14Raycast2DQuery8RunQueryEb
uxc:__Z13RegisterClassI17GlobalGameManagerEvv
QLr:_Selectable_get_allSelectables_m3045831006
$Um:_AudioController_SetCategoryVolume_m2023261888
i6i:_Array_InternalArray__ICollection_Remove_TisInt64_t909078037_m2653583130_gshared
IKe:__ZN5physx2Sc8ClothSim16addCollisionMeshEPKNS0_8ShapeSimE
Dyc:__ZN14PlayableOutput6HandleEv
vOj:_UILabel_ApplyShadow_m1797048146
x7j:_JSONNode_get_AsObject_m609138584
twl:_Dictionary_2__ctor_m1995689459_gshared
Wgs:_CharacterInfo_get_maxX_m3293284349_AdjustorThunk
_p:FUNCTION_TABLE_iiiiiiiiiiiiii
LPe:__ZN5physx6shdfnd5ArrayIPKNS_10PxsCCDBodyENS0_19ReflectionAllocatorIS4_EEE8recreateEj
Luo:__Z95RuntimeInvoker_Void_t1841601450_Single_t2076509932_Il2CppObject_Single_t2076509932_Il2CppObjectPK10MethodInfoPvPS2_
dEp:_GooglePlayTBM_RegisterMatchUpdateListener_m3910042542
L$d:__ZN5physx6shdfnd4sortINS_2Cm19PreallocatingRegionENS0_4LessIS3_EENS0_19ReflectionAllocatorIS3_EEEEvPT_jRKT0_RKT1_j
gJs:_Comparison_1_BeginInvoke_m1384288579_gshared
zff:_UNITY_tt_get_cmap_info
iIs:_ReadOnlyCollection_1__ctor_m3342627847_gshared
Jjb:__ZN16ReflectionProbes8ScheduleEN18ReflectionProbeJob7JobTypeEP15ReflectionProbei
rko:__Z81RuntimeInvoker_Boolean_t3825574718_Rect_t3681755626_SByte_t454417549_Il2CppObjectPK10MethodInfoPvPS2_
y7h:_Collection_1_IsFixedSize_m3675221982_gshared
Cel:_TypeTranslator_GetTypeData_m3234098793
L1o:_iAdBannerController_bannerViewActionShouldBegin_m1132649278
Jja:__ZN16MessageForwarder13HandleMessageEPviR11MessageData
Ked:__Z19CalculateVertexDataI11ColorRGBA32EvRK14StrideIteratorI8Vector3fES5_RKS1_IT_EbPK16MeshTriangleDataRKN4math5_int4ESG_P12SkinMeshInfoRNSD_8floatNx3ESK_RNSD_4pix4E
eBk:_String_System_IConvertible_ToUInt64_m3564476970
G9:__Z18IsDirectoryCreatedRKN4core12basic_stringIcNS_20StringStorageDefaultIcEEEE
Dur:_TextGenerator_PopulateAlways_m1595123368
t8r:_Animation_get_isPlaying_m729836826
v$o:_SocketTcp_Send_m258164932
U2l:_GameCenterManager_GetAchievementProgress_m2945545741
N2l:_GameCenterManager_get_Achievements_m2381781581
j2q:_Comparer_1__cctor_m3112251759_gshared
vrk:_X509KeyUsageExtension_ToString_m1992050580
vaf:_UNITY_FT_GlyphLoader_Done
$jj:_Array_qsort_TisChar_t3454481338_TisChar_t3454481338_m2556093393_gshared
Jcq:_FormParam__ctor_m3238359269_AdjustorThunk
bBn:_DigestHeaderParser_Parse_m1058517989
aFq:_ConstructionCall__ctor_m1143766850
lan:_GUIStyleState_Init_m2434147050
UZe:__ZN19CharacterController12SetIsTriggerEb
k2q:_Comparer_1_System_Collections_IComparer_Compare_m3203078743_gshared
Vsd:__ZN19OverlapPointQuery2D14InitializeAABBER6b2AABB
sKj:_UIGrid_SortByName_m2117232175
n7e:__Z59Register_UnityEngine_Rigidbody_INTERNAL_get_angularVelocityv
Fvt:__ZNK6il2cpp5utils11collections13ArrayValueMapIPK10Il2CppType17Il2CppInteropData26InteropDataToTypeConverterNS_8metadata14Il2CppTypeLessENS8_26Il2CppTypeEqualityComparerEE10find_firstERKS5_
gwi:_Byte_CompareTo_m1850579028
YKr:_ScrollRect_get_verticalNormalizedPosition_m1701804869
UCe:__ZN5physx18ComputeSortedListsEPNS_2Cm10BitMapBaseINS_6shdfnd9AllocatorEEEjjPKjPPNS_8SapBox1DES7_PjSB_jRKNS_2Gu4AxesESB_RjSB_SG_RbSH_
ngf:_tt_cmap14_char_var_index
Hxl:_Dictionary_2_System_Collections_ICollection_CopyTo_m4016268624_gshared
X9n:__Z77RuntimeInvoker_TimeSpan_t3430258949_TimeSpan_t3430258949_TimeSpan_t3430258949PK10MethodInfoPvPS2_
uqr:_SliderHandler_OnMouseDown_m2819993578_AdjustorThunk
Mhf:_psh_globals_new
fBm:_FileStream_Seek_m950719389
YAq:_PaymentListView_Sort_m2774935261
IHi:_Decimal_stripStyles_m294582157
$Ik:_UTF8Decoder_GetChars_m3819660582
$3q:_Enumerator_get_CurrentKey_m1685687470_gshared
SZs:_ScreenBaseConroller_1_ResizeToParent_m1132429865_gshared
Nfo:__Z73RuntimeInvoker_Single_t2076509932_Vector3_t2243707580_Vector3_t2243707580PK10MethodInfoPvPS2_
LHa:__ZN9GfxDevice20SetMaxBufferedFramesEi
UMh:_List_1_RemoveAll_m4125997475_gshared
tfl:_XmlArrayAttribute_get_ElementName_m982237702
Pnd:__ZN10Collider2D19WakeAllBodyContactsEv
EQm:_U3CTryToDownloadRegistrationFormU3Ec__AnonStorey2_U3CU3Em__0_m1208249258
Equ:dynCall_vdd
zqf:__ZN2UIL17UnloadAllCanvasesEv
knb:__Z23ConvertIntegerToTypePtrIsEbPvR14SafeBinaryRead
Wyp:_GooglePlayManager_LoadLeaderBoards_m2550410061
Jld:__ZN12b2MouseJoint11ShiftOriginERK6b2Vec2
GLq:_ObjectReader_ReadObjectGraph_m1994105549
mni:_NGUIText_ParseSymbol_m1927929123
Nbk:_Tournament_CalcOpponentPos_m3254672838
_Wd:__ZNK5physx14NpArticulation17releaseDriveCacheERNS_24PxArticulationDriveCacheE
WIj:_UIEventTrigger_OnDragOver_m2750646654
ogi:_MNIOSNative_showDialog_m2209475815
zzi:_FixedSizeArrayListWrapper_Remove_m1359458911
Pek:_TweenPosition_get_position_m877481949
nos:_Regex_Replace_m2887768543
cni:_NGUIText_ParseAlpha_m3047036607
oxa:__ZN6prcoreL29inner_stretch_rgb565_bilinearEPKNS_9InnerInfoE
T3o:_InRoomRoundTimer_Update_m1933442359
dbe:__ZNK5physx2Sc9ClothCore25getSelfCollisionStiffnessEv
ITj:_UIScrollView_get_shouldMove_m737897196
jYt:__ZN6il2cpp2vm12GenericClass12SetupMethodsEP11Il2CppClass
iUk:_BaseValidator_validate_m2777604216
$lj:_EventSystem_get_current_m319019811
hRl:_UM_NotificationsExample_OnGUI_m1889813396
p3m:_GUI_Toolbar_m3449288727
XDq:_StatusViewController_AddLine_m1254597792
Azr:_Constants_get_IsWeb_m4203885467
Vcb:__ZNK14RenderSettings19GetFlatAmbientColorEv
Fjb:__ZN6prcoreL10inner_flipILj4EEEvPhS1_j
eWb:__ZN18StreamedBinaryReadILb0EE21TransferSTLStyleArrayI10vector_mapIPKN5Unity4TypeE7Hash128NSt3__24lessIS6_EENS8_9allocatorINS8_4pairIS6_S7_EEEEEEEvRT_17TransferMetaFlags
cE:__ZNK27StateMachineBehaviourPlayer15IsSenderEnabledEv
$3l:_GameCenterFriendLoadExample_OnFriendsListLoaded_m3417984813
q3f:__ZL57ParticleSystem_t3394631041_CustomAttributesCacheGeneratorP21CustomAttributesCache
PCr:_Canvas_get_FacebookPayImpl_m2686467812
Oqp:_U3CStartU3Ec__Iterator0_Reset_m1507549365
wan:_GUIText_set_fontSize_m2543225681
dAj:_InputField_get_shouldHideMobileInput_m3694613599
xNn:_CustomAttributeData_ToString_m1673522836
nXc:__Z40Register_UnityEngine_Transform_SetParentv
umk:_Socket_SendTo_nochecks_m3603649797
Jhj:_Array_InternalArray__Insert_TisTimeSpan_t3430258949_m3376884148_gshared
BPm:_U3CTryToLoginU3Ec__Iterator3_MoveNext_m1122104471
mam:_GoogleAnalyticsClient_SetEventValue_m1974250341
xbr:_KeyCollection_System_Collections_Generic_ICollectionU3CTKeyU3E_Clear_m878716502_gshared
RNb:__ZN14Texture2DArray17UploadToGfxDeviceEv
rEs:_ReadOnlyCollection_1_System_Collections_Generic_IListU3CTU3E_Insert_m4216310986_gshared
ehk:_UIAtlas_MarkAsChanged_m243549185
zZ:__Z14FMODMemoryFreePvjPKc
OQn:_EnumBuilder_get_BaseType_m63295819
Eoq:_AN_SoomlaGrow_add_ActionDisconnected_m4210638345
V4m:_GUI_DragWindow_m2681424877
jtb:__ZN15dense_hashtableINSt3__24pairIKN4core12basic_stringIcNS2_20StringStorageDefaultIcEEEES6_EES6_20StringHash32FunctionIS6_EN14dense_hash_mapIS6_S6_SA_NS0_8equal_toIS6_EE13stl_allocatorIS8_L18MemLabelIdentifier54ELi16EEE9SelectKeyESD_SG_EC2ERKSJ_j
Eff:_tt_cmap0_validate
E4j:_PlayServiceCustomLBExample_ShowDay_m4013836832
djf:_cf2_glyphpath_moveTo
gsu:dynCall_vifdii
Oeu:_fputs
tzj:_Image_get_pixelsPerUnit_m4104195799
Pse:__ZN5physx3Scb4Body9syncStateEv
oXj:_PaymentManagerExample_OnTransactionComplete_m3687947871
oTm:_AudioFader_Get_m1831878246
ODg:__ZL109GooglePlayManager_t746138120_CustomAttributesCacheGenerator_GooglePlayManager_showLeaderBoardById_m2387916307P21CustomAttributesCache
T4i:_Array_InternalArray__ICollection_Contains_TisMark_t2724874473_m1640201705_gshared
GNi:_DateTimeOffset__ctor_m1796624924
p6m:_GUILayoutUtility_get_spaceStyle_m1918520192
J8k:_ObscuredUInt_ToString_m500717795
wfi:_Maths_rot_ax_m466995782
i$d:__ZN5physx12PxsRigidBody23updatePoseDependenciesVERNS_10PxsContextE
BMi:_DateTime_ToBinary_m2497023899_AdjustorThunk
l_c:__ZN5IMGUI14GUIWindowStateD2Ev
O6t:_GC_is_heap_ptr
Sno:__Z140RuntimeInvoker_Void_t1841601450_Int32_t2071877448_Il2CppObject_Il2CppObject_Il2CppObject_Il2CppObject_Il2CppObject_Il2CppObject_Il2CppObjectPK10MethodInfoPvPS2_
NPt:__GLOBAL__sub_I_Assembly_cpp
eoc:__Z13RegisterClassI19AssetBundleManifestEvv
Wan:_Hash128_Equals_m758095853_AdjustorThunk
NEi:_ListKeys_set_Item_m3874991951
Mip:_Frame_SetFrame_m34201244
kWr:_DTDReader_Init_m272889716
M1j:_PhotonTransformViewPositionControl_SetSynchronizedValues_m2273102306
Kza:__Z21PlayerStartFirstSceneb
YCp:_GooglePlaySavedGamesManager_remove_ActionNewGameSaveRequest_m2317422101
n3n:__Z70RuntimeInvoker_Void_t1841601450_IntPtr_t_Il2CppObject_SByte_t454417549PK10MethodInfoPvPS2_
aD:__ZN7mecanim5human10RetargetToEPKNS0_5HumanEPKNS0_9HumanPoseES6_RKN4math4trsXEPS4_PNS_8skeleton13SkeletonPoseTIS8_EESF_
cH:__ZN7mecanim9animation8SeekClipERKNS0_12StreamedClipERNS0_18StreamedClipMemoryEf
mOn:_TypeBuilder_DefineDefaultConstructor_m2225828699
XTj:_UIScrollView_LateUpdate_m2528942456
jo:_emscripten_glIsTexture
Ty:__ZN24CompressedAnimationCurveaSERKS_
gzi:_ArrayListWrapper_CopyTo_m793444109
Nm:_emscripten_glHint
$Xq:_InternalEnumerator_1_get_Current_m669065660_AdjustorThunk
rmf:_ft_var_readpackeddeltas
oMi:_DateTime_AddMilliseconds_m1813199744_AdjustorThunk
ncs:_DelegatePInvokeWrapper_PCMReaderCallback_t3007145346
X_g:__ZL48UIRoot_t389944298_CustomAttributesCacheGeneratorP21CustomAttributesCache
jVn:_TypeBuilder_IsValueTypeImpl_m1499671481
nXk:_Boost_Start_m2043209470
Dkn:_KeyGeneratedEventHandler_Invoke_m1298576133
NJq:_TrackingServices__cctor_m3639412334
ZWi:_DESTransform_CipherFunct_m3559419566
xru:dynCall_fiffifi
mo:_SDL_UpperBlit
x9m:_GUIStyle_op_Implicit_m781448948
Adb:__Z35GetTextureDecodeValuesWithIntensity16TextureUsageMode17TextureColorSpace10ColorSpacef
fwi:_Byte_GetHashCode_m2885528842_AdjustorThunk
Sli:_NGUIDebug_Clear_m559976614
T6d:__ZNK5physx7NpShape16getContactOffsetEv
hyp:_GooglePlayManager_remove_ActionScoresListLoaded_m1501696080
PEe:__ZN5physx14PxsAABBManager21processAggregatePairsEPKNS_19AggregateSortedDataE
Vzl:_Dictionary_2_OnDeserialization_m2092139626_gshared
Eld:__ZNK12b2MouseJoint10GetAnchorAEv
i4e:_PxCreateCooking
f9s:_Vector3_get_sqrMagnitude_m1814096310
P$b:__ZN14SafeBinaryRead20OverrideRootTypeNameEPKc
Uia:__ZN14FileCacherRead16UnlockCacheBlockEj
gRk:_UIntPtr_get_Size_m537421489
F$j:_PhotonNetwork_OverrideBestCloudServer_m2119809855
l8e:__ZNSt3__26vectorIN4core12basic_stringIcNS1_20StringStorageDefaultIcEEEE13stl_allocatorIS5_L18MemLabelIdentifier34ELi16EEE6assignINS_11__wrap_iterIPS5_EEEENS_9enable_ifIXaasr21__is_forward_iteratorIT_EE5valuesr16is_constructibleIS5_NS_15iterator_traitsISF_E9referenceEEE5valueEvE4typeESF_SF_
bto:__Z67RuntimeInvoker_Boolean_t3825574718_Vector3_t2243707580_Il2CppObjectPK10MethodInfoPvPS2_
W$g:__ZL76DisconnectCause_t1534558295_CustomAttributesCacheGenerator_TimeoutDisconnectP21CustomAttributesCache
rqr:_SliderHandler_StartDraggingWithValue_m1407392347
Kgd:__Z35ParticleSystemRenderer_RenderMeshesRK15RenderNodeQueuej17ShaderChannelMaski
bgb:__ZN6Camera6RenderER11CullResultsR17ShaderPassContextPK21CameraRenderingParamsNS_10RenderFlagE
Vf:_emscripten_glUniform1f
Ces:_Camera_set_transparencySortMode_m1713712844
ASj:_UIProgressBar_Start_m1842350719
Waf:__Z20ParseImageParametersR11UTF16StringRiRN20TextRenderingPrivate16TextFormatChangeE
xik:_UIButtonColor_OnSelect_m471906554
Ee:_emscripten_glUniform1i
G$b:__ZN13MonoBehaviour9CallAwakeEv
tOe:__ZN5physx2Sc19ShapeInstancePairLL23postIslandGenSecondPassEv
RId:__ZN5physx3Cct26CharacterControllerManager16createControllerERKNS_16PxControllerDescE
M2l:_GameCenterManager_RegisterAchievement_m3344494619
dgc:__ZN9ShaderLab16SerializedTagMapaSERKS0_
R$o:_TPeer_EnqueueInit_m1276967260
cye:__ZN5physx2Sq16BucketPrunerCore12updateObjectERKNS_9PxBounds3ERKNS0_13PrunerPayloadE
GNe:__ZN5physx18PxsDynamicsContext23atomIntegrationParallelEfPKPNS_11PxsBodyCoreEPKPNS_12PxsRigidBodyEjPKNS_2Cm13SpatialVectorEPNS_13PxcSolverBodyEPNS_17PxcSolverBodyDataEPSA_RjSI_RNS_10PxBaseTaskE
jPq:_InternalEnumerator_1_System_Collections_IEnumerator_get_Current_m3680087284_gshared
LJ:__ZN11UnityEngine9Animation27CreateAvatarBindingConstantER9TransformPKN7mecanim9animation14AvatarConstantERNS3_6memory9AllocatorE
UXb:__ZN14SafeBinaryRead21TransferSTLStyleArrayINSt3__26vectorIN30RuntimeInitializeOnLoadManager9ClassInfoE13stl_allocatorIS4_L18MemLabelIdentifier12ELi16EEEEEEvRT_17TransferMetaFlags
SRk:_UnitySerializationHolder_GetObjectData_m2280028722
TVo:_SimulationItem__ctor_m1338115062
y5q:_Enumerator_System_Collections_IDictionaryEnumerator_get_Entry_m1723581873_gshared
NWi:_DES_IsSemiWeakKey_m3967392585
wHc:__ZN9BlobWriteC2ER13dynamic_arrayIhLj16EE24TransferInstructionFlags19BuildTargetPlatform
EWp:_XmlDocument_ReadAttributeNode_m3689034291
kks:_Debug_DrawLine_m2961609580
nha:__ZN14MessageHandler3GetEv
q3l:_GK_LeaderboardSet_add_OnLoaderboardsInfoLoaded_m1875335581
i8m:_GUISkin_set_verticalScrollbarThumb_m2647835739
EOa:__ZN10DynamicVBO9DrawChunkERK21DynamicVBOChunkHandle17ShaderChannelMaskS3_P17VertexDeclarationPKNS_10DrawParamsEi
Re:_emscripten_glAttachShader
amc:__Z16tesedgeIntersectP10TESSvertexS0_S0_S0_S0_
iDs:_ReadOnlyCollection_1__ctor_m1539890895_gshared
KHa:__ZN9GfxDevice13SetActiveTierE12GraphicsTier
axh:_Enumerator_System_Collections_IEnumerator_get_Current_m3079057684_AdjustorThunk
Geq:_StatusTextElement__ctor_m2243642406
jUb:__ZNSt3__26vectorIN4core12basic_stringIcNS1_20StringStorageDefaultIcEEEENS_9allocatorIS5_EEE6assignIPS5_EENS_9enable_ifIXaasr21__is_forward_iteratorIT_EE5valuesr16is_constructibleIS5_NS_15iterator_traitsISC_E9referenceEEE5valueEvE4typeESC_SC_
Ujm:_KeyPairPersistence_get_UserPath_m3433052783
gHd:__ZN5physx2Gu19GetRaycastFuncTableEv
$Ko:_ProfileScene_Start_m2874823798
mxo:__Z110RuntimeInvoker_Il2CppObject_Il2CppObject_Il2CppObject_Double_t4078015681_Single_t2076509932_Single_t2076509932PK10MethodInfoPvPS2_
wvf:__ZL58Decimal_t724701077_CustomAttributesCacheGenerator_MinusOneP21CustomAttributesCache
I1b:__Z18Transfer_BlittableI14SafeBinaryReadLb0E11QuaternionfEvRK29SerializationCommandArgumentsR31RuntimeSerializationCommandInfo
B6:__ZNK13EmscriptenWWW6GetUrlEv
Znd:__ZN13BoxCollider2D16CheckConsistencyEv
lOe:__ZN5physx17EdgeChangeManager23cleanupBrokenEdgeEventsEPKNS_4EdgeE
hcc:__Z18Transfer_BlittableI18StreamedBinaryReadILb0EELb1E12PropertyNameEvRK29SerializationCommandArgumentsR31RuntimeSerializationCommandInfo
Mjp:_CustomTypes_Register_m3040420346
y7:_tlsf_walk_heap
Fmm:_PKCS12_Decode_m731190390
ZMd:__ZN5physx2Sc35ParticleElementRbElementInteraction7destroyEbj
osc:__ZNK25BlendshapePropertyBinding38SerializedPropertyPathToCurveAttributeER6ObjectPKc
OIt:__ZNK15dense_hashtableINSt3__24pairIK10KeyWrapperINS1_IPK12PropertyInfoP11Il2CppClassEEEjEES9_17ReflectionMapHashIS8_EN14dense_hash_mapIS9_jSD_NS9_14EqualsComparerINS0_8equal_toIS8_EEEENS0_9allocatorISB_EEE9SelectKeyESI_SK_E13find_positionERSA_
B4s:_InvokableCall_1_Invoke_m428957899_gshared
X2j:_PickupController_Awake_m1125638096
qCj:_InputField_ForceLabelUpdate_m1432314039
ic:invoke_vif
kc:invoke_vid
mc:invoke_vii
nmk:_Socket_Receive_m3396943767
fre:__ZN5physx13NpVolumeCacheD2Ev
Qkc:_encode_mcu_huff
KDn:_FtpDataStream_Dispose_m540724146
i8l:_Parser_ParseArray_m3921141171
ipb:__ZN12TLSAllocatorI14StackAllocatorE16ThreadInitializeEP13BaseAllocator
Eyi:_ArrayList_Sort_m2778059513
yYn:_MonoProperty_get_PropertyType_m1921201152
ocn:_LineRenderer_SetVertexCount_m2685086340
Ytj:_FloatTween_TweenValue_m3881535116_AdjustorThunk
gLe:__ZThn8_N5physx2Sc35ParticleElementRbElementInteraction12onDeactivateEj
xyj:_LayoutGroup_SetChildAlongAxis_m2732017156
JEi:_ListKeys_CopyTo_m806867729
$rf:__Z41CanvasRenderer_CUSTOM_DisableRectClippingP12Il2CppObject
tZs:_ScreenBaseConroller_1_remove_ErrorHandler_m1780867625_gshared
jdk:_TournamentPanelUI_Start_m3570839604
rjn:_MD2_Create_m539024737
ZAe:__ZN5physx16PxsThreadContextC2EPNS_10PxsContextE
k2m:_GUI_get_blendMaterial_m454011614
YKl:_UIWidget_UpdateGeometry_m387959493
RYa:__ZN25SingleBlockMemoryFileDataD0Ev
krb:__ZNSt3__26vectorI14ConstantStringNS_9allocatorIS1_EEE6assignINS_11__wrap_iterIPS1_EEEENS_9enable_ifIXaasr21__is_forward_iteratorIT_EE5valuesr16is_constructibleIS1_NS_15iterator_traitsISA_E9referenceEEE5valueEvE4typeESA_SA_
O4t:_GC_make_disappearing_links_disappear
zxd:__ZN5physx3Cct10Controller4moveERNS0_11SweptVolumeERKNS_6PxVec3EffRKNS_19PxControllerFiltersEPKNS_17PxObstacleContextEb
yie:__ZN5physx14NpRigidDynamic17setAngularDampingEf
X2b:__ZNSt3__26vectorI8GUIStyle13stl_allocatorIS1_L18MemLabelIdentifier1ELi16EEE7reserveEj
IPt:__ZN6il2cpp6icalls8mscorlib6System9Threading6Thread27GetSerializedCurrentCultureEP12Il2CppThread
S3:__Z32AudioSource_Get_Custom_PropPitchP12Il2CppObject
ncj:_Array_InternalArray__IndexOf_TisUInt32_t2149682021_m3231515987_gshared
Uup:_FriendBar_OnClickChallangeBtn_m595915324
xBt:__ZN15dense_hashtableINSt3__24pairIK10KeyWrapperIPK9EventInfoEP11Il2CppClassEES6_N6il2cpp6icalls8mscorlib6System19Il2CppEventInfoHashEN14dense_hash_mapIS6_S9_SF_NS6_14EqualsComparerINSE_22Il2CppEventInfoCompareEEENS0_9allocatorISA_EEE9SelectKeyESJ_SL_E6insertERKSA_
Vqc:__Z31CalculateHierarchyTransformType23TransformAccessReadOnly
OVc:__Z41Texture2D_CUSTOM_INTERNAL_CALL_ReadPixelsP12Il2CppObjectRK5RectTIfEiih
kpc:__Z13RegisterClassI11TimeManagerEvv
yap:_IOSNotificationController_add_OnLocalNotificationReceived_m882720562
pZ:__ZN4FMOD8ChannelI11setPositionEjj
txh:_Enumerator_VerifyState_m4188527104_gshared
U1t:__ZL7z_allocPvjj
ITd:__ZN5physx6shdfnd8PoolBaseINS_2Sc12SimStateDataENS0_19ReflectionAllocatorIS3_EEE17releaseEmptySlabsEv
Buo:__Z79RuntimeInvoker_Boolean_t3825574718_Il2CppObject_Il2CppObject_Single_t2076509932PK10MethodInfoPvPS2_
jna:__ZN17BaseObjectManager13StaticDestroyEPv
aos:_Regex_Split_m1359617913
YPq:_InternalEnumerator_1_get_Current_m3164709158_gshared
eur:_TextGenerationSettings_CompareVector2_m592645251
hOi:_DBNull_System_IConvertible_ToChar_m3344298044
qKj:_UIGrid_Update_m1841310228
oBd:__ZN5physx2Gu22closestPtPointTriangleEPNS_6shdfnd3aos5Vec3VES4_S4_Rj
Rnm:_X509Certificate_GetObjectData_m3888130484
wXb:__ZNSt3__26vectorIN15ResourceManager10DependencyE13stl_allocatorIS2_L18MemLabelIdentifier51ELi16EEEC2INS_11__wrap_iterIPS2_EEEET_SB_RKS5_PNS_9enable_ifIXaasr21__is_forward_iteratorISB_EE5valuesr16is_constructibleIS2_NS_15iterator_traitsISB_E9referenceEEE5valueEvE4typeE
D1d:__ZN5physx2Cm8PtrTableC2Ev
HPj:_UIPanel_RebuildAllDrawCalls_m2421877910
qyk:_LinkStack_Push_m2660199875
jY:__ZN4FMOD6Reverb13setPropertiesEPK22FMOD_REVERB_PROPERTIES
R7a:__ZN9DepthPass13PrepareSubsetEjRK10RenderNodeifRK17ShaderReplaceData
hEe:__ZN5physx16PxsBroadPhaseMBP6updateEjjRKNS_23PxcBroadPhaseUpdateDataEPNS_10PxBaseTaskE
s5d:__ZN5physx9NpPhysics18createRigidDynamicERKNS_11PxTransformE
Apj:_StandaloneInputModule_get_repeatDelay_m3025279
xOd:__ZN5physx6shdfnd5ArrayIPvNS0_19ReflectionAllocatorINS_2Sc18TriggerInteractionEEEE15growAndPushBackERKS2_
JWo:_Protocol_SerializeDictionaryElements_m651361051
S3m:_GUIStyleState_GetGUIStyleState_m2816150617
X5s:_TouchScreenKeyboard_Open_m3410222954
QLs:_X509CertificateCollection_Add_m4008705157
Rii:_Net_OnlineStatus_m2153746589
khi:_MNWP8Dialog_OnOkDel_m1760248079
Xqj:_LayoutRebuilder_MarkLayoutRootForRebuild_m2779623641
xCk:_String_LastIndexOf_m554153234
dBc:__Z35SetMeshComponentFromArrayFromScriptR4Mesh30InternalScriptingShaderChannel34InternalScriptingVertexChannelTypei17ScriptingArrayPtri
ELh:_List_1_FindAllList_m2884663759_gshared
qFc:__Z18ExtractTagThrowingR11ICallString
A4h:_Collection_1_IsFixedSize_m1816795498_gshared
F$a:__ZZ23InitPlayerLoopCallbacksvEN40EarlyUpdatePlayerCleanupCachedDatastruct7ForwardEv
n_j:_PhotonManager_OnPhotonRandomJoinFailed_m2239183927
IEd:__ZN5physx2Gu17intersectRayAABB2ERKNS_6shdfnd3aos5Vec3VES5_S5_S5_RKNS2_6FloatVERS6_S9_
au:__ZN4core20StringStorageDefaultIcE6assignEPKcj
wbk:_ThirdPersonNetwork_Update_m1716647096
d$j:_PhotonNetwork_get_autoCleanUpPlayerObjects_m1215772824
f0k:_ObscuredByte_op_Increment_m2855562136
A6d:__ZNK5physx7NpShape17getSphereGeometryERNS_16PxSphereGeometryE
KGd:__ZL18intersectAnyVsMeshILi1EEbPKN5physx2Gu6SphereEPKNS1_7CapsuleEPKNS1_3BoxERKNS1_13RTreeMidphaseERKNS0_11PxTransformERKNS0_11PxMeshScaleEP14LimitedResults
lVt:__ZN15dense_hashtableINSt3__24pairIK10KeyWrapperIP12Il2CppObjectEN6il2cpp2gc9CachedCCWEEES5_NS7_5utils11PointerHashIS3_EEN14dense_hash_mapIS5_S9_SD_NS5_14EqualsComparerINS0_8equal_toIS4_EEEENS0_9allocatorISA_EEE9SelectKeyESI_SK_E3endEv
XXb:__Z14resize_trimmedINSt3__26vectorIi13stl_allocatorIiL18MemLabelIdentifier12ELi16EEEEEvRT_j
fpj:_MouseButtonEventData_ReleasedThisFrame_m482758300
_as:_Application_BuildInvocationForArguments_m2664585189
$1s:_Nullable_1_Equals_m3653349131_gshared
h_m:_AnimatorControllerPlayable_IsParameterControlledByCurve_m3222505226
$4k:_ObscuredPrefs_GetString_m3126892840
QRd:__ZN5physx6shdfnd5ArrayIPvNS0_15InlineAllocatorILj256ENS0_19ReflectionAllocatorINS_2Cm5BlockIhLj128EEEEEEEE15growAndPushBackERKS2_
Ezi:_ReadOnlyArrayListWrapper_set_Item_m2199017141
_5i:_Array_InternalArray__ICollection_Remove_TisKeyValuePair_2_t488203048_m1926328505_gshared
shb:__ZN6Camera6SetFarEf
LLs:_DeriveBytes_DeriveIV_m3343375195
SQc:__Z45Register_UnityEngine_Light_INTERNAL_set_colorv
Ssc:__ZN26SkinnedMeshRendererManager22InitializePreparedInfoEPNS_20PreparedRendererInfoER19SkinnedMeshRenderer
FEc:__ZNK17AnimationCurveTplI11QuaternionfE13EvaluateClampEfPNS1_5CacheE
Vxa:__ZN6prcoreL12RemapGenericI17TexFormatABGR888817TexFormatARGB8888EEvPKNS_9InnerInfoE
Hvb:__ZN11GameManager17MainThreadCleanupEv
jZm:_AnimatorControllerPlayable_INTERNAL_CALL_GetAnimatorControllerInternal_m239716681
AAt:__ZN6il2cpp6icalls8mscorlib6System18CollectTypeMethodsINS_5utils10functional6FilterINSt3__212basic_stringIcNS7_11char_traitsIcEENS7_9allocatorIcEEEENS4_11StringUtils23CaseInsensitiveComparerEEEEEvP11Il2CppClassPKSH_jRKT_RNS7_6vectorIPK10MethodInfoNSB_ISR_EEEERA65535_b
Ihs:_Collision_get_transform_m4132935520
LQn:_TypeBuilder_get_Assembly_m492491492
mko:__Z95RuntimeInvoker_Boolean_t3825574718_Rect_t3681755626_Il2CppObject_Il2CppObject_Int32_t2071877448PK10MethodInfoPvPS2_
s7e:__Z52Register_UnityEngine_Rigidbody_INTERNAL_get_rotationv
Lpq:_AndroidADBanner_Refresh_m3980831044
P9i:_IOSFacebook_AddCallback_TisIl2CppObject_m4001797744_gshared
nad:__ZN14ParticleSystem10ResetSeedsEv
Jol:_Transform_1_BeginInvoke_m2225416906_gshared
Mlq:_AN_GoogleAdProxy_SetBannerPosition_m3713766912
c9d:__ZNK5physx7NpCloth24getParticleAccelerationsEPNS_6PxVec4E
elf:_UNITY_tt_slot_init
Xhq:_AdMobBanner__ctor_m2625790734
FYi:_HMACSHA512__cctor_m1167457383
udc:__Z25scripting_array_class_get17ScriptingClassPtrj
z4n:__Z104RuntimeInvoker_Void_t1841601450_Il2CppObject_Il2CppObject_Il2CppObject_SByte_t454417549_SByte_t454417549PK10MethodInfoPvPS2_
eJa:__ZN9GfxDevice20DestroyRenderSurfaceER12ObjectHandleI17RenderSurface_TagP17RenderSurfaceBaseE
W8t:__ZNSt3__26__treeINS_12__value_typeINS_12basic_stringIcNS_11char_traitsIcEENS_9allocatorIcEEEEPFvvEEENS_19__map_value_compareIS7_SA_NS_4lessIS7_EELb1EEENS5_ISA_EEE25__emplace_unique_key_argsIS7_JRKNS_21piecewise_construct_tENS_5tupleIJOS7_EEENSL_IJEEEEEENS_4pairINS_15__tree_iteratorISA_PNS_11__tree_nodeISA_PvEEiEEbEERKT_DpOT0_
wrc:__ZL24PrepareSpriteRenderNodesILb1EEvR35RenderNodeQueuePrepareThreadContext
FVm:_AudioController_OnDestroy_m1702289200
FWa:__ZN9GfxDevice22UpdateComputeResourcesEjPK9TextureIDPK16TextureDimensionPKijPKjjPK15ComputeBufferIDS7_PK20ComputeBufferCounterjSC_S2_S5_S9_SF_
cxc:__ZN12_GLOBAL__N_15qAsinEff
$Mp:_Dictionary_2_Do_ICollectionCopyTo_TisKeyValuePair_2_t3749587448_m2536766696_gshared
jpb:__ZN12TLSAllocatorI14StackAllocatorE13ThreadCleanupEv
PZj:_PhotonManager_Start_m2540222680
DYm:_AnimationClipPlayable_set_speed_m3332297554
zdm:_GoogleCloudManager_OnStateUpdated_m3430422025
k3k:_ObscuredInt_SetNewCryptoKey_m4192392724
wko:__Z102RuntimeInvoker_Int32_t2071877448_Int32_t2071877448_Il2CppObject_Il2CppObject_Il2CppObject_Il2CppObjectPK10MethodInfoPvPS2_
MOb:__ZN4Mesh27SwizzleVertexColorsIfNeededEb
Rpb:__Z27FindActiveTransformWithPathPKc
nMc:__Z45Register_UnityEngine_Camera_INTERNAL_set_rectv
Tme:__ZN5physx16PxsIslandManager14setEdgeRigidCMERKNS_20PxsIslandManagerHookIjLj4294967295EEEPNS_17PxsContactManagerE
wPt:__ZN6il2cpp6icalls8mscorlib6System9Threading6Thread14Sleep_internalEi
Sqa:__ZN7Texture5ResetEv
Q9n:__Z56RuntimeInvoker_TimeSpan_t3430258949_TimeSpan_t3430258949PK10MethodInfoPvPS2_
oEr:_AndroidFacebook_GetAndroidWrapper_m2922105665
Zdl:_XmlCustomFormatter_FromEnum_m1669596095
yxl:_Dictionary_2_System_Collections_IDictionary_Contains_m911087162_gshared
ISe:__ZN5physx2Gu11HeightField7releaseEv
Eej:_Array_InternalArray__ICollection_Add_TisFadeEntry_t3041229383_m221401794_gshared
X9a:__ZNK6Camera7GetNearEv
YHj:_UIItemSlot__ctor_m2746689992
dxn:_Stopwatch_StartNew_m2200430001
$ok:_WebConnectionStream_get_CompleteRequestWritten_m2866283642
Cip:_CueController_Update_m1889427549
NNa:__ZN7ApiGLES11UnmapBufferEjN2gl12BufferTargetE
lzq:_ShopItemViewAdapter_SetRealPrice_m773644590
NDb:__Z25GetNextAllowedTextureSizeib13TextureFormat
n9:__ZN20LocalFileSystemWebGL4CopyER13FileEntryDataS1_
iCs:_ReadOnlyCollection_1_System_Collections_Generic_IListU3CTU3E_get_Item_m3071300160_gshared
w2i:_StrongName_Equals_m67226644
fhq:_ActiveAnimation_Reset_m2370934072
Twb:__ZN12BaseRenderer20FlattenToRenderQueueER15RenderNodeQueueRK20DeprecatedSourceData
JKe:__ZN5physx2Sc8ClothSim23addCollisionHeightfieldEPKNS0_8ShapeSimE
uFm:_UnmanagedMemoryStream_get_Length_m587008850
r6j:_PopupUI_Awake_m2251547096
AAa:__Z34scripting_liveness_calculation_endPv
e3i:_SecurityFrame_InitFromRuntimeFrame_m45195821
e1p:_XmlTextReader_get_LinePosition_m874032802
ZWp:_XmlDocumentFragment_WriteContentTo_m378408406
$p:FUNCTION_TABLE_viiiffiii
ocm:_GoogleAnalyticsClient_SetServerResponseTime_m2258899721
uAr:_FacebookLogger_Log_m502362239
Twl:_Dictionary_2_CopyToCheck_m1490019073_gshared
Wml:_XmlSerializationWriterInterpreter_WriteListElement_m2096653435
Vcr:_KeyCollection_System_Collections_ICollection_get_SyncRoot_m4267671038_gshared
_bf:__ZNK19TextRenderingModule8TMGenGetERK11UTF16StringPN13TextRendering4FontE10TextAnchor13TextAlignmentfffbb11ColorRGBA32fii
vy:__ZN13AnimationClip12Vector3Curve8TransferI14SafeBinaryReadEEvRT_
oxr:_AsyncRequestString_Start_m2744337401
iOt:__ZN6il2cpp2vm6Thread6DetachEP12Il2CppThread
L0j:_PhotonPlayer_get_allProperties_m2813508266
Wgf:_Render_Single_Pass
HCk:_String_Replace_m534438427
BIi:_Convert_ToInt16_m416789348
r5l:_GameCenterManager_OnLeaderboardScoreListLoadFailed_m1706121092
Gth:_Enumerator_System_Collections_IEnumerator_Reset_m1061591080_AdjustorThunk
QDq:_StatusViewController_add_StatusHandler_m958902436
V3m:_GUIStyle_Init_m3872198731
Oub:__ZN10FileSystem21MountMemoryFileSystemEv
RJ:__ZN7mecanim8skeleton30SkeletonBuildReverseIndexArrayEPiPKiPKNS0_8SkeletonES6_
y7k:_ObscuredShort_InternalDecrypt_m2196204716_AdjustorThunk
fZc:__Z19GetGUIBlendMaterialv
nfr:_ShimEnumerator_get_Current_m3364144670_gshared
kiu:__ZNKSt3__28time_getIcNS_19istreambuf_iteratorIcNS_11char_traitsIcEEEEE11do_get_dateES4_S4_RNS_8ios_baseERjP2tm
EOm:_U3CTryToUploadAccountInfoToDbU3Ec__Iterator0_Reset_m1054550656
E_t:__ZN6il2cpp2os10ThreadImpl5SleepEjb
vKp:_Array_Sort_TisIl2CppObject_m3717288230_gshared
vDe:__ZN5physx14SapPairManager12shrinkMemoryEv
L_p:_XmlParserContext_PopScope_m4103748813
TO:__ZN19StreamedBinaryWriteILb0EE21TransferSTLStyleArrayI22OffsetPtrArrayTransferIN7mecanim5human6HandleEEEEvRT_17TransferMetaFlags
Ooi:_NGUITools_StripSymbols_m1006851411
MZb:__ZN15FileSystemEntry4MoveERS_23FileSystemCopyMoveFlags
EK:__ZN18AnimatorController23VirtualRedirectTransferER24GenerateTypeTreeTransfer
ENo:_Region_ToString_m444682774
jvn:_ListDictionary_FindEntry_m432748847
hyu:_glBindSampler__wrapper
QVs:_UnityAction_1_Invoke_m3523417209_gshared
o0r:_BetterList_1_Contains_m1046367671_gshared
Eh:_emscripten_set_mouseup_callback
sec:__Z14resize_trimmedINSt3__26vectorIN9ShaderLab14SerializedPassENS0_9allocatorIS3_EEEEEvRT_j
pTn:_ILGenerator_Emit_m145986960
Khs:_Collision_get_gameObject_m1370363400
NQj:_UIPlaySound_OnHover_m1674197978
wzp:_GooglePlayManager_resetLeaderBoard_m1535940699
rlm:_PrivateKeyInfo_Normalize_m3959595934
moi:_NGUITools_SetChildLayer_m3799024920
Ift:_GameObjectSpawner_Info_m333104850
Fpe:__ZN5physx7NpScene22removeBroadPhaseRegionEj
QOd:__ZL34GeomOverlapCallback_CapsuleCapsuleRKN5physx10PxGeometryERKNS_11PxTransformES2_S5_PNS_2Gu12TriggerCacheE
BKl:_UIWidget_GetSides_m2442461784
vSj:_UIProgressBar_set_value_m2947998192
w8:__ZNK18ScreenManagerWebGL8GetWidthEv
Noe:__ZNK5physx7NpScene23getFilterShaderDataSizeEv
D_r:_BetterList_1_get_Item_m1754001943_gshared
eyj:_GridLayoutGroup_set_startAxis_m1635162426
sV:__ZN10SampleClipD2Ev
X3i:_Array_InternalArray__ICollection_Contains_TisGoogleAnalyticsHitType_t775861642_m129691407_gshared
M8o:_IOSInAppPurchaseManager_FireRestoreCompleteEvent_m2260826529
grm:_CultureInfo_construct_internal_locale_from_name_m971766383
Q_k:_WallHackDetector__ctor_m3383210557
AXl:_WindowDragTilt_Update_m38197995
nAc:__ZN19SpriteMeshGenerator7contourERNSt3__26vectorINS_6vertexENS0_9allocatorIS2_EEEERiRf
Xej:_Array_InternalArray__ICollection_Add_TisUIVertex_t1204258818_m3869382594_gshared
jS:__Z56AnimationOffsetPlayable_CUSTOM_INTERNAL_CALL_GetPositionR9HPlayableR8Vector3f
Akf:_cff_cmap_unicode_init
QSi:_Enum_ToObject_m2460371738
Fhm:_PrimalityTests_Test_m1088386156
C$c:__Z36Event_CUSTOM_Internal_SetNativeEvent13Il2Cpp_IntPtr
tnk:_WebAsyncResult_SetCompleted_m1412952062
als:_Event_Init_m3901382626
leu:_readlink
$ml:_CallbackInfo_WriteEnum_m4086415881
RJp:_Array_Resize_TisVector3_t2243707580_m893658391_gshared
HRq:_InternalEnumerator_1_System_Collections_IEnumerator_get_Current_m4259662004_AdjustorThunk
lQp:_Array_InternalArray__get_Item_TisKeyframe_t1449471340_m1003508933_gshared
zbd:__ZN14ParticleSystem38UpdateModulesPostSimulationIncrementalER24ParticleSystemUpdateDataR23ParticleSystemParticlesjRKf
P8t:__ZN6il2cpp8metadata14Il2CppTypeHash4HashEPK10Il2CppType
fsn:_SslClientStream_remove_ClientCertSelection_m2497978917
ffk:_TweenRotation_OnUpdate_m1114533666
q8o:_ISN_Error__ctor_m4248599056
nIb:_consume_markers
i$j:_PhotonNetwork_set_lobby_m516185756
eDn:_FtpDataStream_SetLength_m1296403598
oTb:__ZNK6Sprite9GetBoundsE8Vector2fbb
t3a:__ZNK19RenderEventsContext21CleanupCommandBuffersEv
Rho:__Z87RuntimeInvoker_Boolean_t3825574718_Ray_t2469606224_Single_t2076509932_Int32_t2071877448PK10MethodInfoPvPS2_
zhj:_Array_InternalArray__Insert_TisILTokenInfo_t149559338_m2477135873_gshared
xL:__ZN7mecanim12statemachine13StateConstant8TransferI14SafeBinaryReadEEvRT_
nMa:__ZN11ContextGLES6CreateEi
iGd:__ZN5physx6shdfnd5ArrayINS_10PxTriangleENS0_19ReflectionAllocatorIS2_EEE15growAndPushBackERKS2_
Mth:_LinkedList_1__ctor_m1337573311_gshared
FHi:_Double_ToString_m1085043609
Vcc:__Z19TransferField_ArrayI18StreamedBinaryReadILb0EE27Converter_SimpleNativeClassI17AnimationCurveTplIfEEEvRK23StaticTransferFieldInfoR31RuntimeSerializationCommandInfoRT0_
Vln:_CipherSuite_createEncryptionCipher_m1926075645
JLc:__Z48Camera_CUSTOM_INTERNAL_CALL_ViewportToWorldPointP12Il2CppObjectRK8Vector3fRS1_
Wob:__ZN14StackAllocator16FrameMaintenanceEb
ABd:__ZL11SweepBoxBoxPKN5physx3Cct9SweepTestEPKNS0_11SweptVolumeEPKNS0_11TouchedGeomERKNS_14PxExtendedVec3ERKNS_6PxVec3ERNS0_12SweptContactE
HUp:_XmlConvert_ToDouble_m720485344
Lsb:__Z18ReadStringFromFilePN4core17string_with_labelILi1EEERKNS_12basic_stringIcNS_20StringStorageDefaultIcEEEE
yea:__ZNK10GameObject20QueryComponentByTypeEPKN5Unity4TypeE
cMl:_UM_AdManager_Init_m3153971080
fyh:_Enumerator_MoveNext_m1367380970_AdjustorThunk
lUn:_OpCode_GetHashCode_m2974727122
PLm:_AndroidNotificationManager_CancelAllLocalNotifications_m914584962
Wln:_CipherSuite_createDecryptionCipher_m1118350455
h5:__Z49Register_UnityEngine_AudioSource_set_spatialBlendv
maj:_Array_compare_TisSingle_t2076509932_m2704834068_gshared
yU:__Z78AnimatorControllerPlayable_CUSTOM_INTERNAL_CALL_IsParameterControlledByCurveIDR9HPlayablei
zRi:_Double_System_IConvertible_ToInt16_m4200640326
STl:_OnlineStatus_get_allparams_m3724784503
DOc:__Z53Register_UnityEngine_GameObject_get_activeInHierarchyv
hei:_LocalNotificationTemplate__ctor_m2961307240
Cgl:_XmlChoiceIdentifierAttribute_get_MemberName_m472594079
Aca:__ZL30InitializeCoreScriptingClassesv
w7h:_Collection_1_CheckWritable_m3938993573_gshared
Ci:_glBlitFramebuffer
Yvn:_NameObjectCollectionBase_GetObjectData_m699981132
rxe:__ZN5physx2Sq10AABBPrunerC2Eb
tHt:__ZN6il2cpp2vm10Reflection15GetMethodObjectEPK10MethodInfoP11Il2CppClass
rei:_Login_FbLogin_m1240047067
jAq:_PaymentFormController_GetFormView_m3897974866
v4b:__Z35Transfer_Blittable_SingleValueFieldI14SafeBinaryReadhEvRT_R17GeneralMonoObjectRK23StaticTransferFieldInfo
x5m:_GUIGridSizer_get_rows_m593625823
Vhn:_Kernel_AddSameSign_m4087322475
y3n:__Z129RuntimeInvoker_Int32_t2071877448_Il2CppObject_Int32_t2071877448_Int32_t2071877448_Il2CppObject_Int32_t2071877448_SByte_t454417549PK10MethodInfoPvPS2_
JHq:_RemotingServices_GetRealProxy_m620317996
r8a:__ZN13dynamic_arrayI11CulledLightLj4EE6insertEPS0_PKS0_S4_
AZk:_ChatInput0_Start_m1763999611
C0j:_PhotonPingManager__cctor_m3800261313
Stt:__ZNK15dense_hashtableI10KeyWrapperIPK19Il2CppGenericMethodES4_N6il2cpp8metadata23Il2CppGenericMethodHashEN14dense_hash_setIS4_S7_NS4_14EqualsComparerINS6_26Il2CppGenericMethodCompareEEENSt3__29allocatorIS4_EEE8IdentityESB_SE_E3endEv
gkl:_XmlSerializationReader_ReadSerializable_m3488908855
Zwt:__ZN6il2cpp2vm13MetadataCache23GetInterfaceOffsetIndexEi
Mq:FUNCTION_TABLE_vif
Oq:FUNCTION_TABLE_vid
Qq:FUNCTION_TABLE_vii
MAa:__Z40scripting_liveness_calculation_from_root18ScriptingObjectPtrPv
_0a:_UNITY_png_create_write_struct
yfd:__ZN13InitialModuleD2Ev
Hdt:_ChatChannel_ClearMessages_m2137071893
t2n:__Z149RuntimeInvoker_Boolean_t3825574718_Int32_t2071877448_Il2CppObject_Int32_t2071877448_Int32_t2071877448_Il2CppObject_Int32_t2071877448_SByte_t454417549PK10MethodInfoPvPS2_
xlt:__ZL25UnresolvedVirtualCall_185P12Il2CppObjectdPK10MethodInfo
ata:__ZN7Texture23VirtualRedirectTransferER24GenerateTypeTreeTransfer
A9e:_UNITY_FT_Set_Transform
w6r:_ArrayReadOnlyList_1_Contains_m1266627404_gshared
vzq:_GoodsAdapter_GetNext_m1850018433
OBo:__Z54RuntimeInvoker_Int32_t2071877448_DepthEntry_t974746545PK10MethodInfoPvPS2_
pgt:_SoundController_Play_m3647705442
Yyj:_Image_get_overrideSprite_m706080347
gAp:_GPLeaderBoard_UpdateScore_m3353269679
MQm:_AS_Preferences_set_requireEmailActivation_m2148825937
LNc:__Z36Register_UnityEngine_RectOffset_Initv
uhn:_BigInteger_ModInverse_m1881894572
KTj:_UIScrollView_Awake_m4023635486
vzt:__ZN6il2cpp2vm7Runtime17GetDelegateInvokeEP11Il2CppClass
A4m:_GUI_Internal_DoModalWindow_m941731809
$Vj:_NotificationReceived_Invoke_m2719959140
v5k:_ObscuredPrefs_DecryptBoolValue_m2281697935
Lgs:_CharacterInfo_t3919092135_marshal_pinvoke_back
ifs:_Camera_INTERNAL_CALL_ScreenPointToRay_m2752248646
DJb:__ZN28EnlightenRendererInformation8TransferI14SafeBinaryReadEEvRT_
vDf:__ZL69DefaultDependencyAttribute_t3858269114_CustomAttributesCacheGeneratorP21CustomAttributesCache
h2d:__ZN5physx12NpBatchQuery13getUserMemoryEv
uy:__Z14resize_trimmedINSt3__26vectorIN13AnimationClip12Vector3CurveE13stl_allocatorIS3_L18MemLabelIdentifier25ELi16EEEEEvRT_j
xXa:__ZNK15Lz4Decompressor16DecompressMemoryEPKvPjPvS2_
qff:_UNITY_tt_face_build_cmaps
Qjn:_MD4Managed_HH_m2172169314
iBq:_PaymentMethodsAdapter_OnChoosePaymentMethod_m4171772016
Y3q:_Enumerator_System_Collections_IDictionaryEnumerator_get_Entry_m2694215320_gshared
qMm:_AndroidSocialNativeExample_PostScreenshot_m487696858
NS:__Z44Register_UnityEngine_Animation_get_isPlayingv
uud:__ZN11Rigidbody2D8TransferI24GenerateTypeTreeTransferEEvRT_
gei:_LocalNotificationTemplate__ctor_m2396898745
U3k:_ObscuredLong_SetNewCryptoKey_m2101058658
IOi:_Decimal_System_IConvertible_ToType_m3828527724_AdjustorThunk
Def:_UNITY_tt_face_load_os2
cPc:__Z36MeshFilter_Get_Custom_PropSharedMeshP12Il2CppObject
CIe:__ZN5physx2GuL34fullContactsGenerationSphereConvexERKNS0_8CapsuleVERKNS0_11ConvexHullVERKNS_6shdfnd3aos12PsTransformVESB_PNS0_17PersistentContactERjRNS0_13ContactBufferEbRNS0_25PersistentContactManifoldERNS8_5Vec3VERKNS8_6FloatVEb
jjn:_HMAC_get_Key_m2528863640
j8h:_Collection_1_IsSynchronized_m1366278230_gshared
ERd:__ZN5physx6shdfnd8PoolBaseINS_2Sc19ConstraintGroupNodeENS0_19ReflectionAllocatorIS3_EEE17releaseEmptySlabsEv
ICn:_FtpAsyncResult__ctor_m2490841827
l$k:_WallHackDetector_FixedUpdate_m796979302
I3o:_InputToEvent_Release_m3943614859
z3i:_Array_get_swapper_TisInt32_t2071877448_m2837069166_gshared
vHt:__ZN6il2cpp2gc19AppendOnlyGCHashMapINSt3__24pairIPK10MethodInfoP11Il2CppClassEEP22Il2CppReflectionMethod17ReflectionMapHashIS9_ENS2_8equal_toIS9_EEE3AddERKS9_SB_
zmr:_RectTransform_INTERNAL_get_rect_m1177342209
zoj:_PointerEventData_IsScrolling_m1971908975
Rui:_Boolean_System_IConvertible_ToUInt64_m3594533761
vxp:_GP_Event_LoadIcon_m1968066386
jGm:_MissingFieldException_get_Message_m481101937
Zgq:_ZipValidator__ctor_m3473993362
UOi:_Decimal_System_IConvertible_ToInt16_m3159038792
K$p:_XmlReader_XmlError_m2086844343
DG:__ZN7mecanim9animation12EvaluateClipEPKNS0_4ClipEPKNS0_9ClipInputEPNS0_10ClipMemoryEPNS0_10ClipOutputE
t1l:_GK_TBM_LoadMatchesResult__ctor_m1679363969
MJd:__ZN5physx3Cct9SweepTest15onObstacleAddedEjPKNS_17PxObstacleContextERKNS_6PxVec3ES7_f
vbf:__ZN20TextRenderingPrivate7GUIText18GetFontAndMaterialEv
aJc:__Z40Application_CUSTOM_SetLogCallbackDefinedh
FZo:_Protocol_DeserializeDictionaryArray_m302991587
VKt:__ZN15dense_hashtableINSt3__24pairIK10KeyWrapperIPK22Il2CppGenericParameterEPK24MonoGenericParameterInfoEES6_N6il2cpp5utils11PointerHashIS4_EEN14dense_hash_mapIS6_SA_SF_NS6_14EqualsComparerINS0_8equal_toIS5_EEEENS0_9allocatorISB_EEE9SelectKeyESK_SM_E15set_deleted_keyERKSB_
PXn:_MonoMethodInfo_GetReturnType_m2864247130
geb:__ZN13RenderManager29SetCurrentCameraAndStackStateEP6CameraP25CameraStackRenderingState
xsq:_AndroidGoogleAdsExample_B1Show_m3872479091
WNt:__ZN15dense_hashtableINSt3__24pairIK10KeyWrapperINS1_IP11Il2CppClassjEEES4_EES6_N6il2cpp8metadata14ArrayClassHashEN14dense_hash_mapIS6_S4_SB_NS6_14EqualsComparerINSA_17ArrayClassCompareEEENS0_9allocatorIS8_EEE9SelectKeyESF_SH_E12resize_deltaEjj
Qj:_JS_WebRequest_Release
ozm:_DirectoryNotFoundException__ctor_m2242202556
Yhr:_Physics_Raycast_m2308457076
z_p:_XmlParserContext__ctor_m1851544767
lEk:_String_CreateString_m2448464375
IVn:_FieldInfo_get_IsNotSerialized_m2322769148
H9c:__ZN14EmissionModule5ResetEv
ope:__ZNK5physx7NpScene18getStaticStructureEv
fYr:_U3CGetEnumeratorU3Ec__Iterator0_System_Collections_Generic_IEnumeratorU3CTU3E_get_Current_m2493215974_gshared
o5n:__Z89RuntimeInvoker_Void_t1841601450_Il2CppObject_Int32_t2071877448_IntPtr_t_Int32_t2071877448PK10MethodInfoPvPS2_
aze:__ZN5physx13PxsCCDContext12postCCDSweepEPNS_10PxBaseTaskE
vUt:__ZN6il2cpp8metadata15GenericMetadata7InflateEPK19Il2CppGenericMethodPK20Il2CppGenericContext
fht:_RuntimeServices_IsPromotableNumeric_m1545541583
g4a:__ZN19ShaderPropertySheet16SetArrayPropertyEN9ShaderLab16FastPropertyNameENS_12PropertyTypeEPKvj
fEp:_GooglePlayTBM_TakeTrun_m2238530396
IXn:_MonoGenericCMethod_get_ReflectedType_m2689239043
hUd:__ZN5physx6shdfnd5ArrayINS_6PxVec4ENS0_19ReflectionAllocatorIS2_EEE15growAndPushBackERKS2_
k8h:_Collection_1_IsFixedSize_m499196375_gshared
ptj:_ColorTween_set_startColor_m3546206870_AdjustorThunk
YDu:b225
v$i:_SHA1Internal_InitialiseBuff_m1428597166
CXe:__ZN5physx6shdfnd10Foundation19AlignCheckAllocator28deregisterAllocationListenerERNS_20PxAllocationListenerE
PDt:__ZN6il2cpp2os4File11GetStdErrorEv
Qu:__ZNSt3__26vectorI4PPtrI13AnimationClipE13stl_allocatorIS3_L18MemLabelIdentifier25ELi16EEE6assignINS_11__wrap_iterIPS3_EEEENS_9enable_ifIXaasr21__is_forward_iteratorIT_EE5valuesr16is_constructibleIS3_NS_15iterator_traitsISD_E9referenceEEE5valueEvE4typeESD_SD_
u4t:_GC_freehblk
qIr:_RectangularVertexClipper_GetCanvasRect_m2728708140
KDl:_Dictionary_2_Remove_m4114917324_gshared
aBp:_GooglePlayQuests_GetQuestsByState_m2379191376
Ikm:_KeyPairPersistence_Save_m471726936
CBs:_ReadOnlyCollection_1_System_Collections_Generic_ICollectionU3CTU3E_Clear_m3567018366_gshared
w_c:__ZN8GUIState8EndOnGUIEv
GHk:_UnicodeEncoding_GetString_m542738941
YRt:__ZN6il2cpp6icalls8mscorlib6System2IO6MonoIO16get_ConsoleErrorEv
llf:_UNITY_TT_Get_VMetrics
Pym:_Path_InsecureGetFullPath_m2635272425
NLi:_DateTime_System_IConvertible_ToUInt32_m1363211018
oBe:__ZN5physx33solveContactCoulombBlockWriteBackEPKNS_23PxcSolverConstraintDescEjRNS_16PxcSolverContextEPNS_25PxcThresholdStreamElementEjPi
rUi:_RuntimeMethodHandle__ctor_m1162528746
mbq:_XsollaPaystationController_remove_OkHandler_m4185757531
bJe:__ZN5physx9PxTaskMgr17submitUnnamedTaskERNS_6PxTaskENS_10PxTaskType4EnumE
aTs:_GenericComparer_1_Compare_m3311684598_gshared
o7i:_SetPropertyUtility_SetStruct_TisSingle_t2076509932_m3849235084_gshared
Flp:_Data_Drill_Ground_get_time9_m147954057
i7s:_Transform_LookAt_m3314153180
_Oa:__ZN7Texture21GetMasterTextureLimitEv
REr:_IOSFacebook_GetIOSWrapper_m453264567
Iib:__Z12CanAddScriptR10GameObject17ScriptingClassPtrPS1_S2_
qMt:__ZN6il2cpp2vm10Reflection12HasAttributeEP12Il2CppObjectP11Il2CppClass
w2a:_UNITY_png_write_sRGB
_rp:_TimeKeeper__ctor_m256658466
y1i:_X509Certificate_GetExpirationDateString_m2351894475
qcm:_GoogleAnalyticsClient_SetPromotionName_m3847299530
Iea:__ZN9ShaderLabL25StaticInitializeShaderLabEPv
w_e:__ZN12MeshCollider23VirtualRedirectTransferER24GenerateTypeTreeTransfer
Vwe:__ZNK5physx2Sq12BucketPruner5sweepERKNS0_9ShapeDataERKNS_6PxVec3ERfRNS0_14PrunerCallbackE
U:Math_max
sEn:_FtpWebRequest_EndGetResponse_m454970948
qJl:_UITooltip_OnDestroy_m2271472873
yCt:_il2cpp_class_get_methods
J6l:_GameManager_PopupMessage_m2948604137
s6t:_GC_generic_malloc_inner_ignore_off_page
Sym:_Path_CanonicalizePath_m383914732
TDu:b220
S5q:_Enumerator_System_Collections_IEnumerator_get_Current_m1631145297_gshared
$$o:_TPeer_EnqueueOperation_m1790820536
Jyi:_ArrayList_Synchronized_m2395071980
k3o:_ImmersiveMode_EnableImmersiveMode_m57357706
H0t:__ZN6il2cpp2os6Thread16GetCurrentThreadEv
eOj:_UILabel_OnAnchor_m394446581
Npi:_ObjectPoolController__DetachChildrenAndDestroy_m151045987
xxc:__ZN10GameObject13ComponentPair15SetComponentPtrEPN5Unity9ComponentE
m4e:__ZN5physx6shdfnd8internal8HashBaseINS0_4PairIKPKNS0_14NamedAllocatorEPKcEES6_NS0_4HashIS6_EENS1_11HashMapBaseIS6_S9_SC_NS0_20NonTrackingAllocatorEE6GetKeyESE_Lb1EE15reserveInternalEj
oFm:_UnexceptionalStreamWriter_Write_m3206913035
Woc:__Z13RegisterClassI10MeshFilterEvv
rR:__ZNK26AnimatorControllerPlayable24GetAnimatorClipInfoCountEib
Fwb:__ZN10TagManager8TransferI19StreamedBinaryWriteILb0EEEEvRT_
R0b:__ZN11PreloadData23VirtualRedirectTransferER18StreamedBinaryReadILb0EE
yrp:_EventDelegate_GetHashCode_m3027540415
Q3i:_Utilities_TryGetValue_TisInt64_t909078037_m4058319583_gshared
$Rm:_AudioCategory__ApplyVolumeChange_m497276244
iMt:__ZN14dense_hash_mapI10KeyWrapperINSt3__24pairIPK14Il2CppAssemblyP11Il2CppClassEEEj17ReflectionMapHashIS8_ENS9_14EqualsComparerINS1_8equal_toIS8_EEEENS1_9allocatorINS2_IKS9_jEEEEEC2EjRKSB_RKSF_
aXi:_DESTransform_ProcessBlock_m2826669227
Oco:__Z115RuntimeInvoker_Void_t1841601450_Il2CppObject_Int32_t2071877448_Int32_t2071877448_SByte_t454417549_Int32_t2071877448PK10MethodInfoPvPS2_
yum:_Int16_CompareTo_m3493496879
_To:_JSONClass_get_Item_m1151487306
dhj:_Array_InternalArray__Insert_TisKeyValuePair_2_t3132015601_m1195671385_gshared
szt:__ZN6il2cpp2vm7Runtime10GetDataDirEv
IVr:_DTDReader_ExpandPERef_m3781106628
Ugp:_ISN_SoomlaGrow_HandleOnFacebookPostStart_m2675473453
tki:_NetworkingPeer_LoadLevelIfSynced_m2896104622
M9l:_GoogleAdsExample_Start_m896131910
HMb:__ZN6Sprite17MainThreadCleanupEv
B5l:_GK_Player__ctor_m731568513
grl:_Enumerator_System_Collections_IEnumerator_get_Current_m2191931798_AdjustorThunk
SPh:_List_1_Contains_m2638831974_gshared
H_:__ZN10AudioMixer14UpdateMuteSoloEv
afi:_MarketExample_OnGUI_m2350697745
kJj:_UIFont_MarkAsChanged_m251056173
Tis:_Component_GetComponents_m637589504
M4d:__ZN5physx6shdfnd5ArrayINS_3Scb13MaterialEventENS0_19ReflectionAllocatorIS3_EEE15growAndPushBackERKS3_
Byr:_CanvasFacebook_OnGetAppLinkComplete_m2665033941
gYm:_Ball_get_w_m1479968704
bRl:_UM_NotificationController_OnRegFailed_m2708772775
Ota:__ZN9ShaderLab10SubProgram7CompileEv
KGa:__ZNSt3__218__insertion_sort_3IRNS_4lessIN22BuiltinResourceManager8ResourceEEEPS3_EEvT0_S7_T_
_Vh:_Enumerator_MoveNext_m1222774867_AdjustorThunk
qem:_GoogleCloudUseExample_LoadState_m4277238825
tTd:__ZN5physx2Sc5Scene11onBodySleepEPNS0_7BodySimE
fYa:__ZN10MemoryFileC2E18MemLabelIdentifierP14MemoryFileData14FilePermission
FIq:_TrackingServices_NotifyUnmarshaledObject_m1794048369
Tot:__ZN6il2cpp2vm5Class20FromGenericParameterEPK22Il2CppGenericParameter
iyd:__ZL28GeomMTDCallback_PlaneCapsuleRN5physx6PxVec3ERfRKNS_10PxGeometryERKNS_11PxTransformES5_S8_
M_m:_AnimatorControllerPlayable_INTERNAL_CALL_GetAnimatorClipInfoInternal_m3180917212
Jma:__ZN15GlobalCallbacksC2Ev
Wqb:__ZN11AssetBundle8TransferI14SafeBinaryReadEEvRT_
MYt:__ZN6il2cpp5utils11StringUtils11Utf16ToUtf8EPKDs
Aqk:_WebRequest_get_Credentials_m2648907180
djj:_Array_InternalArray__set_Item_TisLabelFixup_t4090909514_m565370771_gshared
aKn:_NumberFormatter_ZeroTrimEnd_m1918702516
Tpu:dynCall_vff
Erd:__ZN7b2World10CreateBodyEPK9b2BodyDef
Fwt:__ZL13GetSharedInstPK17Il2CppGenericInst
pdp:_U3CPostTwitterScreenshotU3Ec__Iterator2_Reset_m3416884746
sat:_WWW_DestroyWWW_m2548500174
yKs:_Func_2_BeginInvoke_m2578458087_gshared
$af:_UNITY_FT_New_Memory_Face
k8p:_XsollaPaymentImpl_OnGoodsGroupsRecieved_m1513720184
elq:_AN_GMSRTMProxy_ShowWaitingRoomIntent_m2144470116
UT:__Z81AnimatorControllerPlayable_CUSTOM_INTERNAL_CALL_GetAnimatorTransitionInfoInternalR9HPlayablei
S$a:__ZZ23InitPlayerLoopCallbacksvEN43PostLateUpdatePlayerSendFrameCompletestruct7ForwardEv
KWm:_AudioObject_Awake_m2943226305
Zgi:__Z15CastclassSealedP12Il2CppObjectP11Il2CppClass
G4j:_PlayServiceCustomLBExample_FixedUpdate_m481653586
mxm:_IntPtr_System_Runtime_Serialization_ISerializable_GetObjectData_m21554269_AdjustorThunk
h5d:__ZN5physx9NpPhysics16createConvexMeshERNS_13PxInputStreamE
sii:_NativeIOSActionsExample_OnGUI_m347746394
a6k:_ObscuredPrefs_DeleteAll_m1678365836
Pgb:__ZN16ReflectionProbes40UpdateRealtimeReflectionProbesTimeslicedEv
n8j:_SmoothCameraOrbit_LateUpdate_m1656838375
jyn:_GZipStream_Write_m375700627
tRn:_TypeBuilder_GetField_m2112455315
spk:_WebConnectionStream_EndWrite_m3252995173
GSd:__ZN5physx2Sq17SceneQueryManager8addShapeERKNS_7NpShapeERKNS_12PxRigidActorEbPNS_9PxBounds3E
Uls:_BaseInvokableCall__ctor_m2877580597
NSp:_XmlNode_RemoveChild_m4217957230
naj:__ZN21InterfaceFuncInvoker2IiffE6InvokeEjP11Il2CppClassP12Il2CppObjectff
duc:__ZN16ReflectionProbes15InitializeClassEv
Ecf:_UNITY_FT_Destroy_Class_psnames_module_class
iwk:_MRUList_Evict_m2430323183
fPm:_AS_Credentials_get_emailAccount_m3208127183
nNr:_Slider_get_reverseValue_m3146075392
MXp:_XmlTextReader__ctor_m2282919614
vdf:_ft_bitmap_glyph_bbox
DJ:__ZN8Animator13BatchedFKPassERK13dynamic_arrayIP14PlayableOutputLj4EE
YZm:_AnimatorControllerPlayable_INTERNAL_CALL_SetTriggerID_m508896534
hml:_XmlSerializationWriter_CheckReferenceQueue_m1323705193
XAe:__ZNK5physx2Gu29EPASupportMapPairRelativeImplINS0_8CapsuleVES2_E9doSupportERKNS_6shdfnd3aos5Vec3VERS6_S9_S9_
hLp:_Array_Sort_TisVector4_t2243707581_m474199742_gshared
GKh:_List_1_CheckIndex_m2247532995_gshared
NWe:__ZN5physx10SubSortSAH5sort4EPjjRNS_6shdfnd5ArrayINS_11RTreeNodeNQENS2_19ReflectionAllocatorIS4_EEEERjjPS4_
ctq:_WP8AdMobController__ctor_m3260592565
UEm:_TextWriter_Write_m576684782
k9s:_Vector3_Max_m2105825185
Ql:_glIsVertexArray
Qal:_ObscuredVector2_op_Implicit_m2117362779
NPc:__Z66Register_UnityEngine_Graphics_Internal_GetMaxDrawMeshInstanceCountv
cV:__Z100Register_UnityEngine_Experimental_Director_AnimatorControllerPlayable_INTERNAL_CALL_SetIntegerStringv
oYb:__ZNSt3__26vectorIN4core12basic_stringIcNS1_20StringStorageDefaultIcEEEE13stl_allocatorIS5_L18MemLabelIdentifier12ELi16EEEC2INS_11__wrap_iterIPS5_EEEET_SE_RKS8_PNS_9enable_ifIXaasr21__is_forward_iteratorISE_EE5valuesr16is_constructibleIS5_NS_15iterator_traitsISE_E9referenceEEE5valueEvE4typeE
ZRo:_ScreenPlacementExtension_ScreenPlacement_m2539623861
eYa:__ZN25SingleBlockMemoryFileDataC2E18MemLabelIdentifierPvjb
lb:invoke_fff
jtq:_WP8AdMobController_CreateAdBanner_m2954115299
_Zk:_ActDetectorBase_OnLevelWasLoaded_m1539586569
jKh:_List_1_System_Collections_IList_set_Item_m2754968760_gshared
v3e:__ZN5physx2Sc7PhysicsC2ERKNS_17PxTolerancesScaleERKNS_14PxvOffsetTableE
dof:__ZN2UI6Canvas17MainThreadCleanupEv
cUb:__ZNSt3__26vectorI14SubstanceInputNS_9allocatorIS1_EEE6assignINS_11__wrap_iterIPS1_EEEENS_9enable_ifIXaasr21__is_forward_iteratorIT_EE5valuesr16is_constructibleIS1_NS_15iterator_traitsISA_E9referenceEEE5valueEvE4typeESA_SA_
Osr:_TextEditor_MoveLeft_m2907864443
ZQh:_List_1_Find_m3862454845_gshared
ski:_NetworkingPeer_GetActorPropertiesForActorNr_m2345334561
SEi:_ListKeys_Insert_m2306126330
Dyk:_MatchCollection_get_Item_m2609281578
Ztu:b10
UUa:__ZN7ApiGLES13CreateProgramEv
zyb:__ZN11HaloManager7AddHaloEv
oCn:_FileWebRequest_GetResponse_m1845449278
gam:_GoogleAnalyticsSettings_get_Instance_m3976170738
AIk:_UTF8Encoding__ctor_m100325490
b4o:_InvDatabase_get_list_m1311052101
lPa:__ZN4crnd12crn_unpackerD2Ev
PNr:_StencilMaterial_ClearAll_m1372779118
am:_emscripten_glTexImage2D
jHq:_ObjRefSurrogate_SetObjectData_m1873902916
Ykf:_tt_driver_class_pic_init
Bnn:_SendRecordAsyncResult_get_AsyncWaitHandle_m3532375825
sca:__ZN18ScriptingArguments9AddStringEPKc
S5t:_setup_header
WAe:__ZNK5physx2Gu29EPASupportMapPairRelativeImplINS0_8CapsuleVES2_E18doWarmStartSupportEiiRNS_6shdfnd3aos5Vec3VES7_S7_
mDa:__ZL23stbir__resize_arbitraryPvPKviiiS_iiiffffPfiij14stbir_datatype12stbir_filterS4_10stbir_edgeS5_16stbir_colorspace
A0s:_Nullable_1_get_Value_m3578777665_AdjustorThunk
yZk:_ChatInput_AddLine_m1714926874
kad:__ZN23ParticleSystemParticles13array_reserveEj
lMh:_List_1_System_Collections_IList_Insert_m848656350_gshared
mAc:__ZN19SpriteMeshGenerator4maskC2EP11ColorRGBA32iihj
r6b:__Z18Transfer_BlittableI24GenerateTypeTreeTransferLb1E8Vector4fEvRK29SerializationCommandArgumentsR31RuntimeSerializationCommandInfo
Zum:_Int16_ToString_m3971652088_AdjustorThunk
N5c:__ZNK24OptimizedPolynomialCurve26FindMinMaxDoubleIntegratedEv
lm:_pthread_detach
T_p:_XmlParserInputSource_Read_m219529923
BGq:_MethodDictionary_AllocInternalProperties_m3261295876
U8n:__Z197RuntimeInvoker_Boolean_t3825574718_Il2CppObject_Il2CppObject_Il2CppObject_Int32_t2071877448_DateTimeU26_t3448131235_SByte_t454417549_BooleanU26_t3168250738_SByte_t454417549_ExceptionU26_t1467204777PK10MethodInfoPvPS2_
aZp:_XmlNamedNodeMap__cctor_m3334495812
dwe:__ZN5physx11EdgeManager6resizeEj
PSc:__ZN15DirectorManager20ScheduleGraphDestroyERK14HPlayableGraph
YFa:__ZNSt3__213__stable_sortIRN10vector_mapI17ScriptingClassPtrPKN5Unity4TypeENS_4lessIS2_EENS_9allocatorINS_4pairIS2_S6_EEEEE13value_compareENS_11__wrap_iterIPSB_EEEEvT0_SJ_T_NS_15iterator_traitsISJ_E15difference_typeEPNSM_10value_typeEi
jCr:_FB_LogOut_m3952695663
ppq:_AnalyticsUseExample_Awake_m852819643
wQm:_AS_MySQLFieldMethods_SetFieldValue_m1270740375
pNj:_UILabel_get_gradientBottom_m3862691300
Qgc:__ZN9ShaderLab25SerializedTextureProperty8TransferI24GenerateTypeTreeTransferEEvRT_
asb:__ZN15dense_hashtableINSt3__24pairIKN4core12basic_stringIcNS2_20StringStorageDefaultIcEEEEP11AssetBundleEES6_20StringHash32FunctionIS6_EN14dense_hash_mapIS6_S9_SC_NS0_8equal_toIS6_EENS0_9allocatorISA_EEE9SelectKeyESF_SH_E12resize_deltaEjj
VCu:_emscripten_glIsShader__wrapper
lxr:_AsyncRequestString_SetQuery_m3794927295
iKt:__ZN6il2cpp2gc19AppendOnlyGCHashMapINSt3__24pairIPK14Il2CppAssemblyP11Il2CppClassEEP24Il2CppReflectionAssembly17ReflectionMapHashIS9_ENS2_8equal_toIS9_EEEC2Ev
Xie:__ZN5physx2Sc5Scene12removeStaticERNS0_10StaticCoreERNS_6shdfnd11InlineArrayIPKNS0_9ShapeCoreELj64ENS4_19ReflectionAllocatorIS8_EEEEb
sUr:_XmlTextReader_Close_m979766246
uVg:__ZL59UIWidgetContainer_t701016325_CustomAttributesCacheGeneratorP21CustomAttributesCache
LZe:__ZN19CharacterController13AwakeFromLoadE17AwakeFromLoadMode
D1c:__Z32GUIStyle_Get_Custom_PropFontSizeP12Il2CppObject
lMq:_DelegatePInvokeWrapper_CallbackHandler_t362827733
S2m:_GUI_DoTextField_m368568689
cyq:_CCPayment_add_PaymentSuccessRecieved_m438416716
UWj:_OpenClosePopup_EnableAllCanvas_m1379176567
Xsq:_AndroidGoogleAnalytics_SendEvent_m1351654881
Jm:_emscripten_glMatrixMode
KUc:__Z45Register_UnityEngine_Material_get_renderQueuev
kFb:_unity_z_inflate
ZA:__ZN8Animator23VirtualRedirectTransferER18StreamedBinaryReadILb0EE
DSe:__ZN5physx13GuMeshFactory17createHeightFieldERNS_13PxInputStreamE
eme:__ZN5physx2Sc10NPhaseCore25createShapeInstancePairLLERNS0_8ShapeSimES3_NS_7PxFlagsINS_10PxPairFlag4EnumEtEE
Zik:_UIButtonScale__ctor_m788457785
VGq:_MethodReturnDictionary__ctor_m756139344
jVa:__ZN18GfxFramebufferGLES5ClearE13GfxClearFlagsRK10ColorRGBAffib
__l:_GameBillingManagerExample_get_isInited_m2564965445
jne:__ZThn8_N5physx2Sc19ShapeInstancePairLL12onDeactivateEj
xHj:_UIDrawCall_UpdateMaterials_m437069610
Crl:_ValueCollection_System_Collections_Generic_ICollectionU3CTValueU3E_Add_m546529503_gshared
mcc:__ZL26Transfer_SimpleNativeClassI18StreamedBinaryReadILb0EE10RectOffsetLb0EEvRK29SerializationCommandArgumentsR31RuntimeSerializationCommandInfo
Bcf:_UNITY_ft_destroy_default_module_classes
D5k:_ObscuredPrefs_EncryptVector2Value_m401736218
HQr:_DTDElementDeclaration_set_IsAny_m184801279
oft:_U3CConnectU3Ec__Iterator0_MoveNext_m3108191136
dmm:_SymmetricTransform_FinalDecrypt_m3674669784
jJc:__Z52Register_UnityEngine_Application_set_runInBackgroundv
hHh:_List_1_CheckMatch_m1772343151_gshared
B7a:__ZL12DepthPassJobPN21GfxDeviceAsyncCommand10ArgScratchEPKNS_3ArgE
tfc:__ZNSt3__26vectorIN9ShaderLab20SerializedSubProgram16TextureParameterENS_9allocatorIS3_EEE6assignINS_11__wrap_iterIPS3_EEEENS_9enable_ifIXaasr21__is_forward_iteratorIT_EE5valuesr16is_constructibleIS3_NS_15iterator_traitsISC_E9referenceEEE5valueEvE4typeESC_SC_
r_i:_RIPEMD160Managed_H_m170966261
oxm:_IntPtr_Equals_m1214967011_AdjustorThunk
VEi:_ListKeys_GetEnumerator_m474177118
nYe:__ZN9Rigidbody16ApplyConstraintsEv
JPh:_List_1_Add_m3591975577_gshared
Xrf:__Z55Register_UnityEngine_CanvasGroup_get_ignoreParentGroupsv
xpc:__Z13RegisterClassI19LowerResBlitTextureEvv
S6c:__ZN11MinMaxCurve5ResetE23ParticleSystemCurveModef
ap:FUNCTION_TABLE_iiiiiiiiiiii
jad:__ZNK14ParticleSystem27CalculateMaxActiveParticlesEv
vum:_Int16_System_IConvertible_ToUInt32_m883204517_AdjustorThunk
Nee:__ZN5physx2Sc17ParticleSystemSim8setFlagsEj
bxn:_Stopwatch__cctor_m1036688681
ayb:__ZN16GraphicsSettingsD0Ev
gyr:_CanvasFacebook_LogOut_m292792237
Gfb:__ZN15LODGroupManager21CalculateLODDataArrayERK13LODParametersPK6Cameraf
n:cttz_i8
C1s:_Nullable_1_GetValueOrDefault_m3764440182_AdjustorThunk
Rif:_UNITY_FT_GlyphLoader_Add
vdu:_uselocale
FVe:__ZN5physx2Gu15EdgeListBuilder18CreateEdgesToFacesEjPKjPKt
VFd:__ZN5physx11PxMeshQuery5sweepERKNS_6PxVec3EfRKNS_10PxGeometryERKNS_11PxTransformEjPKNS_10PxTriangleERNS_10PxSweepHitENS_7PxFlagsINS_9PxHitFlag4EnumEtEEPKjfb
hcn:_Light_get_color_m2617173338
dgp:_ISN_Security_remove_OnGUIDLoaded_m437918868
NMq:_SerializationInfo_GetUInt32_m3393505633
PBt:__ZN14dense_hash_mapI10KeyWrapperIPK9EventInfoEP11Il2CppClassN6il2cpp6icalls8mscorlib6System19Il2CppEventInfoHashENS4_14EqualsComparerINSA_22Il2CppEventInfoCompareEEENSt3__29allocatorINSF_4pairIKS4_S6_EEEEEC2EjRKSB_RKSE_
a8o:_IOSInAppPurchaseManager_restorePurchases_m2029669048
Tqn:_HttpsClientStream_RaiseServerCertificateValidation_m3356770426
CQi:_DelegateSerializationHolder__ctor_m3915060553
r7s:_Transform_INTERNAL_CALL_InverseTransformPoint_m69330567
rYb:__ZN15SerializeTraitsINSt3__26vectorIN30RuntimeInitializeOnLoadManager9ClassInfoE13stl_allocatorIS3_L18MemLabelIdentifier12ELi16EEEEE8TransferI24GenerateTypeTreeTransferEEvRS7_RT_
F1j:_PhotonTransformView_UpdateScale_m4057082041
TLp:_Array_swap_TisUIVertex_t1204258818_TisUIVertex_t1204258818_m1163375424_gshared
Gn:_emscripten_glViewport
znc:__Z21GenerateTilingAreaJobP22GenerateTilingAreaInfoj
w2t:__ZN6il2cpp6icalls8mscorlib6System15MonoCustomAttrs17IsDefinedInternalEP12Il2CppObjectP20Il2CppReflectionType
wOb:__ZN4Mesh21UnswizzleVertexColorsEb
wNi:_DateTime_ToString_m2276663647_AdjustorThunk
Vkf:_cff_parse_font_bbox
aXj:_OpenURLOnClick_OnClick_m2637209064
g$e:__ZThn28_N14PhysicsManagerD0Ev
hHd:__Z14raycast_sphereRKN5physx10PxGeometryERKNS_11PxTransformERKNS_6PxVec3ES8_fNS_7PxFlagsINS_9PxHitFlag4EnumEtEEjPNS_12PxRaycastHitEbPFbRSD_PvESG_
XVm:_AudioFader_Set0_m802623431
zN:__GLOBAL__sub_I_runtime_animation2_lump_cpp
pWb:__ZN14PlayerSettings23VirtualRedirectTransferER18StreamedBinaryReadILb0EE
m2m:_GUI_get_color_m1234367343
wgp:_ISN_SoomlaGrow_remove_ActionDisconnected_m825413737
C3i:_Array_get_swapper_TisCustomAttributeTypedArgument_t1498197914_m2780757375_gshared
Mwp:_GooglePlayConnection_OnApplicationPause_m3751944854
xXm:_AudioToolkitDemo_OnAudioCompleteleyPlayed_m3128071644
Huu:_emscripten_glVertexAttrib4f__wrapper
ebu:__ZN6il2cpp2os5Event5ResetEv
ddb:__Z26CombineDepthNormalsTextureRK17RenderLoopContextR13dynamic_arrayI16RenderObjectDataLj4EE
deu:___fseeko
R_m:_AnimatorControllerPlayable_GetCurrentAnimatorClipInfoCount_m335090574
hUt:__ZN6il2cpp8metadata15GenericMetadata17InflateParametersEPK13ParameterInfohPK20Il2CppGenericContextb
iam:_GoogleAnalyticsClient_SetEventCategory_m3982217569
kcs:_PCMReaderCallback_Invoke_m3610389815
CYi:_HMACSHA512__ctor_m2390736870
ZD:__ZNK17AnimationPlayable27GetNextCompatibleDescendantEi
xB:__ZN8Animator20ProcessAnimationsJobEPNS_11AnimatorJobEj
gvr:_Texture2D_INTERNAL_CALL_SetPixel_m3139530413
o8p:_XsollaPaymentImpl_OnTranslationRecieved_m1051456530
__p:_XmlParserInput_get_LinePosition_m330612741
Moa:__Z25SetNeedToPerformRenderingb
i8c:__ZN12LightsModule8TransferI17RemapPPtrTransferEEvRT_
cYn:_MonoMethod_GetPseudoCustomAttributes_m466965107
S_o:_PhotonPeer_VitalStatsToString_m1138300377
sbb:__ZNSt3__227__insertion_sort_incompleteIR23CompareReflectionProbesP31RuntimeReflectionProbeBlendInfoEEbT0_S5_T_
Q7a:__ZN14qsort_internal30FindAndMovePivotToLastPositionIP15RODataDepthPassi17ROSorterDepthPassEEvT_S4_T0_T1_
C4c:__ZN29InitialModulePropertyBindings13GetFloatValueERK14ParticleSystemi
Pin:_ASN1Convert_ToOid_m1035860535
Pzf:__ZL53SortedList_t3004938869_CustomAttributesCacheGeneratorP21CustomAttributesCache
Zze:__ZN5physxL27PxcSweepAnyShapeHeightfieldERKNS_11PxsCCDShapeES2_PKNS_12PxsRigidBodyES5_RKNS_11PxTransformES8_fRNS_6PxVec3ESA_RNS_10PxcNpCacheERNS_18PxcNpThreadContextE
IQp:_ExecuteEvents_ValidateEventData_TisIl2CppObject_m3838331218_gshared
Nfb:__ZN12CullingGroup10SendEventsEPK17CullingGroupEventj
ujm:_DSAManaged_GenerateKeyPair_m2711647034
slb:__ZN13sorted_vectorINSt3__24pairIN4core12basic_stringIcNS2_20StringStorageDefaultIcEEEES6_EEN10vector_mapIS6_S6_27compare_tstring_insensitiveIS6_E13stl_allocatorIS7_L18MemLabelIdentifier37ELi16EEE13value_compareESD_E9erase_oneIS6_EEjRKT_
kO:__ZN15SerializeTraitsIN7mecanim5human6HandleEE8TransferI14SafeBinaryReadEEvRS2_RT_
PYk:_CCEditText_IsMaestro_m875403547
u0j:_PhotonNetwork_LoadLevel_m428830709
KKb:__ZThn32_NK8Renderer8GetLayerEv
cDc:__ZNK4Mesh17GetPrimitiveCountEv
dve:__ZN5physx3Scb5SceneD2Ev
NEt:__ZNSt3__26vectorIiNS_9allocatorIiEEEC2ERKS3_
RJq:_SoapServices_GetXmlTypeForInteropType_m3821579913
h8k:_ObscuredString_Equals_m957457180
Rrs:_Uri_op_Inequality_m853767938
sps:_CaptureAssertion_IsComplex_m1433259302
lir:_Physics2D_INTERNAL_CALL_Internal_Raycast_m489831109
Hwk:_Match__ctor_m2452513644
qDt:_il2cpp_method_get_param_count
ruq:_WP8InAppPurchasesManager_remove_OnInitComplete_m2113600730
lnc:__ZN10systeminfo19ISOToSystemLanguageERN4core12basic_stringIcNS0_20StringStorageDefaultIcEEEE
bJt:__ZNK15dense_hashtableINSt3__24pairIK10KeyWrapperINS1_IPK12PropertyInfoP11Il2CppClassEEEjEES9_17ReflectionMapHashIS8_EN14dense_hash_mapIS9_jSD_NS9_14EqualsComparerINS0_8equal_toIS8_EEEENS0_9allocatorISB_EEE9SelectKeyESI_SK_E3endEv
Oek:_TweenPosition_get_cachedTransform_m944416532
wud:__ZN11Rigidbody2D8TransferI19StreamedBinaryWriteILb0EEEEvRT_
QIp:_iAdBanner_remove_AdViewFinishedAction_m4235435883
wYe:__Z16GetDynamicsScenev
n1j:_PhotonStream_Serialize_m966898148
lhf:_ps_dimension_done
Vnf:__Z46Register_UnityEngine_TextGenerator_Dispose_cppv
Boj:_PointerEventData_get_pressEventCamera_m724559964
WRl:_UM_ShareUtility_InstagramShare_m244515780
rcp:_IOSSocialManager_OnTwitterPostFailed_m518160281
Ozr:_MockLoginDialog_DoGui_m3794777870
eUb:__ZN14SubstanceInputD2Ev
QOt:__ZN6il2cpp6icalls8mscorlib6System7Runtime15InteropServices7Marshal17GetLastWin32ErrorEv
cCk:_String_IndexOfUnchecked_m3356721554
iJb:__ZN16LightmapSettings8TransferI14SafeBinaryReadEEvRT_
xQa:__ZN17BufferManagerGLES13ReleaseBufferEP14DataBufferGLES
MPd:__ZN5physx6shdfnd5ArrayIPvNS0_19ReflectionAllocatorINS_16NpConnectorArrayEEEE15growAndPushBackERKS2_
tlq:_AN_GMSRTMProxy_TBM_LeaveMatchDuringTurn_m598649635
Men:_Mesh_CheckCanAccessSubmesh_m1826512193
fNo:_QuestAndEventsExample_AcceptQuest_m4095342155
X4:__Z41Register_UnityEngine_AudioSource_get_loopv
mle:__ZN5physx2Sc5Scene15prepareSimulateEv
bgt:_U24CrackleU2412__ctor_m3943604043
qRd:__ZN5physx6shdfnd5ArrayIPNS_2Sc11InteractionENS0_19ReflectionAllocatorIS4_EEE8recreateEj
nyl:_Dictionary_2__ctor_m1578051026_gshared
MBq:_U3CSetAllMethodsU3Ec__AnonStorey2_U3CU3Em__0_m3794286776
COr:_VertexHelper_AddUIVertexQuad_m280792808
bZg:__ZL79UITweener_t2986641582_CustomAttributesCacheGenerator_UITweener_Play_m1499013141P21CustomAttributesCache
dOo:_ReplayKitUseExample_Awake_m1304417834
_pk:_WebHeaderCollection_ToString_m1246460752
nNm:_Serializer_SerializeArray_m2712442270
Bst:__ZNK15dense_hashtableINSt3__24pairIK10KeyWrapperIPKcEP11Il2CppClassEES5_N6il2cpp5utils11StringUtils12StringHasherIS4_EEN14dense_hash_mapIS5_S8_SE_NS5_14EqualsComparerINSC_21CaseSensitiveComparerEEENS0_9allocatorIS9_EEE9SelectKeyESI_SK_E5beginEv
x0q:_DefaultComparer_Compare_m3804756211_gshared
mdr:_KeyCollection_System_Collections_Generic_ICollectionU3CTKeyU3E_Add_m726860246_gshared
Oqt:_longest_match_fast_74904
V1k:_ObscuredDouble_Encrypt_m3725663865
Ps:stackSave
b6q:_Enumerator_System_Collections_IDictionaryEnumerator_get_Key_m1330261287_AdjustorThunk
Hhf:_ps_dimension_end
hsc:__ZN19SkinnedMeshRenderer26DeallocateClothAndSkinInfoEv
MRc:__Z41Register_UnityEngine_Mesh_Internal_Createv
ySb:__ZN14SpriteRenderer23VirtualRedirectTransferER24GenerateTypeTreeTransfer
fUt:__ZNK15dense_hashtableI10KeyWrapperIP18Il2CppGenericClassES3_N6il2cpp8metadata22Il2CppGenericClassHashEN14dense_hash_setIS3_S6_NS3_14EqualsComparerINS5_25Il2CppGenericClassCompareEEENSt3__29allocatorIS3_EEE8IdentityESA_SD_E12test_deletedERK30dense_hashtable_const_iteratorIS3_S3_S6_SF_SA_SD_E
xmi:_NGUIMath_SpringLerp_m424965228
i_i:_RIPEMD160Managed_JJ_m2933451431
k7e:__Z63Register_UnityEngine_Physics_INTERNAL_CALL_Internal_RaycastTestv
Pqt:_flush_pending
QYi:_MACTripleDES_Initialize_m1318099802
Xjn:_MD5SHA1_VerifySignature_m507888141
tvi:_Byte_System_IConvertible_ToChar_m4188836679
WIn:_NumberFormatter_InitDecHexDigits_m2036076025
bhp:_ISNMediaExample_HandleActionPlaybackStateChanged_m2072401630
xCi:_Hashtable_Contains_m3221185613
yhb:__ZN6Camera9SetAspectEf
uMm:_AndroidSocialNativeExample_InstaShare_m1159246390
Rc:invoke_viiffiii
l5p:_XsollaError_GetCancelError_m2944447012
x8c:__ZN8UVModule8TransferI18StreamedBinaryReadILb0EEEEvRT_
gPk:_UInt32_TryParse_m3987111861
drg:__ZL79TouchInputModule_t2561058385_CustomAttributesCacheGenerator_m_ForceModuleActiveP21CustomAttributesCache
pCu:_emscripten_glBindVertexArray__wrapper
EBl:_Dictionary_2_InitArrays_m435313205_gshared
RQj:_UIPlaySound_Play_m2110761234
uib:__ZN9Transform37InitializeTransformHierarchyRecursiveER18TransformHierarchyRii
Uqc:__Z34DefaultPrepareDispatchBoundsUpdateR13RendererScene18MemLabelIdentifier
Eno:__Z144RuntimeInvoker_Void_t1841601450_Il2CppObject_Il2CppObject_Il2CppObject_Il2CppObject_Nullable_1_t334943763_Il2CppObject_Il2CppObject_Il2CppObjectPK10MethodInfoPvPS2_
ges:_BoxCollider_get_center_m2103454062
x8q:_Enumerator_System_Collections_IEnumerator_Reset_m1634505380_gshared
hxq:_BaseWWWRequest__ctor_m4157258382
ysk:_X509Certificate2_get_NotBefore_m2972055762
a0e:__ZN14SphereCollider23VirtualRedirectTransferER24GenerateTypeTreeTransfer
$gi:_MobileNativeMessage__ctor_m1779213013
h4p:_ValidatorInputField_Start_m3611379568
K3a:__ZN17MeshRenderingData4InitEP4MeshS1_iP15SharedGfxBufferS3_
o4o:_InvGameItem_get_name_m4261859516
lta:__ZN19ShaderPropertySheet38CopyTextureWithAuxiliaryPropertiesFromERKN9ShaderLab16FastPropertyNameERKS_
n5j:_PlayServiceExample_OnAchievementUpdated_m930991375
rke:__ZN5physx2Sc9StaticSim21postActor2WorldChangeEv
BAp:_GooglePlayManager_OnAccountsLoaded_m1496309151
ikr:_RangeInt_get_end_m913869897
GOp:_AssetBundleLoadAssetOperationSimulation_GetAsset_TisIl2CppObject_m2190448532_gshared
c2i:_Evidence_get_HostEvidenceList_m2095478124
eXc:__Z57Register_UnityEngine_Transform_INTERNAL_set_localPositionv
ann:_Context_Clear_m4000337070
dLa:__ZN13GfxDeviceGLES26SetRandomWriteTargetBufferEi15ComputeBufferID
pgi:_MNIOSDialog_onPopUpCallBack_m3210173473
zqi:_OnClickCallMethod_OnClick_m3024054326
r0d:__ZN5physx6shdfnd4sortIPvNS0_4LessIS2_EENS0_19ReflectionAllocatorINS_2Cm5BlockIhLj256EEEEEEEvPT_jRKT0_RKT1_j
SIb:_jpeg_open_backing_store
k6s:_TrackedReference_op_Equality_m3491334086
UNn:_AssemblyBuilder__ctor_m1611900080
o1k:_ObscuredDecimal_SetEncrypted_m3202644781_AdjustorThunk
gpc:__Z13RegisterClassI19SkinnedMeshRendererEvv
zwj:_FontUpdateTracker_UntrackText_m3827316510
Zrb:__ZN18AssetBundleManager19RegisterAssetBundleEP11AssetBundle
GXr:_U3CGetEnumeratorU3Ec__Iterator0_Reset_m1648209339_gshared
sTe:__ZN5physx20InternalTriangleMesh7releaseEv
Eye:__ZN5physx6shdfnd5ArrayINS_16PxsCCDBlockArrayINS_13PxsCCDOverlapELi128EE9BlockInfoENS0_19ReflectionAllocatorIS5_EEE15growAndPushBackERKS5_
FSd:__ZNK5physx7NpShape8getFlagsEv
Ewh:_Enumerator_System_Collections_IEnumerator_Reset_m886102771_AdjustorThunk
sFc:__ZNK11ICallString6ToUTF8Ev
yyq:_RequestFactory_GetUtilsRequest_m1058164445
Vhm:_Kernel_MultiplyByDword_m155008287
qps:_CaptureAssertion_get_Alternate_m2729005740
Oyq:_FormElementAdapter_Awake_m3687864844
ghp:_CoinUI_Awake_m3013849089
Ziu:__ZNKSt3__220__time_get_c_storageIwE3__cEv
t1j:_PhotonStream_Serialize_m4231407122
DHj:_UIPanel_get_clipSoftness_m3532280798
jva:__ZN18UnityPropertySheet11UnityTexEnvC2Ev
eae:__ZNK5physx7NpCloth16getContactOffsetEv
DQj:_UIPlayAnimation_OnDragOver_m1424176624
JB:__ZN8Animator17ApplyOnAnimatorIKEiRNS_11AnimatorJobE
oNl:_UM_Camera_remove_OnImageSaved_m1127277945
cja:__ZN12FileAccessor4ReadEyyPvPy
HOt:__ZN6il2cpp2vm6Thread12RequestAbortEP12Il2CppThread
Lta:__ZN13dynamic_arrayI16ShaderKeywordSetLj4EE6insertEPS0_PKS0_S4_
CGq:_MethodDictionary_IsOverridenKey_m3922224650
sDi:_SyncHashtable_Contains_m3042906549
nrd:__ZN14dense_hash_mapINSt3__24pairIPK10Collider2DS4_EE11Collision2DNS2_23ColliderPairHashFunctorENS0_8equal_toIS5_EE13stl_allocatorINS1_IKS5_S6_EEL18MemLabelIdentifier65ELi16EEE4findERSB_
xFc:__Z21GetSceneHierarchyPathPK6Object
XSh:_List_1_System_Collections_IList_set_Item_m4016273526_gshared
lvk:_X509KeyUsageExtension_CopyFrom_m931530012
AMo:_PropertyReference__cctor_m555839392
Frb:__ZN15dense_hashtableINSt3__24pairIKP29AssetBundleLoadAssetOperationbEES3_19PointerHashFunctionIS3_EN14dense_hash_mapIS3_bS7_NS0_8equal_toIS3_EENS0_9allocatorIS5_EEE9SelectKeyESA_SC_E5eraseERS4_
Zgb:__ZN13RenderTexture9SetHeightEi
b1r:_List_1_GetEnumerator_m1902460426_gshared
ggu:__ZNKSt3__27collateIcE7do_hashEPKcS3_
dHr:_MaskableGraphic_OnEnable_m694112877
$Ph:_List_1_ForEach_m2464529455_gshared
tUn:_OpCode_get_StackBehaviourPop_m3787015663_AdjustorThunk
xGr:_LayoutUtility_U3CGetMinHeightU3Em__4_m1769295917
Gtn:_SslStreamBase_Read_m1036897444
aPo:_Room_set_visible_m2879293778
MKl:_UIWidget_MarkAsChanged_m3276847846
l6k:_ObscuredQuaternion_Encrypt_m2588351970
xIr:_RectMask2D_PerformClipping_m1232012832
Oqk:_WebRequest_GetResponse_m665752724
Tff:_tt_cmap8_char_index
dmc:__Z14tessMeshDeleteP8TESSmeshP12TESShalfEdge
Kcl:_XmlSchemaSimpleType__ctor_m1537349410
Oca:__Z24scripting_class_get_name17ScriptingClassPtr
h8l:_Parser_ParseObject_m1557868362
Xka:__ZN13RuntimeStaticI15GUIEventManagerLb0EE13StaticDestroyEPv
v$j:_PhotonNetwork_get_CrcCheckEnabled_m319367407
nSa:__ZN7ApiGLES14TextureSamplerEjj17TextureFilterMode15TextureWrapModeifb18ShadowSamplingModeN2gl17TextureSrgbDecodeE
jWj:_Parser_ParseValue_m3084487695
R0t:__ZN6il2cpp2os6Thread15CurrentThreadIdEv
g3b:__Z29Transfer_Blittable_ArrayFieldI14SafeBinaryReadjEvRT_R9ArrayInfoRK23StaticTransferFieldInfo
QLo:_Progress_Update_m433018091
fZh:_Collection_1_IsSynchronized_m1984408789_gshared
Zf:_emscripten_set_keydown_callback
Gwb:__ZN19StreamedBinaryWriteILb0EE21TransferSTLStyleArrayINSt3__26vectorI17SortingLayerEntryNS2_9allocatorIS4_EEEEEEvRT_17TransferMetaFlags
KSl:_AddCash_Analysis_m4242187138
E6c:__ZN18ColorBySpeedModule8TransferI14SafeBinaryReadEEvRT_
kja:__ZN12FileAccessorC2Ev
mAr:_EditorFacebook_LogInWithReadPermissions_m2856781534
mib:__ZN9Transform35SetLocalPositionWithoutNotificationERKN4math7_float3E
iXd:__ZN5physx2Sc15ArticulationSim12applyImpulseERNS0_8BodyCoreERKNS_9PxcFsDataERKNS_6PxVec3ES9_
E9t:__ZN6il2cpp6icalls8mscorlib4Mono8Security12Cryptography18KeyPairPersistence15_ProtectMachineEP12Il2CppString
Fzk:_PatternLinkStack_GetCurrent_m2994645935
VZe:__ZN19CharacterController9GetBoundsEv
H$m:_AnimatorControllerPlayable_PlayInFixedTime_m2629510873
jaa:__ZN14StackAllocator10ReallocateEPvji
sjr:_Quaternion_SlerpUnclamped_m276819893
EGq:_MethodDictionary_set_Item_m3475146889
wfd:__ZN16CustomDataModuleD2Ev
DWd:__ZNK5physx14NpArticulation26getInternalDriveIterationsEv
eZp:_XmlNamedNodeMap_SetNamedItem_m2980350708
jXl:_Vs1UI_SetAllButtonEnabled_m3665731035
LJl:_UITweener_SetOnFinished_m1906887343
sUm:_AudioController__GetPreviousMusicTrackInOrder_m3307559606
ZNo:_RegisteredComponentController__Unregister_m4069357491
vNj:_UILabel_get_useFloatSpacing_m3868435698
aXo:_EnetPeer_QueueIncomingCommand_m50766087
AGm:_MonoCustomAttrs_GetCustomAttribute_m100274015
r6c:__ZN14VelocityModule8TransferI14SafeBinaryReadEEvRT_
xJl:_UITooltip_ShowText_m1169112514
VIc:__Z45Application_Get_Custom_PropPersistentDataPathv
z0b:__Z39WriteQueueForTransferSignatureIntoCacheRK31TransferFunctionScriptingTraitsRK24TransferRequestSignature17ScriptingClassPtrR23CachedSerializationDataRb
KBa:__ZN13RenderManager18UpdateAllRenderersEv
XQj:_UIPlayTween_Play_m1073248157
lM:__ZN18AnimatorController19TransferRuntimeDataI18StreamedBinaryReadILb0EEEEvRT_
vAh:_List_1_System_Collections_IList_set_Item_m1346264815_gshared
PBs:_ReadOnlyCollection_1_System_Collections_IList_Insert_m3679749778_gshared
Jpd:__ZN10ClipperLib7Clipper18SwapPositionsInAELEPNS_5TEdgeES2_
Nim:_BitConverterLE_GetBytes_m1611992252
MIt:__ZN15dense_hashtableINSt3__24pairIK10KeyWrapperINS1_IPK12PropertyInfoP11Il2CppClassEEEjEES9_17ReflectionMapHashIS8_EN14dense_hash_mapIS9_jSD_NS9_14EqualsComparerINS0_8equal_toIS8_EEEENS0_9allocatorISB_EEE9SelectKeyESI_SK_E12resize_deltaEjj
YG:__ZN7mecanim5human12HumanPoseAddERNS0_9HumanPoseERKS1_S4_
jlo:__Z95RuntimeInvoker_Rect_t3681755626_Single_t2076509932_Single_t2076509932_Il2CppObject_Il2CppObjectPK10MethodInfoPvPS2_
myt:_build_tree_81306
mb:invoke_viidiiii
c4r:_Action_1_BeginInvoke_m2361014002_gshared
U9r:_Animator_ResetTrigger_m865269317
f7q:_Enumerator_System_Collections_IDictionaryEnumerator_get_Value_m3005608231_AdjustorThunk
Iy:__Z14resize_trimmedINSt3__26vectorI24CompressedAnimationCurve13stl_allocatorIS2_L18MemLabelIdentifier25ELi16EEEEEvRT_j
dOl:_UM_GameServiceManager_SubmitScore_m2396102392
_5h:_Collection_1_IsFixedSize_m218241296_gshared
Gqc:__Z17BuildSmoothCornerjRP10LineVertexRKN4math8float4x4EPK15LineBuilderDataRKfSA_RK11ColorRGBA32
Q6j:_JSONLazyCreator_get_AsFloat_m4246168682
bib:__Z24MergeTransformComponentsR9TransformS0_b
isr:_SystemInfo_get_deviceUniqueIdentifier_m145206870
Ttt:__ZNK15dense_hashtableI10KeyWrapperIPK19Il2CppGenericMethodES4_N6il2cpp8metadata23Il2CppGenericMethodHashEN14dense_hash_setIS4_S7_NS4_14EqualsComparerINS6_26Il2CppGenericMethodCompareEEENSt3__29allocatorIS4_EEE8IdentityESB_SE_E10test_emptyEj
iSd:__ZThn24_N5physx2Sc20ArticulationJointSimD0Ev
nup:_LogView__ctor_m1243717231
yuh:_Enumerator_System_Collections_IEnumerator_get_Current_m2192402517_gshared
N$e:__ZN14PhysicsManager32AddToTriggerStayStatesIfRequiredEPK9Rigidbody
o7l:_GlobalInfo_IsPlayGuest_m1749818846
rFl:_DefaultComparer_Equals_m4189188262_gshared
_Hm:_MonoType_get_Name_m865859211
Eqm:_CultureInfo__cctor_m2290268677
SHj:_UIDrawCall_Destroy_m660608057
ofq:_XsollaSubscription_GetBounusString_m1415582488
Rsp:_SocketWebTcp_Connect_m153352275
oMd:__ZN5physx14PxsAABBManager12createBPElemEv
tun:_OSX509Certificates_SecPolicyCreateSSL_m1432818148
foc:__ZN13ProduceHelperI19AssetBundleManifestLb0EE7ProduceE18MemLabelIdentifier18ObjectCreationMode
cJq:_RemotingConfiguration__cctor_m2129988840
m4h:_Collection_1_Insert_m44548038_gshared
e7d:__ZThn12_N5physx7NpShape14onRefCountZeroEv
phi:_MNWP8Message_onPopUpCallBack_m3039839748
vyd:__ZL26GeomMTDCallback_ConvexMeshRN5physx6PxVec3ERfRKNS_10PxGeometryERKNS_11PxTransformES5_S8_
y2t:__ZN6il2cpp2vm13ComObjectBase19GetRuntimeClassNameEPP15Il2CppHString__
Ol:_emscripten_glVertexAttribPointer
Qza:__ZN14PreloadManager26UpdatePreloadingSingleStepENS_21UpdatePreloadingFlagsEi
Gcn:_Material__ctor_m1440882780
i0i:_SHA512Managed_Initialize_m891287980
HOe:__ZN18ScBeforeSolverTask11runInternalEv
tIs:_ReadOnlyCollection_1_System_Collections_IList_Add_m3946200628_gshared
q2i:_SecurityException__ctor_m1484114982
PNs:_X509Crl_GetHashName_m183504634
LEr:_AndroidFacebookGameObject_OnAwake_m2568910886
$5m:_GUILayout_TextField_m1577258936
Vri:_Array_GetValue_m1507415734
DTc:__Z57Register_UnityEngine_RectTransform_INTERNAL_set_anchorMinv
GKn:_Object_MemberwiseClone_m2655589444
SOd:__ZL33GeomOverlapCallback_CapsuleConvexRKN5physx10PxGeometryERKNS_11PxTransformES2_S5_PNS_2Gu12TriggerCacheE
Vlr:_Rect_op_Equality_m2793663577
nxa:__ZN6prcoreL25inner_stretch_i8_bilinearEPKNS_9InnerInfoE
sAa:__ZL30RegisterFilteredObjectCallbackPP12Il2CppObjectiPv
aNl:_UM_PurchaseResult__ctor_m3187554184
lYn:_MonoMethod_get_IsGenericMethod_m4276550811
Lnl:_Transform_1_BeginInvoke_m3826027984_gshared
t3j:_PickupItem_OnPhotonSerializeView_m1587141207
SHi:_Decimal_op_Implicit_m2149927308
Kka:__ZN13RuntimeStaticI21AssetReferenceStorageLb0EE13StaticDestroyEPv
zTe:__ZN5physx20InternalTriangleMesh9loadRTreeERNS_13PxInputStreamEj
y6l:_GameLogic_Start_m1915835419
EHh:_List_1_set_Capacity_m895816763_gshared
OGj:_UIDragScrollView_FindScrollView_m2309058672
pou:__ZNSt3__212basic_stringIwNS_11char_traitsIwEENS_9allocatorIwEEE9__grow_byEjjjjjj
QOk:_UInt16_System_IConvertible_ToUInt32_m1864968312
Umq:_AN_ManifestTemplate_ToXmlElement_m2252386413
zZt:__ZN6il2cpp6icalls8mscorlib6System9AppDomain22InternalGetProcessGuidEP12Il2CppString
Cif:_cf2_builder_moveTo
p0t:__ZN6il2cpp2osL22CheckLibraryVariationsEPKc
tfe:__ZN5physx2Sc18ParticleSystemCore16releaseParticlesEv
fbl:_ObscuredVector3_InternalEncryptField_m2788345445
ynq:_AN_PlusButton_Refresh_m2876610624
XGd:__ZN5physx2Gu20intersectTriangleBoxERKNS_6shdfnd3aos5Vec3VES5_S5_S5_S5_
_5q:_Enumerator_System_Collections_IDictionaryEnumerator_get_Entry_m345330700_AdjustorThunk
ewu:b105
x5i:_Array_InternalArray__ICollection_Contains_TisValidatorType_t2287928152_m1602673953_gshared
L6b:__Z18Transfer_BlittableI24GenerateTypeTreeTransferLb1EjEvRK29SerializationCommandArgumentsR31RuntimeSerializationCommandInfo
z7e:__Z49Register_UnityEngine_Collider_INTERNAL_get_boundsv
mzb:__ZN11ColorRGBA328TransferI14SafeBinaryReadEEvRT_
S2e:__ZN5physx6shdfnd5ArrayIPvNS0_19ReflectionAllocatorINS_24NpPtrTableStorageManager8PtrBlockILi4EEEEEE15growAndPushBackERKS2_
ASh:_List_1_set_Capacity_m1734764639_gshared
Nbf:__ZN20TextRenderingPrivate8TextMesh8TransferI14SafeBinaryReadEEvRT_
iDa:__Z11IsHDRFormat13TextureFormat
Ads:_Bounds__ctor_m1202659404_AdjustorThunk
K0l:_GameCenter_TBM_remove_ActionTrunEnded_m847446594
Hh:_emscripten_glClearDepth
jMb:__ZN14SafeBinaryRead21TransferSTLStyleArrayINSt3__26vectorIN15QualitySettings14QualitySettingENS1_9allocatorIS4_EEEEEEvRT_17TransferMetaFlags
f5e:__Z13RegisterClassI12MeshColliderEvv
Fzm:_File_OpenText_m4058508963
Qhs:_Collision_get_frictionForceSum_m3438602686
WMa:__ZN7ApiGLES13CreateTextureEjN2gl9TexFormatEiiiii
ILt:__ZN15dense_hashtableINSt3__24pairIK10KeyWrapperINS1_IPK11Il2CppImageP11Il2CppClassEEEjEES9_17ReflectionMapHashIS8_EN14dense_hash_mapIS9_jSD_NS9_14EqualsComparerINS0_8equal_toIS8_EEEENS0_9allocatorISB_EEE9SelectKeyESI_SK_E14squash_deletedEv
sxq:_U3CExecuteU3Ec__Iterator0_Reset_m803018937
Uco:__Z54RuntimeInvoker_Double_t4078015681_Interval_t2354235237PK10MethodInfoPvPS2_
aWb:__ZNSt3__26vectorINS_4pairIPKN5Unity4TypeE7Hash128EENS_9allocatorIS7_EEE8__appendEj
a2n:__Z70RuntimeInvoker_Boolean_t3825574718_Int32_t2071877448_Int32_t2071877448PK10MethodInfoPvPS2_
Csi:_Array_new_gap_m3938262218
rnf:__Z29Font_Get_Custom_PropFontNamesP12Il2CppObject
dBp:_GooglePlayQuests_OnGPQuestCompleted_m189087906
dNt:__ZN15dense_hashtableINSt3__24pairIK10KeyWrapperIP11Il2CppClassES4_EES5_N6il2cpp8metadata16SZArrayClassHashEN14dense_hash_mapIS5_S4_SA_NS5_14EqualsComparerINS9_19SZArrayClassCompareEEENS0_9allocatorIS7_EEE9SelectKeyESE_SG_EC2ERKSJ_j
CLi:_DateTime_System_IConvertible_ToSingle_m3927769066_AdjustorThunk
fkf:_cff_font_load
KCn:_FtpAsyncResult_get_AsyncWaitHandle_m3211241954
$qn:_RecordProtocol_SendRecord_m2977889250
sCe:__ZN5physx35solveContactPreBlock_ConcludeStaticEPKNS_23PxcSolverConstraintDescEjRNS_16PxcSolverContextE
r3g:__ZL62PhotonTransformView_t3716933429_CustomAttributesCacheGeneratorP21CustomAttributesCache
AP:__ZN13ProduceHelperI13AnimationClipLb0EE7ProduceE18MemLabelIdentifier18ObjectCreationMode
sDa:__ZL22stbir__encode_scanlineP11stbir__infoiPvPfiii
vBp:_GooglePlayRTM_FindMatch_m302701863
I7e:__ZN20QuadTreeNodeRenderer13StaticDestroyEPv
r_j:_PhotonManager_OnMasterClientSwitched_m2350958566
O_s:_U3CCreateSelectIteratorU3Ec__Iterator10_2_Dispose_m3978283974_gshared
yqc:__ZN9Transform12CleanupClassEv
VC:__ZN11UnityEngine9Animation33SetGenericTransformPropertyValuesERKNS0_30AnimatorGenericBindingConstantERKN7mecanim10ValueArrayEP9Transformb
_mn:_ClientContext_set_ClientHelloProtocol_m2246603449
eRd:__ZN5physx6shdfnd5ArrayIPvNS0_15InlineAllocatorILj256ENS0_19ReflectionAllocatorINS_2Cm5BlockIS2_Lj32EEEEEEEE15growAndPushBackERKS2_
HNe:__ZN5physx18PxsSolverStartTask13setupDescTaskEv
dbf:_UNITY_FT_Set_Pixel_Sizes
hNp:_Dictionary_2_Do_CopyTo_TisIl2CppObject_TisIl2CppObject_m3704460300_gshared
VCj:_U3CMouseDragOutsideRectU3Ec__Iterator1_MoveNext_m2845491958
R1l:_GameCenter_TBM_OnPlayerQuitForMatch_m870312767
fgc:__ZNSt3__26vectorIN9ShaderLab19SerializedSubShaderENS_9allocatorIS2_EEE26__swap_out_circular_bufferERNS_14__split_bufferIS2_RS4_EE
JZp:_XmlNode_System_Collections_IEnumerable_GetEnumerator_m4193915221
L4k:_ObscuredPrefs_GetInt_m1784299778
kz:__ZN11UnityEngine9Animation28AnimationClipBindingConstant8TransferI24GenerateTypeTreeTransferEEvRT_
bPj:_UIPanel_CompareFunc_m2010974746
Lpj:_StandaloneInputModule_IsModuleSupported_m623598506
Xwd:__ZN5physx3Cct13BoxController6resizeEf
_2t:__ZN6il2cpp2os11Environment17GetProcessorCountEv
nPl:_UM_GameServiceManager_OnAndroidPlayerDisconnected_m1625885164
ixr:_AsyncRequestString_Request_m2502392605
i$g:__ZL52UITextList_t652111117_CustomAttributesCacheGeneratorP21CustomAttributesCache
BVi:_SByte_ToString_m4105923225_AdjustorThunk
Iub:_LZ4_compress_generic
Kqm:_CultureInfo_ConstructCurrentUICulture_m3363349599
YMb:__ZN13dynamic_arrayI7SubMeshLj4EE18resize_initializedEjRKS0_12ResizePolicy
Bvg:__ZL75CanvasScaler_t2574720772_CustomAttributesCacheGenerator_m_FallbackScreenDPIP21CustomAttributesCache
tHm:_MonoType_GetEvent_m4160342003
hIr:_RawImage_set_texture_m2400157626
Bmu:__ZNKSt3__25ctypeIwE9do_narrowEwc
eTk:_BaseAndroidPopup_add_ActionComplete_m1102524952
lPe:__ZN5physx6shdfnd5ArrayINS_2Cm12DelegateTaskINS_2Sc5SceneEXadL_ZNS5_19updateCCDSinglePassEPNS_10PxBaseTaskEEEEENS0_19ReflectionAllocatorIS8_EEE8recreateEj
zzb:__Z30ProcessDynamicBatchGeometryJobP25DynamicVBOGeometryJobDataj
y8a:__ZNSt3__27__sort4IRNS_6__lessI11CulledLightS2_EEPS2_EEjT0_S6_S6_S6_T_
$ys:_ReadOnlyCollection_1_System_Collections_IList_Insert_m571883041_gshared
mEt:__ZN6il2cpp2vm14TypeNameParser26ParseArrayModifierOptionalEv
zLl:_OnInitializeItem_Invoke_m286694789
Yem:_MSCompatUnicodeTable_Level3_m260824928
p2h:_Collection_1__ctor_m3278576882_gshared
dca:__Z26scripting_object_get_class18ScriptingObjectPtr
wAq:_PaymentFormController_U3CInitViewU3Em__0_m1912320888
f1d:__ZN5physx34NpShapeGetScRigidObjectFromScbSLOWERKNS_3Scb5ShapeE
aqc:__ZNK28MonoBehaviourPropertyBinding15GenerateBindingERKN4core12basic_stringIcNS0_20StringStorageDefaultIcEEEEbRN11UnityEngine9Animation14GenericBindingE
vak:_TBM_Multiplayer_Example_Awake_m3163003983
J9m:_GUIStyle_CalcMinMaxWidth_m2027503105
lio:__Z135RuntimeInvoker_RaycastHit2D_t4063908774_Vector2_t2243707579_Vector2_t2243707579_Single_t2076509932_Int32_t2071877448_Single_t2076509932PK10MethodInfoPvPS2_
fvr:_Texture2D_SetPixel_m609991514
oNi:_DateTime_ToShortDateString_m2983678851
K1i:_X509Certificate_Reset_m1676863543
p_s:_U3CCreateConcatIteratorU3Ec__Iterator1_1_MoveNext_m1871966524_gshared
rvq:_WP8ProductTemplate_HandleTextureLoaded_m3455514399
ckm:_KeyPairPersistence_Load_m1355205585
KTk:_U3CLoadU3Ec__Iterator2_Reset_m2063693976
wEm:_SynchronizedWriter_WriteLine_m1727363325
zUb:__ZN14SubstanceValue8TransferI18StreamedBinaryReadILb0EEEEvRT_
ehp:_ISNMediaExample_OnGUI_m786200433
YUd:__ZNK5physx21PxsBodyTransformVault12getTransformERKNS_11PxsBodyCoreE
hcl:_ObscuredVector3_ToString_m1697126281_AdjustorThunk
c0t:__ZN6il2cpp6icalls8mscorlib6System11Environment15internalGetHomeEv
h2l:_GameCenter_TBM_OnMatchRemoveFailed_m176190379
ZPm:_AS_LoginGUI_RegistrationGUI_m2963904232
LGe:__ZN5physx2Gu33MultiplePersistentContactManifold10fromBufferEPh
Syd:__ZN44ConvexVsHeightfieldContactGenerationCallback7onEventEjPj
WLq:__ZN21InterfaceFuncInvoker4IP12Il2CppObjectS1_P28SerializationInfo_t22898743028StreamingContext_t1417235061S1_E6InvokeEjP11Il2CppClassS1_S1_S3_S4_S1_
bZs:_ObjectPool_1_Get_m3724675538_gshared
Jvo:__Z63RuntimeInvoker_Void_t1841601450_Il2CppObject_Double_t4078015681PK10MethodInfoPvPS2_
L2a:_UNITY_png_set_error_fn
dr:FUNCTION_TABLE_diiii
aBr:_EditorWrapper_ShowPayMockDialog_m1531887156
pyp:_GooglePlayManager_remove_ActionAchievementsLoaded_m506642343
smd:__ZNK11b2RopeJoint16GetReactionForceEf
VNh:_List_1_CheckIndex_m4231572822_gshared
WSg:__ZL62SetColorOnSelection_t1594576712_CustomAttributesCacheGeneratorP21CustomAttributesCache
GC:__ZN7mecanim8skeleton26SkeletonPoseComputeGlobalQEPKNS0_8SkeletonEPKNS0_13SkeletonPoseTIN4math4trsXEEEPS7_ii
W2k:_ObscuredFloat_GetHashCode_m3933485749
Ixj:_Graphic_UnregisterDirtyMaterialCallback_m819829270
dWp:_XmlDocument_CreateDocumentType_m1547540585
pid:__ZN14ParticleSystem40OnTrailGeometryJobsScheduledRenderThreadERK8JobFence
Xth:_LinkedList_1_AddLast_m2912952080_gshared
Ad:invoke_viiiffii
jbr:_KeyCollection_System_Collections_Generic_ICollectionU3CTKeyU3E_Clear_m1777024130_gshared
d0s:_Nullable_1_GetValueOrDefault_m3888875471_AdjustorThunk
NMh:_List_1_GetEnumerator_m2672519407_gshared
p9c:__ZN13TriggerModule8TransferI19StreamedBinaryWriteILb0EEEEvRT_
fC:__ZN9BlobWrite8TransferI22OffsetPtrArrayTransferIiEEEvRT_PKc17TransferMetaFlags
Jem:_ContractionComparer_Compare_m314873025
vAe:__ZN5physx8CCDSweepINS_2Gu9TriangleVENS1_8CapsuleVEEEbRT_RT0_RKNS_6shdfnd3aos15PsMatTransformVERKNS9_12PsTransformVERKNS9_5Vec3VERKNS9_6FloatVESI_SI_RSJ_RSG_SN_f
Han:_GUIUtility_EndGUIFromException_m2091524531
HVd:__ZN5physx6shdfnd5ArrayIPvNS0_15InlineAllocatorILj256ENS0_19ReflectionAllocatorINS_11NpAggregateEEEEEE15growAndPushBackERKS2_
lwm:_Int64_System_IConvertible_ToDouble_m638786774
MVi:_SecurityElement_ToXml_m1070777098
PZ:__ZN4FMOD6System7releaseEv
ywe:__ZN5physx6shdfnd8PoolBaseINS_2Sc18TriggerInteractionENS0_19ReflectionAllocatorIS3_EEE15disposeElementsEv
$Up:_XmlConvert_ToString_m2254328852
MJl:_UITweener_AddOnFinished_m3855136488
rjk:_UICamera_FindCameraForLayer_m141587329
Oia:__Z18PathToAbsolutePathRKN4core12basic_stringIcNS_20StringStorageDefaultIcEEEE
TRf:__ZL81XmlSchemaDerivationMethod_t3165007540_CustomAttributesCacheGenerator_SubstitutionP21CustomAttributesCache
Hvh:_Enumerator_MoveNext_m3078170540_AdjustorThunk
Lw:__ZN13AnimationClip23VirtualRedirectTransferER17RemapPPtrTransfer
Y8h:_Collection_1_IsFixedSize_m1280898648_gshared
GCl:_Dictionary_2_Resize_m2672264133_gshared
Nyd:__ZL31PointInConvexPolygon2D_OutCodesPKfjffffRh
DRc:__Z22Mesh_CUSTOM_HasChannelP12Il2CppObject30InternalScriptingShaderChannel
Eyc:__ZN15DirectorManager17AcquireOutputNodeEv
Fdd:__ZL15AccumulateNoiseILb1ELi1EEN4math8floatNx2ERKNS0_8floatNx3ERKfiS6_S6_
DSo:_ServerSettings_UseCloud_m1692204879
Bya:__ZN6prcoreL17RemapGenericFloatI18TexFormatRGBAFloat17TexFormatRGBFloatEEvPKNS_9InnerInfoE
_F:__ZN8Playable11SetDurationEd
Bol:_Transform_1_BeginInvoke_m2296443620_gshared
z6e:__ZN9Rigidbody12MoveRotationERK11Quaternionf
Cnj:_ExecuteEvents__cctor_m288775360
nRc:__Z50Register_UnityEngine_Quaternion_INTERNAL_CALL_Lerpv
mjm:_CryptoConvert_FromCapiKeyBlob_m3701215818
RDa:__ZN29SerializeTraitsForStringTypesIN4core12basic_stringIcNS0_20StringStorageDefaultIcEEEEE8TransferI24GenerateTypeTreeTransferEEvRS4_RT_
L2m:_GUIUtility_Internal_GetHotControl_m2510727642
QX:__ZN12AudioManager29ShutdownReinitializeAndReloadEv
Did:__ZL24GenerateParticleGeometryIL24ParticleSystemRenderMode0ELb0ELb0ELb0EEvPfRK22ParticleSystemTempDataRK26ParticleSystemRendererDataRK21ParticleSystemModulesRK23ParticleSystemParticlesRK31ParticleSystemParticlesTempData
RPt:__ZN6il2cpp6icalls8mscorlib6System10Reflection8Assembly22load_with_partial_nameEP12Il2CppStringP40mscorlib_System_Security_Policy_Evidence
vQe:__ZN5physx2Cm12DelegateTaskINS_2Sc5SceneEXadL_ZNS3_15postNarrowPhaseEPNS_10PxBaseTaskEEEE11runInternalEv
i5e:__Z20ConvertContactToMonoP9Collision
Tcs:_AudioSource_PlayOneShot_m4118899740
Sbt:_JsonReader_GetTypeForCloseToken_m1025264627
Ymr:_RectTransform_GetLocalCorners_m1836626405
Wot:__ZN15dense_hashtableINSt3__24pairIK10KeyWrapperIPK22Il2CppGenericParameterEP11Il2CppClassEES6_N6il2cpp5utils11PointerHashIS4_EEN14dense_hash_mapIS6_S9_SE_NS6_14EqualsComparerINS0_8equal_toIS5_EEEENS0_9allocatorISA_EEE9SelectKeyESJ_SL_E6insertERKSA_
aAm:_FileLoadException__ctor_m1356374414
Ewn:_NameValueCollection_Set_m2969274643
FNa:__ZN14DataBufferGLES16RecreateWithDataEjPKv
oOq:_InternalEnumerator_1_get_Current_m1943362081_gshared
Myd:__ZL17transformVerticesRfS_S_S_PfjPKN5physx6PxVec3EPKhRKNS1_7PxMat33E
a4e:__ZNK5physx2Gu15HeightFieldUtil31getFaceIndexAtShapePointNoTest2Ejff
uXj:_PerformanceObscuredTests_Start_m1769629413
hkb:__ZN8Material8SetColorEN9ShaderLab16FastPropertyNameERK10ColorRGBAf
G3l:_GameCenterExample_OnScoreSubmitted_m3405828500
AXn:_MonoField_GetValueInternal_m1909282050
pwr:_Utilities_ToCommaSeparateList_m3081682510
tuq:_WP8InAppPurchasesManager_remove_OnPurchaseFinished_m2641688776
sCl:_Dictionary_2_System_Collections_ICollection_CopyTo_m3578539931_gshared
I$:__ZN11AudioSource23VirtualRedirectTransferER18StreamedBinaryReadILb0EE
df:___syscall91
PBu:_glDeleteProgram__wrapper
Zen:_Mesh_set_normals_m2674236682
Pka:__ZN21AssetReferenceStorageC2Ev
D6q:_Enumerator_System_Collections_IDictionaryEnumerator_get_Key_m1214978221_AdjustorThunk
Sca:__ZL41AssemblyNameMatchesWithOrWithoutExtensionPKcS0_
jUj:_UISlider_OnKey_m3634739157
rQj:_UIPlayAnimation_get_dualState_m3533888835
fWo:_TrafficStats_CountReliableOpCommand_m711644830
Dvb:__ZN19StreamedBinaryWriteILb0EE21TransferSTLStyleArrayI10vector_mapIi14ConstantStringNSt3__24lessIiEENS4_9allocatorINS4_4pairIiS3_EEEEEEEvRT_17TransferMetaFlags
xse:__ZN5physx2Sc5Scene21fireCallBacksPostSyncEv
WRa:__ZN14GfxContextGLES43AddRenderSurfaceToDeferredFBOInvalidateListEPK17RenderSurfaceGLES
FVr:_DTDReader_CompileDeclaration_m2197956661
fBl:_Dictionary_2__ctor_m3269726301_gshared
dze:__ZN5physx17PxsCCDAdvanceTask11runInternalEv
Vsa:__ZN11NamedObject23VirtualRedirectTransferER14SafeBinaryRead
yvk:_BaseMachine_RTLReplace_m25431723
ruo:__Z88RuntimeInvoker_Void_t1841601450_Vector3_t2243707580_Single_t2076509932_Int32_t2071877448PK10MethodInfoPvPS2_
Taf:__ZNSt3__26vectorIN20TextRenderingPrivate8FontImpl13CharacterInfoE13stl_allocatorIS3_L18MemLabelIdentifier1ELi16EEE6insertENS_11__wrap_iterIPKS3_EERS9_
aAa:__ZN23PreloadManagerOperation6IsDoneEv
x0:__ZN4FMOD7Channel20get3DConeOrientationEP11FMOD_VECTOR
Lnm:_X509Certificate_get_RawData_m3000055075
mzc:__Z33GetHasChangedDeprecatedSystemMaskv
hdm:_GoogleCloudManager_updateState_m4187244392
QYt:__ZN6il2cpp5utils11StringUtils11Utf16ToUtf8ERKNSt3__212basic_stringIDsNS2_11char_traitsIDsEENS2_9allocatorIDsEEEE
wAp:_GooglePlayManager_OnPlayerDataLoaded_m3813847772
YNp:_BaseInvokableCall_ThrowOnInvalidArg_TisIl2CppObject_m1349548392_gshared
dJd:__ZN5physx3Cct26CharacterControllerManagerD2Ev
N6q:_Enumerator_VerifyState_m1165543189_AdjustorThunk
qMi:_DateTime_AddSeconds_m722082155_AdjustorThunk
fAi:_SynchronizedArrayListWrapper_CopyTo_m956887031
hOr:_Text_set_alignment_m1816221961
oEa:__ZN21LightProbeProxyVolume18HasHardwareSupportEv
asd:__ZNK20b2SeparationFunction17FindMinSeparationEPiS0_f
ixa:__ZN6prcoreL31inner_stretch_argb8888_bilinearEPKNS_9InnerInfoE
S9b:__Z18Transfer_BlittableI18StreamedBinaryReadILb1EELb1E8BitFieldEvRK29SerializationCommandArgumentsR31RuntimeSerializationCommandInfo
Phq:_AddressBookController__cctor_m1196602059
ZVh:_Enumerator_MoveNext_m1222774867_gshared
hef:_UNITY_FT_Outline_Decompose
b3o:_IELdemo_Awake_m822978621
kpn:_TlsClientCertificate_get_ClientCertificate_m3062440489
V8o:_IOSInAppPurchaseManager_EditorFakeInitEvent_m2515970670
Ltp:_ConsoleBase_get_MenuStack_m2022459395
Gye:__ZN5physx6shdfnd8internal8HashBaseINS0_4PairIKNS3_IPKNS_12PxsRigidCoreEPKNS_12PxsShapeCoreEEEPNS_11PxsCCDShapeEEESA_NS0_4HashISA_EENS1_11HashMapBaseISA_SD_SG_NS0_9AllocatorEE6GetKeyESI_Lb1EE15reserveInternalEj
i9k:_ObscuredULong_InternalDecrypt_m1176687911_AdjustorThunk
j6a:__Z20scripting_object_new17ScriptingClassPtr
Rpm:_TextInfo__ctor_m2782608694
rCs:_ReadOnlyCollection_1_System_Collections_IList_Insert_m1080007271_gshared
aSb:__ZN26SkinnedMeshRendererManager11AddRendererER19SkinnedMeshRenderer
z2l:_GameCenterExample_Awake_m446882099
MWh:_Queue_1_System_Collections_ICollection_CopyTo_m772787461_gshared
ZXc:__Z58Register_UnityEngine_Object_Internal_CloneSingleWithParentv
WT:__Z75AnimatorControllerPlayable_CUSTOM_INTERNAL_CALL_GetAnimatorClipInfoInternalP12Il2CppObjectR9HPlayableihS0_
nte:__ZN5physx2Sc5Scene21setDominanceGroupPairEhhRKNS_20PxDominanceGroupPairE
Ncb:__ZN18ShadowMapJobHeaderD0Ev
Owj:_Graphic_OnRectTransformDimensionsChange_m1610753363
NYj:_PhotonAnimatorView_SerializeSynchronizationTypeState_m2900677464
M8c:__ZN16CustomDataModule8TransferI18StreamedBinaryReadILb0EEEEvRT_
PGj:_UIDragScrollView_Start_m2971855587
cKi:_Convert_ToUInt16_m3265369225
P:Math_exp
q4k:_ObscuredLong_ToString_m2936055773_AdjustorThunk
_1s:_Nullable_1_get_Value_m825790621_AdjustorThunk
Msm:_SortKey_ToString_m2406913228
gq:FUNCTION_TABLE_iiifi
u5i:_Array_InternalArray__ICollection_Contains_TisVector3_t2243707580_m3625701788_gshared
Mud:__ZN13BoxCollider2D15InitializeClassEv
hzs:_ReadOnlyCollection_1_System_Collections_IList_set_Item_m3877370174_gshared
pif:_cff_get_advances
yib:__ZN13MonoBehaviour9SetScriptERK4PPtrI10MonoScriptE18ScriptingObjectPtr
iQl:_UM_InAppPurchaseManager_Android_OnRetrieveProductsFinised_m999871445
NYc:__Z42Register_UnityEngine_WWW_INTERNAL_CALL_WWWv
DFs:_ReadOnlyCollection_1_System_Collections_ICollection_CopyTo_m1807854698_gshared
pbs:_Application_LoadLevelAdditiveAsync_m1800775530
Cvb:__ZN19AssetBundleManifest8TransferI19StreamedBinaryWriteILb0EEEEvRT_
Pdf:_UNITY_FT_Create_Class_sfnt_module_class
sZm:_AnimatorControllerPlayable_SetFloatString_m3937146789
Nke:__ZN5physx7NpScene12loadFromDescERKNS_11PxSceneDescE
uPi:_Decimal_IsZero_m3557909184_AdjustorThunk
Oxi:_Char_ToString_m1401375624
YYi:_MD5CryptoServiceProvider__cctor_m3309191799
T9:__ZNK10FileSystem16LastErrorMessageEv
nbd:__Z19UpdateProceduralTplIL27ParticleSystemCurveEvalMode4EEvRK22DualMinMax3DPolyCurvesRK11MinMaxCurveS6_S6_R23ParticleSystemParticlesRKN4math8float3x3Eb
VXq:_InternalEnumerator_1_System_Collections_IEnumerator_get_Current_m2098272801_gshared
wys:_ReadOnlyCollection_1_System_Collections_IList_IndexOf_m622689580_gshared
PRm:_AssetBundleManager_LoadLevelAsync_m404279089
H3t:__ZNK6il2cpp8metadata14Il2CppTypeLessclEPK10Il2CppTypeS4_
XJn:_NumberFormatter_Divide10_m2310887631
Ews:_ConfigHandler_ReadCustomProviderData_m784203316
bEc:__ZN11TimeManager16HasFixedTimeStepEv
Dxh:_Enumerator_System_Collections_IEnumerator_Reset_m3052395060_gshared
FHm:_MonoType_GetProperties_m2873825897
Dhn:_Kernel_DwordDivMod_m3728402123
h$b:__ZN13MonoBehaviour13AwakeFromLoadE17AwakeFromLoadMode
xrf:__ZZN2UI14CanvasRenderer15InitializeClassEvEN38FunctorImpl_810kCanvasHierarchyChanged4CallEPviR11MessageData
KCk:_String_ReplaceFallback_m64616664
Yni:_NGUITools_AddChild_m3119301680
j5b:__ZL26Transfer_SimpleNativeClassI17RemapPPtrTransfer8GradientLb1EEvRK29SerializationCommandArgumentsR31RuntimeSerializationCommandInfo
Chk:_UIBasicSprite_set_flip_m3797907693
Azc:__ZN12CachedWriter9InitWriteER15CacheWriterBase
dyc:__Z21UnsignedInt64ToStringy
tIk:_UTF7Decoder__ctor_m549434986
lte:__ZN5physx14PxsAABBManager15createAggregateEPvb
ozr:_JsBridge_OnPayComplete_m3398518499
fSc:__Z36MonoBehaviour_CUSTOM_InvokeRepeatingP12Il2CppObjectP12Il2CppStringff
rct:_StringUtils_IsHighSurrogate_m1835143636
yDi:_Queue__ctor_m214205393
wqt:__ZN6il2cpp2vm5Class12HasAttributeEP11Il2CppClassS3_
_9s:_WaitForSecondsRealtime_get_keepWaiting_m741039114
uXc:__Z66Register_UnityEngine_Transform_INTERNAL_CALL_InverseTransformPointv
Ehp:_ConnectionButton_OnGUI_m2168775001
YRp:_XmlTypeMapping_UpdateRoot_m813424491
zLb:__ZN12LineRenderer8TransferI14SafeBinaryReadEEvRT_
Ob:invoke_iiiiifiiiif
YNs:_X509Crl_VerifySignature_m1390212587
pwk:_Group__ctor_m4103922028
Vbt:_JsonReader_Dispose_m3587675286
$2a:__ZN6Camera26ClearIntermediateRenderersEj
uXl:_WindowAutoYaw__ctor_m3664152079
m2a:_UNITY_png_write_pCAL
EBs:_ReadOnlyCollection_1_System_Collections_Generic_ICollectionU3CTU3E_Remove_m3503689987_gshared
apm:_AppDomainInitializer_Invoke_m3449211446
Pxa:__ZN6prcoreL12RemapGenericI17TexFormatARGB888815TexFormatBGR888EEvPKNS_9InnerInfoE
yCu:_emscripten_glCullFace__wrapper
Kti:_BitConverter_ToUInt16_m2715119381
cZi:_MD5CryptoServiceProvider_ProcessFinalBlock_m1052610785
YT:__Z79AnimatorControllerPlayable_CUSTOM_INTERNAL_CALL_GetNextAnimatorClipInfoInternalR9HPlayablei
vAi:_BitArray_Set_m2878881714
Acd:__Z20UpdateCustomCurveTplIL27ParticleSystemCurveEvalMode1EEvRK11MinMaxCurveR23ParticleSystemParticlesiijjRKN4math5_int4E
B5q:_Enumerator_get_CurrentKey_m3410494779_gshared
v2r:_U3CConcatYieldU3Ed__63_1__ctor_m1050054409_gshared
ytm:_Guid_CompareTo_m2203922782_AdjustorThunk
$6d:__ZN5physx7NpShape8requiresERNS_23PxProcessPxBaseCallbackE
GTt:__ZN6il2cpp6icalls8mscorlib6System13Globalization11CultureInfo35construct_internal_locale_from_nameEP17Il2CppCultureInfoP12Il2CppString
w$n:__Z58RuntimeInvoker_Il2CppObject_Int32_t2071877448_Il2CppObjectPK10MethodInfoPvPS2_
X6b:__ZL22Transfer_ManagedObjectI24GenerateTypeTreeTransferLb1EEvRK29SerializationCommandArgumentsR31RuntimeSerializationCommandInfo
zan:_GUITexture_INTERNAL_get_pixelInset_m4255900294
tBk:_String_Split_m3326265864
jjk:_UICamera_get_handlesEvents_m968479517
hqi:_ObscuredPrefsTest_SaveGame_m924426924
ufk:_TweenScale_SetEndToCurrentValue_m1523713074
$Bj:_InputField_MoveLeft_m688575903
Xl:_emscripten_set_main_loop_timing
lc:invoke_iiifffi
t8p:_XsollaPaymentImpl_GetStatus_m3275139222
qll:_FixupCallbackInfo_FixupMembers_m4208342946
ubt:_JsonPosition_WriteTo_m223387278_AdjustorThunk
Xlq:_AN_GoogleAdProxy_RecordInAppResolution_m3670519107
ASk:_WeakReference_AllocateHandle_m1783929473
ANa:__ZN14DataBufferGLES12RecordRenderEv
Gyh:_Enumerator_System_Collections_IEnumerator_Reset_m861973998_gshared
CFe:__ZNK5physx20SingleAABBUpdateTask7getNameEv
Bjb:__ZN14ImageReference10FlipImageYEv
uZo:_Protocol_DeserializeByteArray_m2526413628
Z7c:__ZN21InheritVelocityModule8TransferI17RemapPPtrTransferEEvRT_
U_c:__Z14GetDefaultSkini
sjd:__Z44Register_UnityEngine_ParticleSystem_set_loopv
mV:__ZN4FMOD3DSP9setBypassEb
Aob:__Z19NormalizeWheelInputf
Q5i:_Array_InternalArray__ICollection_Remove_TisLink_t865133271_m1984184141_gshared
Dvl:_Dictionary_2_System_Collections_IDictionary_Contains_m437801690_gshared
bOk:_Type_MakeGenericType_m2765875033
bEj:_LayoutRebuilder_IsDestroyed_m3442208294
Bbk:_ToHubButton_OnGUI_m448848211
vFc:__ZN11MonoManager25GetImageFromAssemblyIndexEi
Abe:__ZN5physx2Sc9ClothCore17addCollisionPlaneERKNS_21PxClothCollisionPlaneE
y3a:__ZN22RenderingCommandBuffer20CleanupCommandBufferEv
Rbl:_ObscuredVector3_op_Subtraction_m568593468
k_p:_XmlNodeListChildren_get_Count_m293349973
bAm:_FileLoadException__ctor_m918124939
fBh:_List_1_set_Item_m72704742_gshared
om:___syscall85
e5r:_Action_1_BeginInvoke_m1841122278_gshared
MSe:__ZNK5physx13PxHeightField8isKindOfEPKc
Rhk:_UIButton_set_isEnabled_m3398846858
p5a:__ZNSt3__26__sortIRPFbP10GUIElementS2_EPS2_EEvT0_S7_T_
Aup:_MenuBase_OnGUI_m446320748
KUm:_AudioController_StopAll_m3977425997
Xaf:__Z14ValidateFormatR13dynamic_arrayIN20TextRenderingPrivate16TextFormatChangeELj4EE
G$:__ZNK11AudioSource26GetTypeInfoVirtualInternalEv
jQp:_Array_InternalArray__get_Item_TisContactPoint2D_t3659330976_m825151777_gshared
B2k:_ObscuredFloat_InternalDecrypt_m1718606362
b1b:__ZN11MonoManager23VirtualRedirectTransferER24GenerateTypeTreeTransfer
FEl:_Dictionary_2_GetObjectData_m244905945_gshared
OZj:_PhotonManager_Awake_m3409064147
yJ:__ZN23AnimationPlayableOutput17SetSourcePlayableEP8Playable
Qvk:_Capture__ctor_m885749277
pLj:_UILabel_get_ambigiousFont_m306311942
h9m:_GUIStyle_set_clipOffset_m3871613343
loq:_AN_PropertyTemplate_set_Value_m1491780818
Yzj:_SubmitEvent__ctor_m222860306
KHd:__ZN16ControllerFilter9preFilterERKN5physx12PxFilterDataEPKNS0_7PxShapeEPKNS0_12PxRigidActorERNS0_7PxFlagsINS0_9PxHitFlag4EnumEtEE
I6n:__Z94RuntimeInvoker_Int32_t2071877448_Il2CppObject_Int32_t2071877448_Il2CppObject_Int32_t2071877448PK10MethodInfoPvPS2_
nVj:_PhotonNetwork_get_connected_m3005645129
yEe:__ZN16MBPOS_TmpBuffers16allocateSleepingEjj
qlt:__ZL25UnresolvedVirtualCall_178P12Il2CppObjectffffPK10MethodInfo
pXj:_PaymentManagerExample_OnRestoreComplete_m1314122283
A5m:_GUILayoutGroup_GetNext_m1899084055
qAj:_InputField_CaretBlink_m3960486606
Dej:_Array_InternalArray__ICollection_Add_TisNsScope_t2513625351_m3006185792_gshared
Vgg:__ZL70PersistentCall_t3793436469_CustomAttributesCacheGenerator_m_MethodNameP21CustomAttributesCache
PZe:__ZN19CharacterController23VirtualRedirectTransferER19StreamedBinaryWriteILb0EE
nxc:__ZN21FixedBehaviourManager6UpdateEv
cIc:__ZN9Transform9SetParentEPS_NS_15SetParentOptionE
fnk:_Worker_Send_m4287108668
cyj:_GridLayoutGroup_set_startCorner_m1660251450
HIg:__ZL103GPAchievement_t4279788054_CustomAttributesCacheGenerator_GPAchievement_t4279788054____name_PropertyInfoP21CustomAttributesCache
H8c:__ZN15CollisionModule8TransferI18StreamedBinaryReadILb0EEEEvRT_
Pct:_JsonTextReader_ParseNumberNaN_m723761528
jWr:_DTDReader_CheckNameCapacity_m3837130677
iea:__ZN19ShaderPropertySheet8SetFloatEN9ShaderLab16FastPropertyNameEfNS_8SetFlagsE
atg:__ZL68InputField_t1631627530_CustomAttributesCacheGenerator_m_AsteriskCharP21CustomAttributesCache
mBa:__ZN19RuntimeSceneManager24BeginIntegrateMainThreadEP10UnityScene
pel:_ListMap_GetArrayType_m1349889285
EWd:__ZN5physx14NpArticulation26setExternalDriveIterationsEj
ozd:__ZN16RayRTreeCallbackILi0ELb0EED0Ev
pao:__Z80RuntimeInvoker_Void_t1841601450_Il2CppObject_Int32_t2071877448_Int16_t4041245914PK10MethodInfoPvPS2_
WJe:__ZN5physx20PxsParticleSystemSim23scheduleCollisionUpdateERNS_10PxBaseTaskE
l$t:__ZNSt3__2plIcNS_11char_traitsIcEENS_9allocatorIcEEEENS_12basic_stringIT_T0_T1_EERKS9_S6_
j5k:_ObscuredPrefs_GetDouble_m2713990952
Nfc:__ZN9ShaderLab20SerializedSubProgramaSERKS0_
G3r:_Action_1_BeginInvoke_m175262896_gshared
nEk:_String_CreateString_m2556700934
Ewb:__ZN18StreamedBinaryReadILb0EE21TransferSTLStyleArrayINSt3__26vectorI17SortingLayerEntryNS2_9allocatorIS4_EEEEEEvRT_17TransferMetaFlags
hQl:_UM_InAppPurchaseManager_Android_OnBillingConnected_m2120030069
X1o:_iAdIOSBanner_ShowBanner_m3019529809
gB:__ZN8Animator15SetPrepareStageEv
qpt:__ZN6il2cpp2vmL24SetupTypeHierarchyLockedEP11Il2CppClassRKNS_2os12FastAutoLockE
t7k:_ObscuredShort_EncryptDecrypt_m3273872373
kli:_NetworkingPeer_GetInstantiatedObjectsId_m2291334036
Hob:__ZL11TextHandleriPK23EmscriptenKeyboardEventPv
cbb:__Z20CalculateLightMatrixRK15SharedLightDataP10Matrix4x4f
raf:_destroy_face
IRo:_U3CMakeScreenshotAndSaveGameDataU3Ec__Iterator0_MoveNext_m977226371
yQo:_SA_BackButton_GoBack_m2445920324
ihs:_CharacterInfo_get_uvTopRight_m3880103490_AdjustorThunk
I5m:_GUIWordWrapSizer__ctor_m201432832
XYm:_AnimationOffsetPlayable_INTERNAL_CALL_GetPosition_m602003518
c8p:_XsollaPaymentImpl_NextStep_m3863001709
Zfd:__ZN21RotationBySpeedModuleD0Ev
IGn:_IPAddress__cctor_m3624830012
R$:__ZN20SoundChannelInstance7setMuteEb
dmi:_NGUIMath_DecimalToHex24_m1560548333
dfj:_Array_InternalArray__ICollection_CopyTo_TisState_t3649530779_m3084806118_gshared
YId:__ZN5physx3Cct26CharacterControllerManager21createObstacleContextEv
y7f:__ZL115AnimatorStateInfo_t2577870592_CustomAttributesCacheGenerator_AnimatorStateInfo_t2577870592____nameHash_PropertyInfoP21CustomAttributesCache
XNc:__Z49Register_UnityEngine_RectOffset_INTERNAL_CALL_Addv
$en:_Mesh_set_tangents_m840715099
cug:__ZL69Scrollbar_t3248359358_CustomAttributesCacheGenerator_m_OnValueChangedP21CustomAttributesCache
Nac:__Z19TransferField_ArrayI18StreamedBinaryReadILb1EE27Converter_SimpleNativeClassI17AnimationCurveTplIfEEEvRK23StaticTransferFieldInfoR31RuntimeSerializationCommandInfoRT0_
xkq:_AN_GMSGeneralProxy_CreateNewSpanshot_Bridge_m2878545820
Jud:__ZN7b2World18SetContactListenerEP17b2ContactListener
Ru:__ZNSt3__26vectorI4PPtrI13AnimationClipE13stl_allocatorIS3_L18MemLabelIdentifier25ELi16EEE8__appendEj
iOa:__ZN18GfxFramebufferGLES22MakeCurrentFramebufferENS_7BuiltinE
Xwk:_Interpreter_Close_m1500459069
Zme:__ZN5physx6shdfnd5ArrayIPNS_2Sc19ShapeInstancePairLLENS0_19ReflectionAllocatorIS4_EEE15growAndPushBackERKS4_
K0p:_XmlTextReader_get_EOF_m1684972589
MDa:__ZN12CachedReader4ReadEPvj
Mkq:_AN_GMSGiftsProxy_dismissRequest_m1606683692
qMd:__ZN5physx14PxsAABBManager19createAggregateElemEv
S_d:__ZN5physx2Sc8BodyCore24clearSpatialAccelerationEbb
Q_t:__ZN6il2cpp2vm6Method10IsInstanceEPK10MethodInfo
PRq:_InternalEnumerator_1_System_Collections_IEnumerator_get_Current_m3600601141_gshared
y$i:_SHA1Internal_HashFinal_m3188468925
yUb:__ZN14SubstanceInput8TransferI18StreamedBinaryReadILb0EEEEvRT_
r9s:_Vector3_op_Inequality_m799191452
uab:__Z24CalculateLightShadowFadeRK6CamerafffR8Vector4f
Cfa:__ZN19RuntimeSceneManagerD2Ev
Mvs:_ChannelData_get_CustomProperties_m1470957369
Lzp:_GooglePlayManager_get_Achievements_m318217613
nIl:_UITextList_OnScrollBar_m455483597
tTj:_UISlider__ctor_m285068726
hxa:__ZN6prcore17GetIntegerBlitterE13TextureFormatS0_N14ImageReference8BlitModeE
Sme:__ZN5physx10PxsContext20createContactManagerERKNS_24PxvManagerDescRigidRigidEPNS_18PxsMaterialManagerE
Xnd:__ZN13BoxCollider2DD0Ev
m7q:_Enumerator_VerifyState_m3173176371_AdjustorThunk
J3j:_PickupItemSyncer_RequestForPickupTimes_m3398394985
NQd:__ZN5physx2Sc5Scene31removeActiveBreakableConstraintEPNS0_13ConstraintSimE
oOs:_X509Stores_Open_m3570436469
xet:_ChatClient_TryGetChannel_m2323677248
zKj:_UIPanel_ConstrainTargetToBounds_m80268627
EHc:__ZN9BlobWrite14ReduceCopyImplERK14ReduceCopyDataj
dyr:_CanvasFacebook_LogInWithPublishPermissions_m2878394461
u3:__ZN11AudioSource18IsPlayingScriptingEv
W1q:_Comparer_1_System_Collections_IComparer_Compare_m1790257529_gshared
Vmi:_NGUIMath_OverlayPosition_m3026696425
Kmd:__ZNK12b2WheelJoint10GetAnchorAEv
ore:__ZN5physx6shdfnd5ArrayINS_12PxActorShapeENS0_19ReflectionAllocatorIS2_EEE15growAndPushBackERKS2_
CYa:__ZN25MultiBlocksMemoryFileData17AdjustBlocksCountEj
uZt:__GLOBAL__sub_I_AppDomain_cpp
eQt:__ZNSt3__214__split_bufferIN6il2cpp2vm22EmbeddedResourceRecordERNS_9allocatorIS3_EEED2Ev
wVb:__ZNK11TimeManager26GetTypeInfoVirtualInternalEv
wpd:__ZN10ClipperLib14PointInPolygonERKNS_8IntPointEPNS_5OutPtE
fnn:_TlsClientHello__ctor_m1699671541
uml:_XmlSerializationWriter_WriteXmlAttribute_m2992618250
w8e:__ZN13TextRendering4Font8TransferI24GenerateTypeTreeTransferEEvRT_
Ask:_X509Certificate2_get_PublicKey_m2119837179
QS:__Z40Register_UnityEngine_Animation_CrossFadev
XMc:__Z27CullingGroup_CUSTOM_DisposeP12Il2CppObject
$jr:_Random_Range_m2884721203
U3a:__ZN13ComputeShader15SetTextureParamEjRKN9ShaderLab16FastPropertyNameE9TextureID16TextureDimension
e7m:_GUILayoutEntry_ApplyStyleSettings_m371609721
Xwi:_Convert_ToSByte_m2665932200
B3d:__ZN5physx2Sc14ConstraintCore8setFlagsENS_7PxFlagsINS_16PxConstraintFlag4EnumEtEE
Bo:_glStencilMask
G_t:__ZN6il2cpp2os10ThreadImpl16GetCurrentThreadEv
GRe:__ZNK5physx2Sc15ClothFabricCore20getNbParticleIndicesEv
eft:_WebSocket_SocketSend_m2715413356
Cob:__ZN15GUIEventManager10QueueEventERK10InputEvent
lJp:_Array_Resize_TisBoolean_t3825574718_m1095353749_gshared
sKl:_UIWidget_get_drawingDimensions_m1954568534
DMo:_PTPGameController__ctor_m343077761
avg:__ZL74SpriteState_t1353336012_CustomAttributesCacheGenerator_m_HighlightedSpriteP21CustomAttributesCache
hwr:_AccessToken_set_CurrentAccessToken_m569394949
sGj:_UIDragObject_OnEnable_m3977359386
_ik:_UIButtonScale_Start_m4275665961
hTp:_XmlAttribute_CloneNode_m1501462364
yWr:_XmlTextReader_ReadAttributeValue_m212400661
OPk:_UInt32_System_IConvertible_ToUInt16_m2798641702_AdjustorThunk
IKq:_BinaryFormatter_get_DefaultSurrogateSelector_m219714691
B4t:_GC_remove_from_fl_at
Xlf:_Compute_Point_Displacement
PYn:_MonoProperty_GetOptionalCustomModifiers_m3827844355
Idl:_XmlTypeMapElementInfo_get_DataTypeNamespace_m902408919
RRl:_UM_ScoreCollection__ctor_m1767834902
Zuk:_X509EnhancedKeyUsageExtension_get_EnhancedKeyUsages_m1809797100
gBq:_PaymentMethodsAdapter_GetNext_m635548967
dQd:__ZN5physx2Sc7BodySim6wakeUpEv
AVq:_InternalEnumerator_1_get_Current_m1550231132_gshared
gfi:_MarketExample_Dialog_RetrieveLocalReceipt_m1485933851
y2h:_Collection_1_System_Collections_IList_Insert_m580889797_gshared
t0t:__ZN6il2cpp2os13LibraryLoader18GetFunctionPointerEPvRK16PInvokeArguments
k_k:_ObscuredCheatingDetector_get_Instance_m1868210780
Aaq:_XsollaPaystation_RecieveUtils_m3629277792
Efm:_SimpleCollator_GetSortKey_m2188419329
Ime:__ZN5physx6shdfnd8PoolBaseINS_2Gu30LargePersistentContactManifoldENS0_19ReflectionAllocatorIS3_EEE17releaseEmptySlabsEv
AQd:__ZN5physx2Sc21ConstraintInteraction7destroyEv
d0e:__ZN14SphereCollider6CreateEPK9Rigidbody
Uvg:__ZL56LayoutElement_t2808691390_CustomAttributesCacheGeneratorP21CustomAttributesCache
mTc:__Z33Register_UnityEngine_Random_Rangev
Q7l:_U3CHideEffectU3Ec__Iterator1_MoveNext_m948314197
fqi:_ObscuredPrefsTest_OnApplicationQuit_m22755278
eBb:__ZN14RenderSettings27UpdateIndirectSpecularColorEv
B3r:_Action_1_Invoke_m336372839_gshared
xCl:_Dictionary_2_get_Item_m4062719145_gshared
LWb:__ZN14PlayerSettings8TransferI18StreamedBinaryReadILb0EEEEvRT_
I_l:_SetTournamentBall_get_url_m3390066492
zAt:__ZN6il2cpp6icalls8mscorlib6System8MonoType16GetMethodsByNameEP20Il2CppReflectionTypeP12Il2CppStringibS5_
lRb:__Z11SkinMeshCPUR12SkinMeshInfo
moe:__ZNK5physx7NpScene16getNbConstraintsEv
YBg:__ZL132GoogleProductTemplate_t1112616324_CustomAttributesCacheGenerator_GoogleProductTemplate_t1112616324____priceCurrencyCode_PropertyInfoP21CustomAttributesCache
F$m:_AnimatorControllerPlayable_PlayInFixedTimeInternal_m2767099167
jae:__ZN5physx7NpCloth14setWakeCounterEf
NGr:_Mask_IsRaycastLocationValid_m62488857
Hda:__ZN17DirectorFrameTime10SampleTimeEfff
p2e:__ZN5physx7profile11EventBufferINS_24PxDefaultContextProviderENS_6shdfnd6MutexTINS0_26WrapperReflectionAllocatorIhEEEENS0_14ScopedLockImplIS7_EENS_24PxProfileNullEventFilterEE17doAddProfileEventINS0_10StartEventEEEvtRKT_
K0q:_DefaultComparer_Compare_m3472472212_gshared
AAm:_MonoIO_GetLength_m2812344043
thf:_ps_hints_t2mask
Zsr:_TextEditor_MoveTextEnd_m158107192
ZQm:_AS_ShortDemo_LoginAttempted_m1238945132
PU:__Z110Register_UnityEngine_Experimental_Director_AnimatorControllerPlayable_INTERNAL_CALL_GetParametersArrayInternalv
Kqr:_SliderHandler_ThumbRect_m4193953892_AdjustorThunk
QYl:_WP8ADBanner_OnBannerAdFailedToLoad_m883457391
nJp:_Array_Resize_TisByte_t3683104436_m652814655_gshared
JPb:__ZN10BlendShape8TransferI19StreamedBinaryWriteILb0EEEEvRT_
_$m:_PlayableHandle_INTERNAL_CALL_IsValidInternal_m2792360706
hmr:_RectOffset_set_left_m620681523
hRk:__Z21il2cpp_codegen_sizeofP11Il2CppClass
jpa:__Z19GetTimeSinceStartupv
iGn:_HttpWebRequest_SendRequestHeaders_m97433431
Ggp:_ISN_SoomlaGrow_HandleOnTransactionComplete_m2110955889
k3i:_SecurityFrame_get_Assembly_m2816566490
PVn:_FieldInfo_GetPseudoCustomAttributes_m2500972355
x1i:_X509Certificate_GetEffectiveDateString_m644894317
BZs:_ScreenBaseConroller_1_GetTitleWithButton_m4041445184_gshared
Kmf:_TT_Load_Composite_Glyph
Zat:_NetFxCoreExtensions_CreateDelegate_m2492743074
SRb:__Z33MultiplyMatrixArrayWithBase4x4REFPK10Matrix4x4fS1_S1_PS_j
jli:_NetworkingPeer_FetchInstantiationData_m2412962154
A9t:__ZN6il2cpp6icalls8mscorlib6System9Threading5Mutex21ReleaseMutex_internalE12Il2CppIntPtr
usi:_Array_Sort_m2994254654
GSh:_List_1__ctor_m593058937_gshared
hTh:_List_1_Find_m1809770055_gshared
yPp:_Array_InternalArray__get_Item_TisLink_t2723257478_m2281261655_gshared
Q8a:__ZN29RenderNodeQueuePrepareContextC2Ev
qEp:_GP_TBM_Match_SetPreviousMatchData_m3805612192
F1:__ZN10SampleClipC2E18MemLabelIdentifier18ObjectCreationMode
Lgc:__ZN9ShaderLab20SerializedSubProgram16TextureParameter8TransferI24GenerateTypeTreeTransferEEvRT_
Psu:dynCall_viiiiiiiiiiiii
o9q:_Enumerator_System_Collections_IEnumerator_get_Current_m1416869405_gshared
XRl:_UM_ShareUtility_InstagramShare_m618593944
y9t:__ZN6il2cpp2os11MutexHandle4WaitEj
sGc:__ZL34GetComponentsImplementationRecurseILb1ELi1ELi1EEbR10GameObjectbRK17CompareParametersRK39GetComponentsImplementation_ReturnValue
Pom:_AppDomain_ValidateAssemblyName_m1517758367
x9t:__ZN6il2cpp2os11MutexHandle4WaitEv
hyi:_ArrayList_set_Capacity_m592558035
Uho:__Z105RuntimeInvoker_Boolean_t3825574718_Ray_t2469606224_Single_t2076509932_Int32_t2071877448_Int32_t2071877448PK10MethodInfoPvPS2_
Yya:__ZN6prcoreL17RemapGenericFloatI15TexFormatRGHalf18TexFormatARGBFloatEEvPKNS_9InnerInfoE
Pik:_UIButtonOffset_OnDisable_m2112066809
gZh:_Collection_1_IsFixedSize_m4018856446_gshared
R2a:__ZN13RenderManager23AddRemoveCamerasDelayedEv
o2a:_UNITY_png_write_pHYs
tvr:_Time_get_time_m2216684562
AFt:__ZNSt3__2plIcNS_11char_traitsIcEENS_9allocatorIcEEEENS_12basic_stringIT_T0_T1_EERKS9_PKS6_
KXh:_Collection_1_System_Collections_ICollection_CopyTo_m843252695_gshared
a5e:__ZNK5Unity5Joint16GetCurrentForcesER8Vector3fS2_
KDr:_GameroomFacebookGameObject_get_GameroomFacebookImpl_m559198501
H3j:_PickupItemSyncer_OnJoinedRoom_m356071831
vap:_IOSNotificationController_remove_OnNotificationScheduleResult_m3974995544
tCi:_Hashtable_Rehash_m2877670513
hKb:__ZN12LineRenderer13AwakeFromLoadE17AwakeFromLoadMode
rHs:_ReadOnlyCollection_1_System_Collections_IList_Insert_m571902768_gshared
Ygb:__ZN13RenderTexture8SetWidthEi
mCj:_InputField_Insert_m1593238693
ESj:_UIProgressBar_OnValidate_m1496579718
Mmf:_UNITY_FT_GlyphLoader_CheckSubGlyphs
Yab:__Z25SetupObjectBakedOcclusionbRK15SharedLightDataRK26SharedLightmapSettingsDataRK15LightmapIndicesR17ShaderPassContext
hDi:_SyncHashtable_GetObjectData_m3774367030
ncm:_GoogleAnalyticsClient_SetTCPConnectTime_m3720322978
v9k:_ObscuredULong_ToString_m1207980762_AdjustorThunk
wq:FUNCTION_TABLE_fiffifi
Btm:_Guid_GetHashCode_m1401300871
Ycl:_ClassMap__ctor_m4147146363
PNm:_AnOtherFeaturesPreview_OnPackageCheckResult_m3545054224
pni:_NGUIText_Align_m926950144
K2c:__Z42Register_UnityEngine_GUIStyle_set_fontSizev
oQp:_Array_InternalArray__get_Item_TisRaycastHit2D_t4063908774_m3592947655_gshared
i6d:__ZNK5physx9NpFactory11getNbShapesEv
Njp:_CustomTypes_SerializeVector3_m1981898615
XSp:_XmlDocument_onNodeRemoved_m1427813038
sB:__ZN8Animator9BuildJobsERK13dynamic_arrayIP14PlayableOutputLj4EERS0_INS_11AnimatorJobELj4EEPS7_bb
Lda:__ZN9ShaderLab16FastPropertyName4InitEPKc
_1m:_GUI_Label_m2412846501
tpc:__Z13RegisterClassIN2UI13RectTransformEEvv
ept:__ZN6il2cpp2vm5Class11GetPtrClassEP11Il2CppClass
xok:_WebConnection_GetCertificates_m3110585874
zp:FUNCTION_TABLE_iiiii
fbm:_GoogleAnalyticsClient_IPOverride_m2799593118
O$s:_Nullable_1_GetValueOrDefault_m337650842_gshared
N9k:_ObscuredUShort_SetEncrypted_m2539597959
D1j:_PhotonTransformView_UpdatePosition_m3981319558
_fi:_MNAndroidNative_HidePreloader_m435291662
fNb:__ZN10VertexData8TransferI17RemapPPtrTransferEEvRT_
Lqa:__ZN13RenderTexture9SetMipMapEb
xXn:_MonoField_GetCustomAttributes_m4168545977
fhu:__ZNKSt3__27num_getIwNS_19istreambuf_iteratorIwNS_11char_traitsIwEEEEE6do_getES4_S4_RNS_8ios_baseERjRb
Wba:__Z18GetDirectorManagerv
ohu:__ZNKSt3__27num_getIwNS_19istreambuf_iteratorIwNS_11char_traitsIwEEEEE6do_getES4_S4_RNS_8ios_baseERjRe
$Kn:_OperatingSystem_GetObjectData_m2276196875
bwb:__ZNK10TagManager26GetTypeInfoVirtualInternalEv
hhu:__ZNKSt3__27num_getIwNS_19istreambuf_iteratorIwNS_11char_traitsIwEEEEE6do_getES4_S4_RNS_8ios_baseERjRx
lhu:__ZNKSt3__27num_getIwNS_19istreambuf_iteratorIwNS_11char_traitsIwEEEEE6do_getES4_S4_RNS_8ios_baseERjRy
B4:__Z38AudioSource_Get_Custom_PropMaxDistanceP12Il2CppObject
qRo:_SavedGamesExample_Start_m594361659
TZb:__ZN21ArchiveStorageCreator13AppendRawNodeERKN4core12basic_stringIcNS0_20StringStorageDefaultIcEEEEN20ArchiveStorageHeader9NodeFlagsEyy
DWc:__Z38Transform_CUSTOM_INTERNAL_get_rotationP12Il2CppObjectP11Quaternionf
ihu:__ZNKSt3__27num_getIwNS_19istreambuf_iteratorIwNS_11char_traitsIwEEEEE6do_getES4_S4_RNS_8ios_baseERjRt
lNt:__ZNK15dense_hashtableINSt3__24pairIK10KeyWrapperIP11Il2CppClassES4_EES5_N6il2cpp8metadata16SZArrayClassHashEN14dense_hash_mapIS5_S4_SA_NS5_14EqualsComparerINS9_19SZArrayClassCompareEEENS0_9allocatorIS7_EEE9SelectKeyESE_SG_E3endEv
J5q:_Enumerator_get_CurrentKey_m3410494779_AdjustorThunk
sko:__Z94RuntimeInvoker_Boolean_t3825574718_Rect_t3681755626_SByte_t454417549_Il2CppObject_Il2CppObjectPK10MethodInfoPvPS2_
$5k:_ObscuredPrefs_DeleteKey_m1413731494
n$m:_AnimatorControllerPlayable_CrossFadeInFixedTime_m1082259778
kpl:_Enumerator_Dispose_m2346731688_AdjustorThunk
cg:__MNP_HidePreloader
wQa:__ZN7ApiGLES19UploadBufferSubDataEjN2gl12BufferTargetEllPKv
pye:__ZN5physx2Sc5Scene17createClothSolverEv
VPo:_RPGMovement_MoveCharacterController_m2326892953
ZAk:_String_System_IConvertible_ToInt32_m1927223638
wWi:_CryptographicException__ctor_m406825529
mL:__ZN7mecanim12statemachine20StateMachineConstant8TransferI14SafeBinaryReadEEvRT_
rhq:_ActRotatorExample_Update_m2837587529
Jfs:_Canvas_set_sortingOrder_m2922819993
YXr:_U3CGetEnumeratorU3Ec__Iterator0_Reset_m2961153050_gshared
dVc:__Z40SpriteRenderer_CUSTOM_INTERNAL_get_colorP12Il2CppObjectP10ColorRGBAf
efp:_ISN_MediaController_OnMediaPickerFailed_m3432040718
E9s:_Vector4_Equals_m3783731577_AdjustorThunk
pbt:_ValidationUtils_ArgumentNotNull_m1113617486
NDe:__ZN15MBP_PairManager17removeMarkedPairsEPK10MBP_ObjectPN5physx16PxsBroadPhaseMBPERK8BitArrayS8_
Gam:_GoogleAnalyticsClient_SendScreenHit_m2821413348
hEk:_ASCIIEncoding__ctor_m4127831672
O2b:__Z19TransferField_ArrayI14SafeBinaryRead27Converter_SimpleNativeClassI8GUIStyleEEvRK23StaticTransferFieldInfoR31RuntimeSerializationCommandInfoRT0_
Y_b:__ZN9TextAsset23VirtualRedirectTransferER19StreamedBinaryWriteILb0EE
czm:_MonoIO_GetCurrentDirectory_m1509324201
a8t:__ZN6il2cpp5utils10MemoryPoolC2Ej
Y7t:__ZN6il2cpp5utils10MemoryPoolC2Ev
GAb:__ZN14RenderSettings5ResetEv
H5d:__ZN5physx9NpPhysics33unregisterDeletionListenerObjectsERNS_18PxDeletionListenerEPKPKNS_6PxBaseEj
t$p:_XmlReader_System_IDisposable_Dispose_m1699080386
hce:__ZNK5physx2Sc9ClothCore22getAngularInertiaScaleEv
m4i:_Array_InternalArray__ICollection_Contains_TisKeyValuePair_2_t3709838751_m1004441181_gshared
NBq:_U3CSetQuickMethodsU3Ec__AnonStorey0_U3CU3Em__0_m2854806242
m2n:__Z117RuntimeInvoker_Int32_t2071877448_Il2CppObject_Il2CppObject_Int32_t2071877448_Int32_t2071877448_BooleanU26_t3168250738PK10MethodInfoPvPS2_
pZd:__ZN5physx20NpRigidActorTemplateINS_18PxArticulationLinkEE12setActorFlagENS_11PxActorFlag4EnumEb
_jj:_Array_qsort_TisByte_t3683104436_m3355607841_gshared
uNn:_CustomAttributeData_GetCustomAttributes_m2421330738
XPr:_DTDAttListDeclaration_Get_m2606960742
rNp:_Dictionary_2_Do_ICollectionCopyTo_TisKeyValuePair_2_t3716250094_m1740410536_gshared
Ewp:_GooglePlayConnection_disconnect_m3237200920
E2r:_PoolableReference_1_Set_m2549497750_gshared
Hlm:_RSAManaged_Dispose_m3018788098
mgq:_XsollaSummarySubscription_GetImgUrl_m1409499965
Ohd:__ZN14ParticleSystem18MarkAllSubEmittersEPS_
kQo:_RTM_Game_Example_OnPlayerDisconnected_m1143018105
Wlc:_unity_z_compressBound
fpb:__ZNK12TLSAllocatorI14StackAllocatorE22GetAllocatedMemorySizeEv
PA:__ZN7mecanim6memory16ChainedAllocator8AllocateEjj
yFc:__Z32GetSceneHierarchyPathDescriptivePK6Object
$2r:_Action_1_Invoke_m3968099324_gshared
rZa:__ZN12HandlerChain4NameEv
uhl:_XmlReflectionImporter_ImportListMapping_m1508001016
To:FUNCTION_TABLE_fiiiiiifiiiiiif
lVb:__ZNSt3__26vectorI9InputAxisNS_9allocatorIS1_EEE10deallocateEv
aNe:__ZN5physx37setupFinalizeSolverConstraintsCoulombERNS_13PxcNpWorkUnitERKNS_2Gu13ContactBufferERKNS_27PxcCorrelationBufferCoulombERKNS_11PxTransformESB_bPhRKNS_13PxcSolverBodyESF_RKNS_17PxcSolverBodyDataESI_ffjffff
fpk:_WebConnectionStream_ReadCallbackWrapper_m2960324003
Isf:__Z44Register_UnityEngine_CanvasRenderer_get_cullv
dgi:_MNAndroidRateUsPopUp_init_m2322401815
Nzf:__ZL60IHashCodeProvider_t1980576455_CustomAttributesCacheGeneratorP21CustomAttributesCache
Ppc:__ZN13ProduceHelperI13MonoBehaviourLb0EE7ProduceE18MemLabelIdentifier18ObjectCreationMode
fPo:_Room_SetCustomProperties_m1962491348
Twh:_Enumerator_VerifyState_m1677639504_AdjustorThunk
oyp:_GooglePlayManager_add_ActionAchievementsLoaded_m3430582956
ENt:__ZNSt3__214__split_bufferIN6il2cpp8metadata18GenericArrayMethodERNS_9allocatorIS3_EEEC2EjjS6_
eFq:_SerializationInfo_GetEnumerator_m2402005737
pmn:_CipherSuiteCollection_get_Item_m280627160
u1b:__Z44InitializeTransferFunctionScriptingTraitsForI17RemapPPtrTransferEvR31TransferFunctionScriptingTraits
gFq:_SerializationInfoEnumerator_MoveNext_m1876990879
$Lk:_TimeSpan_Duration_m4205681645
Akb:__ZN14UnityWebStream24UpdateAllUnityWebStreamsEv
_jk:_GetTouchCallback_Invoke_m72737544
u4i:_Array_InternalArray__ICollection_Contains_TisKeyValuePair_2_t614362368_m544422042_gshared
HLl:_UltimateMobileSettings_GetProductById_m57665563
Jfi:_MNAndroidDialog_Create_m1401942602
lyf:__ZL60ObsoleteAttribute_t3878847927_CustomAttributesCacheGeneratorP21CustomAttributesCache
rbd:__Z19UpdateProceduralTplIL27ParticleSystemCurveEvalMode4EEvRK20DualMinMaxPolyCurvesR23ParticleSystemParticlesPfRKN4math7_float4E
rjl:_XmlSerializationReader_AddTarget_m2198124619
jyk:_CostDelegate_BeginInvoke_m1628968398
vgj:_Array_InternalArray__ICollection_CopyTo_TisRaycastHit2D_t4063908774_m3837098618_gshared
NWn:_MonoMethodInfo_GetAttributes_m2535493430
PBc:__ZN7tinyexr11CompressPizEPhRjPKhjRKNSt3__26vectorINS_11ChannelInfoENS4_9allocatorIS6_EEEEii
OCe:__ZN5physx31ComputeCreatedDeletedPairsListsEPKjS1_jRPNS_17PxcBroadPhasePairERjS5_S4_S5_S5_RNS_14SapPairManagerE
kBa:__ZN18LoadSceneOperation21MustCompleteNextFrameEv
s_:__ZNK12AudioManager16GetAudioListenerEv
H3g:__ZL57OnClickDestroy_t3163187831_CustomAttributesCacheGeneratorP21CustomAttributesCache
nAn:_CookieCollection_Add_m1645185609
lVf:__ZL48Camera_t189460977_CustomAttributesCacheGeneratorP21CustomAttributesCache
uWk:_BillingExample_FixedUpdate_m1183626735
sgb:__ZNSt3__26vectorI11CameraStackNS_9allocatorIS1_EEE8__appendEj
Nnd:__ZNK11Rigidbody2D20GetAttachedCollidersER13dynamic_arrayIP10Collider2DLj4EE
QHe:__ZN5physx2Gu16pcmContactBoxBoxERKNS0_13GeometryUnionES3_RKNS_11PxTransformES6_RKfRNS0_5CacheERNS0_13ContactBufferE
vBj:_InputField_OnDisable_m1865339380
LPk:_UInt32_System_IConvertible_ToType_m747769316
JG:__ZN7mecanim9animation12GetHumanPoseERKNS0_18ClipMuscleConstantEPKNS0_10ValueDeltaERNS_5human9HumanPoseE
jBq:_U3CGetViewU3Ec__AnonStorey0_U3CU3Em__0_m801230323
Kcn:_Material_get_color_m668215843
cap:_IOSNativeUtility_Awake_m4052820406
$xu:_glDeleteVertexArrays__wrapper
yxo:__Z83RuntimeInvoker_Void_t1841601450_Vector3_t2243707580_Single_t2076509932_Il2CppObjectPK10MethodInfoPvPS2_
H9:__Z13GetFileSystemv
LDl:_Dictionary_2_TryGetValue_m2001075715_gshared
fwc:__ZZL23RegisterLightPropertiesR22GenericPropertyBindingEN29Wrapper_LightColorTemperature13SetFloatValueEPvf
bMo:_PropertyReference_Set_m1123958567
bka:__ZNK5Unity4Type21FindAllDerivedClassesER13dynamic_arrayIPKS0_Lj4EENS0_17TypeFilterOptionsE
Wka:__ZN13RuntimeStaticI15GUIEventManagerLb0EE16StaticInitializeEPv
tfi:_Maths_vec_unit_m3897516052
WSb:__ZN14SafeBinaryRead8TransferIfEEvRT_PKc17TransferMetaFlags
Rpp:_DefaultPreviewButton_Select_m2512533852
zsd:__ZNSt3__27__sort5IR24RayHitsByDepthComparitorP12RaycastHit2DEEjT0_S5_S5_S5_S5_T_
W3q:_Enumerator_Reset_m2840355764_gshared
r5i:_Array_InternalArray__ICollection_Contains_TisUILineInfo_t3621277874_m1175659630_gshared
p$r:_BetterList_1_Add_m144175334_gshared
mLk:_WaitHandle_WaitOne_m370363697
kwk:_FactoryCache_Lookup_m1681894361
Dfm:_SortKeyBuffer_Initialize_m588272701
SBn:_Dns_GetHostAddresses_m1469938777
O7i:_Enumerable_OfType_TisIl2CppObject_m32700024_gshared
DSb:__ZThn32_N14SpriteRenderer15AddAsRenderNodeER15RenderNodeQueueRK20DeprecatedSourceData
mnc:__Z7OpenURLRKN4core12basic_stringIcNS_20StringStorageDefaultIcEEEE
nWo:_Protocol_Serialize_m121794613
iUe:__ZN5physx2Gu5RTree15exportExtraDataERNS_22PxSerializationContextE
iI:__ZN7mecanim12statemachine24CreateStateMachineOutputEPKNS0_20StateMachineConstantEjRNS_6memory9AllocatorE
lqp:_DemoOwnershipGui_OnOwnershipRequest_m1808544011
f4a:__ZN19ShaderPropertySheet9SetMatrixEN9ShaderLab16FastPropertyNameERK10Matrix4x4fNS_8SetFlagsE
ZZi:_RIPEMD160Managed_Initialize_m3365407578
qUj:_UISoundVolume_Awake_m2350582361
SDb:__Z29GetTextureSizeAllowedMultiple13TextureFormat
EBn:_IPAddress_HostToNetworkOrder_m1092199707
yxe:__ZNK5physx2Sq10AABBPruner7overlapERKNS0_9ShapeDataERNS0_14PrunerCallbackE
$2h:_Collection_1_IsSynchronized_m3592359027_gshared
D7i:_SetPropertyUtility_SetStruct_TisSpriteState_t1353336012_m2898060836_gshared
pcn:_Logger__ctor_m3834134587
sJc:__Z54Register_UnityEngine_Application_SetLogCallbackDefinedv
SVi:_SecurityAttribute__ctor_m3425755778
u3o:_InitAndroidInventoryTask_OnRetrieveProductsFinised_m2687848682
Txc:__ZN21IntermediateRenderers3AddEP20IntermediateRenderer
$bq:_XsollaPaystationController_U3CInitMenuU3Em__1_m2963785364
WOc:__Z46Register_UnityEngine_Gizmos_INTERNAL_set_colorv
Jme:__ZN5physx6shdfnd5ArrayIPvNS0_19ReflectionAllocatorINS_2Gu30LargePersistentContactManifoldEEEE4copyINS0_15InlineAllocatorILj256ES6_EEEEvRKNS1_IS2_T_EE
pij:_Array_InternalArray__set_Item_TisState_t3649530779_m3636385620_gshared
oVj:_MonoBehaviour_get_photonView_m1004494523
zVj:_PhotonView_get_isMine_m2092251276
Vh:_glCheckFramebufferStatus
gaj:_Array_compare_TisInt32_t2071877448_m840310202_gshared
pii:_NamePickGui_StartChat_m3232128518
lsr:_SystemInfo_get_supportsAccelerometer_m3124384812
d$q:_InternalEnumerator_1_System_Collections_IEnumerator_get_Current_m442726479_AdjustorThunk
bXi:_DESTransform_ECB_m2629024873
bZq:_InternalEnumerator_1_System_Collections_IEnumerator_get_Current_m790514740_AdjustorThunk
APe:__ZN5physx2Cm12DelegateTaskINS_2Sc5SceneEXadL_ZNS3_19updateCCDSinglePassEPNS_10PxBaseTaskEEEE11runInternalEv
qnl:_XmlSerializer_Serialize_m2980868817
OKd:__ZN5physx6string9sprintf_sEPcjPKcz
Py:__ZNSt3__26vectorI24CompressedAnimationCurve13stl_allocatorIS1_L18MemLabelIdentifier25ELi16EEE6resizeEj
cXe:__ZThn8_N5physx19TriangleMeshBuilderD1Ev
YDk:__Z37il2cpp_codegen_get_executing_assemblyPK10MethodInfo
Bqo:__Z133RuntimeInvoker_Void_t1841601450_Il2CppObject_Il2CppObject_Il2CppObject_Il2CppObject_Single_t2076509932_Int32_t2071877448_Il2CppObjectPK10MethodInfoPvPS2_
lds:_AudioSource_set_spread_m1707451775
TDd:__ZN5physx2Gu16intersectRayAABBERKNS_6PxVec3ES3_S3_S3_RfS4_
Qet:_ChatClient_AuthenticateOnFrontEnd_m1045545160
aG:__ZN21AnimationClipPlayable7SetTimeEd
t0k:_ObscuredByte_ToString_m441016017_AdjustorThunk
Loq:_AN_SoomlaGrow_CheckState_m1785118658
wRm:_AssetBundleManager_set_AssetBundleManifestObject_m691390955
EZi:_RijndaelManaged_CreateDecryptor_m3253408643
Ecs:_AudioSource_get_pitch_m4220572439
ybj:_Array_InternalArray__IndexOf_TisByte_t3683104436_m3605266236_gshared
ban:_GUIStyle_set_richText_m1853532836
LSp:_XmlNode_CheckNodeInsertion_m3528404273
Svc:__ZZL23RegisterLightPropertiesR22GenericPropertyBindingEN22Wrapper_LightIntensity13GetFloatValueEPv
u5:__Z48Register_UnityEngine_AudioSource_get_rolloffModev
QIr:_RaycastAllCallback_Invoke_m981876639
aEk:_UnicodeEncoding__ctor_m72484327
iNe:__ZN5physx30setupFinalizeSolverConstraintsERNS_13PxcNpWorkUnitERKNS_2Gu13ContactBufferERKNS_20PxcCorrelationBufferERKNS_11PxTransformESB_bPhRKNS_13PxcSolverBodyESF_RKNS_17PxcSolverBodyDataESI_ffffff
HSt:__ZN14dense_hash_mapI10KeyWrapperIP14Il2CppIUnknownEjN6il2cpp5utils11PointerHashIS1_EENS3_14EqualsComparerINSt3__28equal_toIS2_EEEENS9_9allocatorINS9_4pairIKS3_jEEEEE15set_deleted_keyERSF_
Gka:__ZN22BuiltinResourceManager16StaticInitializeEPv
BAc:__ZN19SpriteMeshGenerator12path_segment12max_distanceENSt3__26vectorINS_6vertexENS1_9allocatorIS3_EEEEii
Xsj:_ColorBlock_op_Inequality_m1517672458
AA:__ZN7mecanim4hand8HandPose8TransferI19StreamedBinaryWriteILb0EEEEvRT_
DIn:_ChainValidationHelper_ValidateChain_m2891897375
v2d:__ZN5physx7NpScene17releaseBatchQueryEPNS_12PxBatchQueryE
CAn:_CookieContainer_GetCookies_m781592810
BMe:__ZN5physx26solveVBlockDefaultFrictionEPNS_13PxsSolverCoreEfjjPNS_13PxcSolverBodyEPNS_17PxcSolverBodyDataEjjPNS_25PxcArticulationSolverDescEjPNS_23PxcSolverConstraintDescEjS9_jRNS_6shdfnd5ArrayINS_24PxsConstraintBatchHeaderENSA_19ReflectionAllocatorISC_EEEESG_PNS_2Cm13SpatialVectorEPNS_25PxcThresholdStreamElementEjRj
kon:_ClientSessionInfo_SetContext_m2649357891
svm:_Int32_System_IConvertible_ToInt64_m3790029067_AdjustorThunk
ood:__ZN13BoxCollider2D13PrepareShapesER13dynamic_arrayIP7b2ShapeLj4EERK10Matrix4x4f
ix:__ZN14AnimationEvent8TransferI14SafeBinaryReadEEvRT_
nmj:_RaycasterManager_GetRaycasters_m1154876874
xtn:_SslStreamBase_InternalReadCallback_m2524917586
Eja:__ZN8Remapper6RemoveEi
exq:_AllPaymentsController_U3CSetCountriesU3Em__0_m2180262506
yIh:_List_1_CheckCollection_m2608305187_gshared
JBe:__ZN5physx11writeBack1DERKNS_23PxcSolverConstraintDescERNS_16PxcSolverContextERNS_17PxcSolverBodyDataES6_
_af:__ZL36CleanupTextRenderingScriptingClassesv
Lcs:_AudioSource_Play_m353744792
tzd:__ZThn4_N16RayRTreeCallbackILi0ELb0EED0Ev
Ugb:__ZN15ReflectionProbe17UseRendererResultEP13ProbeRenderer
asi:_Array_BinarySearch_m3270245097
BRc:__Z34Mesh_CUSTOM_SetArrayForChannelImplP12Il2CppObject30InternalScriptingShaderChannel34InternalScriptingVertexChannelTypeiP11Il2CppArrayi
BYj:_PhotonAnimatorView_SetLayerSynchronized_m1993865174
Bzm:_MonoIO_DeleteFile_m3273821223
Mgm:_BigInteger_GenerateRandom_m2507308768
sLi:_DateTime_System_IConvertible_ToDouble_m1431748426_AdjustorThunk
EXl:_WithFriends_LoadFilteredFriends_m3604095108
B5o:_IOSAdMobController_DestroyBanner_m2392397676
MDo:__Z76RuntimeInvoker_Void_t1841601450_Int32_t2071877448_ContactPoint2D_t3659330976PK10MethodInfoPvPS2_
hPl:_UM_GameServiceManager_IOS_HandleOnScoreSubmitted_m1173327035
Fhq:_AddressBookController_parseContacts_m2761720228
V4i:_Array_InternalArray__ICollection_Contains_TisUInt16_t986882611_m510319131_gshared
KPi:_Decimal_ToString_m541380585
bQo:_RTM_Game_Example_ShowWatingRoom_m3714602648
$Uo:_DictionaryEntryEnumerator_System_Collections_IEnumerator_get_Current_m190430316
QUr:_XmlTextReader_ReadProcessingInstruction_m1897597429
XQc:__Z37Quaternion_CUSTOM_INTERNAL_CALL_SlerpRK11QuaternionfS1_fRS_
fFt:__ZN6il2cpp2vm4Type7GetTypeEPK10Il2CppType
bP:__ZN11UnityEngine9Animation28GenericAnimationBindingCache25RegisterIAnimationBindingEPKN5Unity4TypeEiP17IAnimationBinding
GNp:_Dictionary_2_Do_ICollectionCopyTo_TisKeyValuePair_2_t488203048_m2668228264_gshared
Ssu:dynCall_iiiiiiiiiii
Ewe:__ZN5physx2Gu17GetGeomSweepFuncsEv
DU:__Z106Register_UnityEngine_Experimental_Director_AnimatorControllerPlayable_INTERNAL_CALL_GetLayerWeightInternalv
sSd:__ZN5physx6shdfnd8PoolBaseINS_15PxsArticulationENS0_16AlignedAllocatorILj64ENS0_9AllocatorEEEE17releaseEmptySlabsEv
bTi:_Enum_ToObject_m2601523252
jQi:_Delegate_CreateDelegate_m1706525923
ymu:__ZNKSt3__25ctypeIwE10do_tolowerEPwPKw
eBp:_GooglePlayQuests_OnGPQuestUpdated_m2219706600
mfb:__Z40ProcessCameraIndexListIsNodeVisibleInOutRK22SceneCullingParametersPK9SceneNodePK4AABBR9IndexList
q8p:_XsollaPaymentImpl_OnStatusReceived_m2564800759
azb:__ZN16GraphicsSettings8TransferI17RemapPPtrTransferEEvRT_
ZCm:_StreamReader__ctor_m2654332332
eqf:__ZN2UI6Canvas13UpdateBatchesEb
_od:__ZN17PolygonCollider2D15TransformPointsERK13dynamic_arrayI8Vector2fLj4EERK10Matrix4x4fRKS1_fP6b2Vec2
B7k:_ObscuredShort_op_Increment_m1579780720
pJj:_UIFont_References_m2203481619
_Wr:_DTDReader_ReadName_m3281724576
R4:__Z46Register_UnityEngine_AudioSource_PlayScheduledv
CNq:_InternalEnumerator_1_get_Current_m48002065_gshared
o7d:__ZN5physx2Gu5Debug9visualizeERKNS_13PxBoxGeometryERNS_2Cm12RenderOutputERKNS5_8Matrix34ERKNS_9PxBounds3Eyfj
_Yj:_PhotonHandler_Awake_m1819068426
ZGk:_StringBuilder_ToString_m617673931
nat:_WWW__ctor_m1920487719
vHm:_MonoType_GetEvents_m505925844
Qxd:__ZN5physx6shdfnd5ArrayIPKvNS0_19ReflectionAllocatorIS3_EEE6resizeEjRKS3_
vJa:__ZN9GfxDevice18AllocRenderSurfaceEb
Wvp:_GoogleMobileAd_get_IsInterstitialReady_m2757199201
oNe:__ZN5physx31setupFinalizeSolverConstraints4EPNS_21PxcSolverContact4DescERNS_18PxcNpThreadContextEPhffRKNS_6shdfnd3aos5Vec4VES9_S9_S9_
Xoe:__ZN5physx7NpScene5flushEb
vnc:__ZN10TagManager32GetSortingLayerUniqueIDFromValueEi
_Xn:_MonoMethod_IsDefined_m2322670981
pvj:_Dropdown_Show_m324374589
Bca:__ZL27CleanupCoreScriptingClassesv
dck:_TournamentChart_CreateUser_m4203653418
Pxn:_DeflateStream_EndWrite_m644759061
Rqp:_DragMask_OnDrag_m1609145418
xyd:__ZN5physx2Gu13GeometryUnion3setERKNS_10PxGeometryE
F0p:_XmlTextReader_get_Current_m3589084287
Goj:_RaycastResult_get_isValid_m2482925612
gRc:__Z26AnimationCurve_CUSTOM_InitP12Il2CppObjectP11Il2CppArray
vAu:_glUniform1uiv__wrapper
$jd:__ZNK14b2PolygonShape5CloneEP16b2BlockAllocator
cKt:__ZN6il2cpp2vm10Reflection7IsEventEP12Il2CppObject
lga:__ZN17PersistentManager26GetStreamNameSpaceInternalEi
rQl:_UM_Leaderboard_GetScoresList_m678755571
QJj:_UIFont_AddSymbol_m3472955699
_V:__ZN4FMOD6System11createSoundEPKcjP22FMOD_CREATESOUNDEXINFOPPNS_5SoundE
Dgs:_CanvasRenderer_get_cull_m3577089379
er:FUNCTION_TABLE_iiifiiii
DOs:_EqualityComparer_1__cctor_m307105002_gshared
EIm:_AndroidImagePickResult__ctor_m2722885745
Z9s:_WaitForSecondsRealtime__ctor_m1734539010
g8l:_Parser_ParseNumber_m3303773647
Z1e:__ZThn128_N5physx7profile8ZoneImplINS_28PxProfileNameProviderForwardEED1Ev
Fea:__ZN9ShaderLab19CommonPropertyNames13StaticCleanupEPv
ods:_AudioSource_get_minDistance_m2734754178
tha:__Z31scripting_method_get_returntype18ScriptingMethodPtr
UKr:_ScrollRect_UpdateBounds_m3266596336
Uxe:__ZN5physx2Sq17AABBTreeUpdateMap10invalidateEjjRNS0_8AABBTreeE
HJb:__ZN15SerializeTraitsI12LightmapDataE8TransferI24GenerateTypeTreeTransferEEvRS0_RT_
DMe:__ZN5physx28solveParallelDefaultFrictionERNS_18PxsDynamicsContextEjjPNS_13PxcSolverBodyEPNS_17PxcSolverBodyDataEjjPNS_25PxcArticulationSolverDescEjPNS_23PxcSolverConstraintDescEjS9_jPiSA_SA_SA_SA_SA_PNS_25PxcThresholdStreamElementEjSA_PNS_2Cm13SpatialVectorEPKPNS_11PxsBodyCoreERNSD_10BitMapBaseINS_6shdfnd9AllocatorEEEPKPNS_15PxsArticulationEjPViRNSL_5ArrayINS_24PxsConstraintBatchHeaderENSL_19ReflectionAllocatorISW_EEEES10_RNSV_IjNSX_IjEEEES13_PPNS_12PxsRigidBodyEj
Bwu:_glStencilOpSeparate__wrapper
hBc:__ZN4Mesh5SetUvEiPKfjj
NBa:__ZN7Texture13SetAnisoLimitENS_20AnisotropicFilteringE
cCa:__ZN28LightProbeProxyVolumeManager25UpdateSHCoeffsTextureDataER21LightProbeProxyVolume
tXa:__Z18CreateDecompressor15CompressionType18MemLabelIdentifier
F2:__ZN11AudioModule16SetListenerPauseEb
Nvs:_ChannelData_CopyFrom_m4049054607
Fnr:_Renderer_set_sortingOrder_m809829562
Nj:_emscripten_glCompressedTexSubImage2D
MRa:__ZN13GfxDeviceGLES22MemoryBarrierImmediateEyN2gl17MemoryBarrierTypeE
hHn:_IPEndPoint_GetHashCode_m4274464705
Nn:_abort
sRt:__ZN6il2cpp6icalls8mscorlib6System4Type18internal_from_nameEP12Il2CppStringbb
lza:__ZN6prcoreL26RemapGenericFloatToIntegerI18TexFormatARGBFloat17TexFormatARGB8888EEvPKNS_9InnerInfoE
c2t:__ZN6il2cpp6icalls8mscorlib6System10Reflection9MonoField16GetValueInternalEP21Il2CppReflectionFieldP12Il2CppObject
gYl:_WorkerMenu__cctor_m4287693745
Tkf:_cff_ps_has_glyph_names
AVs:_InvokableCall_1__ctor_m2837611051_gshared
hXe:__ZN5physx15writeWordBufferEPKtjbRNS_14PxOutputStreamE
Kaj:_Array_FindLastIndex_TisIl2CppObject_m869210470_gshared
Z1q:_Comparer_1__cctor_m3801958574_gshared
czk:_PatternCompiler_EmitPosition_m3013268572
pvk:_X509SubjectKeyIdentifierExtension__ctor_m1109455121
sfi:_Maths_vec_cross_m1518765663
Kmc:__Z13tessTesselateP14TESStesselatoriiiiPKf
t7h:_Collection_1_SetItem_m2707773254_gshared
Bxj:_Graphic_CreateColorFromAlpha_m2614574534
nPc:__Z40LineRenderer_Set_Custom_PropNumPositionsP12Il2CppObjecti
W2c:__Z44Register_UnityEngine_GUIStyle_SetDefaultFontv
fAc:__ZN19SpriteMeshGenerator9MakeShapeEP11ColorRGBA32iifhbjfi
m9b:__Z18Transfer_BlittableI18StreamedBinaryReadILb1EELb1EiEvRK29SerializationCommandArgumentsR31RuntimeSerializationCommandInfo
dC:__ZN9BlobWrite8TransferI22OffsetPtrArrayTransferIKN4math7_float3EEEEvRT_PKc17TransferMetaFlags
b1i:_TripleDES_IsWeakKey_m483013953
TIt:__ZN15dense_hashtableINSt3__24pairIK10KeyWrapperINS1_IPK12PropertyInfoP11Il2CppClassEEEjEES9_17ReflectionMapHashIS8_EN14dense_hash_mapIS9_jSD_NS9_14EqualsComparerINS0_8equal_toIS8_EEEENS0_9allocatorISB_EEE9SelectKeyESI_SK_E12maybe_shrinkEv
oOj:_UILabel_GetWordAtPosition_m103751009
fQd:__ZN5physx2Sc7BodySim37checkSleepReadinessBesidesWakeCounterEv
hii:_MyRotation_Awake_m3235412408
nUo:_JSONClass_GetKeys_m368393491
E9b:__Z18Transfer_BlittableI18StreamedBinaryReadILb1EELb1EsEvRK29SerializationCommandArgumentsR31RuntimeSerializationCommandInfo
EDr:_GameroomFacebook_OnPayComplete_m444799834
$Wp:_XmlDocumentType_get_InternalSubset_m2242322466
awa:__Z35UnityPropertySheet_MakeSortedColorsRKNSt3__23mapIN9ShaderLab16FastPropertyNameE10ColorRGBAfNS_4lessIS2_EENS_9allocatorINS_4pairIKS2_S3_EEEEEER10vector_mapIS2_S3_S5_NS6_INS7_IS2_S3_EEEEE
wI:__ZN26AnimatorControllerPlayable17IsMultithreadableEv
eGh:_List_1_FindAllStackBits_m1687626136_gshared
OJj:_UIFont_GetSymbol_m4243773895
$zk:_Single_System_IConvertible_ToSByte_m3757385387
DUj:_UISprite_MakePixelPerfect_m3714401031
Tsu:dynCall_iiiiiiiffiiiiiiiiiffffiiii
K4t:_GC_start_reclaim
OAm:_StreamAsyncResult_SetComplete_m2141125667
SBa:__ZL21SetAnisoLimitEnumImplN7Texture20AnisotropicFilteringEb
ONj:_UILabel_get_worldCorners_m3311280082
qvb:__ZN15SerializeTraitsINSt3__24pairIiN19AssetBundleManifest15AssetBundleInfoEEEE8TransferI14SafeBinaryReadEEvRS4_RT_
fme:__ZN5physx2Sc10NPhaseCore24createTriggerInteractionERNS0_8ShapeSimES3_NS_7PxFlagsINS_10PxPairFlag4EnumEtEE
wHb:_start_pass_dpost
xkc:_emit_sof
Kyb:__ZN14GrowableBufferD2Ev
Zro:__Z63RuntimeInvoker_Bounds_t3033363703_Il2CppObject_SByte_t454417549PK10MethodInfoPvPS2_
cQc:__Z29Input_CUSTOM_GetMouseButtonUpi
wAd:__ZN5physx2Gu12selectNormalEhff
ZAt:__ZN6il2cpp6icalls8mscorlib6System8MonoType16InternalGetEventEP20Il2CppReflectionTypeP12Il2CppStringi
yir:_Physics2D_OverlapPoint_m1804985948
Bjr:_Quaternion_INTERNAL_CALL_Internal_ToEulerRad_m1077217777
Ljp:_CustomPlayerUIRow_Disable_m2834159693
Cef:_UNITY_tt_face_load_maxp
Y$c:__Z39Register_UnityEngine_Event_Internal_Usev
pQc:__Z46Input_CUSTOM_INTERNAL_set_compositionCursorPosRK13Vector2fIcall
yD:__ZN7mecanim5human12FullBodyMaskEv
ufe:__ZN5physx3Scb14ParticleSystem16releaseParticlesEjRKNS_16PxStrideIteratorIKjEE
ilt:__ZL25UnresolvedVirtualCall_170P12Il2CppObjectfPK10MethodInfo
qdm:_GoogleCloudResult__ctor_m2750223022
beq:_XsollaSDK_CreatePaymentForm_m4267915901
eea:__ZN19ShaderPropertySheet11ComputeHashEv
Oqr:_SliderHandler_MousePosition_m4110511062_AdjustorThunk
fse:__ZN5physx2Sc5Scene21processLostTouchPairsEv
Ckd:__ZN12b2EPCollider24ComputePolygonSeparationEv
Leo:__Z50RuntimeInvoker_Ray_t2469606224_Vector3_t2243707580PK10MethodInfoPvPS2_
lNl:_UM_Camera_add_OnImagePicked_m1517601519
HTj:_UIScrollView_get_shouldMoveVertically_m902529449
Jk:_llvm_fabs_f32
bsj:_CanvasScaler_HandleScaleWithScreenSize_m80056230
OVo:_Protocol_Serialize_m1727463231
YAn:_DigestSession_get_CNonce_m3370172786
wGe:__ZN5physx22PxcContactConvexConvexERKNS_2Gu13GeometryUnionES3_RKNS_11PxTransformES6_RKfRNS_10PxcNpCacheERNS0_13ContactBufferE
kIk:_UTF7Encoding_InternalGetBytes_m2772055844
K4s:_Locale_GetText_m512920887
Ozd:__ZNK5physx2Gu11ConvexHullV12HillClimbingERKNS_6shdfnd3aos5Vec3VE
RLj:_UIInput_Update_m2730349724
P$c:__Z40Register_UnityEngine_Event_set_modifiersv
NWo:_Protocol_Serialize_m2684343985
aPp:_Array_InternalArray__get_Item_TisGP_TBM_MatchTurnStatus_t2221730550_m1165309754_gshared
DPi:_Decimal_CompareTo_m2454501434_AdjustorThunk
Aga:__ZN14SafeBinaryReadD2Ev
u5r:_Action_2_BeginInvoke_m963341251_gshared
ife:__ZN5physx2Sc18ParticleSystemCore10setDampingEf
mpc:__Z13RegisterClassI7TextureEvv
Ais:_Color_get_magenta_m3193089961
$Po:_RTM_Game_Example_OnPlayerConnected_m3630385575
Lac:__ZN8Gradient8TransferI18StreamedBinaryReadILb1EEEEvRT_
qql:_Enumerator_Dispose_m2369319718_AdjustorThunk
cxq:_PaymentListScreenController_ChangeCountry_m1346270852
RMd:__ZN5physx2Sc10NPhaseCore16deleteFilterPairEPNS0_10FilterPairE
G2c:__Z45Register_UnityEngine_GUIStyle_SetFontInternalv
ird:__ZN19CollisionListener2DD0Ev
Efj:_Array_InternalArray__ICollection_CopyTo_TisKeyValuePair_2_t614362368_m641391626_gshared
vqr:_SliderHandler_OnMouseDrag_m1069947484_AdjustorThunk
NZr:_BetterList_1_Insert_m1837921064_gshared
RJh:_List_1_set_Item_m3717668114_gshared
C3e:_PxCreateBasePhysics
KAh:_List_1_FindAllList_m655670879_gshared
jl:_SDL_PauseAudio
S$c:__Z40Register_UnityEngine_Event_set_characterv
X4t:_GC_clear_mark_bit
wJr:_Scrollbar_UpdateDrag_m3839695926
y7m:_GUILayoutUtility__cctor_m2957755459
$Lc:__Z48Register_UnityEngine_Camera_set_orthographicSizev
RQd:__ZN5physx2Sc5Scene28addActiveBreakableConstraintEPNS0_13ConstraintSimE
Eea:__ZN9ShaderLab19CommonPropertyNames16StaticInitializeEPv
XLe:__ZN5physx2Cm12DelegateTaskINS_2Sc5SceneEXadL_ZNS3_13postIslandGenEPNS_10PxBaseTaskEEEE11runInternalEv
yGa:__ZN17ShaderPassContext8CopyFromERKS_
F3o:_InputToEvent_Update_m2362411815
huq:_WP8Dialog_OnCancelDel_m260702740
KJ:__ZN7mecanim9animation18CreateAvatarOutputEPKNS0_14AvatarConstantEbbRNS_6memory9AllocatorE
PDo:__Z69RuntimeInvoker_Void_t1841601450_Int32_t2071877448_Particle_t250075699PK10MethodInfoPvPS2_
t2e:__ZN5physx7profile11EventBufferINS_24PxDefaultContextProviderENS_6shdfnd6MutexTINS0_26WrapperReflectionAllocatorIhEEEENS0_14ScopedLockImplIS7_EENS_24PxProfileNullEventFilterEE10eventValueEtyx
h3c:__Z45GUIUtility_CUSTOM_Internal_GetKeyboardControlv
Psi:_Array_ConstrainedCopy_m1922927602
h2j:_PhotonView_OnDestroy_m768494787
K$:__ZN11AudioSource23VirtualRedirectTransferER24GenerateTypeTreeTransfer
ZMm:_Parser_ParseValue_m3778379292
PDd:__ZN5physx2Gu11getBoxEdgesEv
R0p:_XmlTextReader_get_NodeType_m328447747
c3p:_XsollaPaymentImpl_WaitForRequest_m3867928665
INb:__ZN14Texture2DArray23VirtualRedirectTransferER14SafeBinaryRead
pab:__ZNK6Camera21CalculateCanDoShadowsEv
Zxs:_SynchronizationAttribute__ctor_m1709985936
Fqe:__ZNK5physx2Sc5Scene17getBroadPhaseCapsERNS_16PxBroadPhaseCapsE
P6m:_GUILayout_Window_m478317676
D0d:__ZN5physx9NpFactory14onActorReleaseEPNS_7PxActorE
Jxj:_Graphic__cctor_m1643894470
P7i:_Enumerable_Repeat_TisIl2CppObject_m1602672130_gshared
L0t:__ZN6il2cpp2os6Thread12SetStackSizeEj
P_o:_PhotonPeer_SendAcksOnly_m2937989668
Vsk:_X509ChainElementEnumerator_get_Current_m2232618221
Hmk:_Socket_Connect_internal_real_m2445886600
TSd:__ZN5physx2Sc5Actor15onElementAttachERNS0_7ElementE
pZb:__ZNK20ArchiveStorageReader15HasStreamBlocksEv
Tdj:_Array_InternalArray__ICollection_Add_TisKeyValuePair_2_t3132015601_m3982646904_gshared
mCc:__ZNK8Renderer16IsVisibleInSceneEv
c7i:_Array_InternalArray__ICollection_Remove_TisValidatorType_t2287928152_m4270911724_gshared
bXs:_UnityEvent_1_Invoke_m838874366_gshared
faa:__Z13VFormatBufferPciPKcz
Vee:__ZN5physx2Sc18ParticleSystemCore23setSimulationFilterDataERKNS_12PxFilterDataE
Dbc:__Z18Transfer_BlittableI18StreamedBinaryReadILb0EELb1EhEvRK29SerializationCommandArgumentsR31RuntimeSerializationCommandInfo
A$s:_U3CCreateWhereIteratorU3Ec__Iterator1D_1_Dispose_m1879652802_gshared
yks:_DebugLogHandler_Internal_LogException_m317712981
Anc:__ZL24GenerateTilingJobCombineP22GenerateTilingAreaInfo
WXs:_IndexedSet_1_Insert_m676465416_gshared
Bzj:_Image_GenerateSimpleSprite_m4275440988
jvl:_Dictionary_2_TryGetValue_m1599136665_gshared
Jks:_Display_get_systemHeight_m3377672024
lPk:_UInt16_ToString_m3280699191
jRr:_XmlTokenInfo__ctor_m1187566406
pza:__ZN6prcoreL27StretchGenericFloatBilinearI15TexFormatRFloatEEvPKNS_9InnerInfoE
ETo:_JSONArray_Remove_m3117321082
Owe:__ZN5physx6shdfnd8internal8HashBaseINS0_4PairIKNS_2Sq13PrunerPayloadEjEES5_NS0_4HashIS5_EENS1_11HashMapBaseIS5_jS9_NS0_9AllocatorEE6GetKeyESB_Lb1EE15reserveInternalEj
Qaf:__ZNSt3__23mapIN20TextRenderingPrivate7FontRefENS1_6OSFontENS_4lessIS2_EENS_9allocatorINS_4pairIKS2_S3_EEEEEixERS8_
GSt:__ZN14dense_hash_mapI10KeyWrapperIP14Il2CppIUnknownEjN6il2cpp5utils11PointerHashIS1_EENS3_14EqualsComparerINSt3__28equal_toIS2_EEEENS9_9allocatorINS9_4pairIKS3_jEEEEE13set_empty_keyERSF_
m$n:__Z130RuntimeInvoker_Int32_t2071877448_Il2CppObject_Int32_t2071877448_Int32_t2071877448_Il2CppObject_Int32_t2071877448_Int32_t2071877448PK10MethodInfoPvPS2_
XPh:_List_1_FindAllStackBits_m237381763_gshared
tvb:__ZN15SerializeTraitsINSt3__24pairIi14ConstantStringEEE8TransferI14SafeBinaryReadEEvRS3_RT_
qJj:_UIFont_UpdateUVRect_m3479615972
m6s:_TrackedReference_GetHashCode_m811248179
Ehk:_UIBasicSprite_set_fillDirection_m1396037461
F4n:__Z102RuntimeInvoker_Il2CppObject_Int32_t2071877448_Int32_t2071877448_Il2CppObject_Il2CppObject_Il2CppObjectPK10MethodInfoPvPS2_
Xaj:_Array_IndexOf_TisCustomAttributeNamedArgument_t94157543_m745056346_gshared
XPa:__Z14PadImageBorderR14ImageReferenceii
Pzq:_LinearLayout_GetTotalHeight_m4261857514
wHt:__ZN15dense_hashtableINSt3__24pairIK10KeyWrapperINS1_IPK10MethodInfoP11Il2CppClassEEEjEES9_17ReflectionMapHashIS8_EN14dense_hash_mapIS9_jSD_NS9_14EqualsComparerINS0_8equal_toIS8_EEEENS0_9allocatorISB_EEE9SelectKeyESI_SK_E4findERSA_
cxt:__ZN6il2cpp2vm13MetadataCache28GetFieldDefaultValueForFieldEPK9FieldInfo
Hbk:_Tournament_get_bet_amount_m3952524725
ATo:_JSONArray_get_Item_m3720918199
D6r:_ArrayReadOnlyList_1_ReadOnlyError_m2289309720_gshared
PH:__ZN27AnimationLayerMixerPlayableD2Ev
PHs:_ReadOnlyCollection_1_System_Collections_ICollection_CopyTo_m2536845743_gshared
zAe:__ZN5physx2Gu22gjkRelativePenetrationINS0_9TriangleVENS0_8CapsuleVEEEjRKT_RKT0_RKNS_6shdfnd3aos15PsMatTransformVERKNSB_6FloatVERNSB_5Vec3VESJ_SJ_RSF_PhSL_Rh
H7t:__ZN6il2cpp6icalls8mscorlib6System4Text8Encoding16InternalCodePageEPi
yYe:__ZN9Rigidbody14SetIsKinematicEb
gkn:_PKCS1_Verify_v15_m478274703
FZk:_ChatInput0_OnPhrases_m1952602468
_X:__ZN12AudioManager39HandlePendingAudioConfigurationCallbackEv
LWm:_AudioObject__Set0_m807735053
gm:_emscripten_glIsFramebuffer
LSa:__ZNK13TranslateGLES9GetFormatE13TextureFormat17TextureColorSpace
bxc:__ZN12_GLOBAL__N_16qAtan2Eff
B6e:__Z13RegisterClassI9RigidbodyEvv
Pgu:__ZNSt3__215__num_get_floatIfEET_PKcS3_Rj
rJi:_Convert_ToInt64_m954367741
km:_JS_Sound_SetLoopPoints
$xi:_ArrayList__ctor_m1467563650
V0:__ZN12AudioManager17ShouldSourcePauseEb
$qm:_CultureInfo_get_DateTimeFormat_m1833759772
v8t:__ZN6il2cpp2vm26MetadataAllocGenericMethodEv
nUa:__ZN19ConstantBuffersGLES12RecordRenderEv
qwe:__ZN5physx13ActorAABBTaskD2Ev
z6s:_Transform_INTERNAL_set_rotation_m3703763817
cEa:__ZN18AsyncUploadManager22UploadStreamingTextureEP28FileTextureUploadInstruction
hdl:_XmlTypeMapMember_get_IsReturnValue_m18060200
DPa:__ZN4crnd12symbol_codec11decode_bitsEj
nou:__ZNSt3__212basic_stringIwNS_11char_traitsIwEENS_9allocatorIwEEE7reserveEj
eLr:_ScrollRect_IsActive_m4078699278
Dkd:__ZN15b2CircleContact8EvaluateEP10b2ManifoldRK11b2TransformS4_
Awp:_GooglePlayConnection_Connect_m3058087896
NKp:_Array_Sort_TisRaycastResult_t21186376_TisRaycastResult_t21186376_m38820193_gshared
V9r:_Animator_ResetTriggerString_m1445965342
Fyr:_CanvasFacebook_OnAppRequestsComplete_m2396097317
Gzm:_StreamReader__ctor_m3454466728
YZo:_PhotonPeer_set_DebugOut_m1337241191
eip:_CueController_add_RefreshAndReturnFrame_m3055232205
s2o:_iCloudData_get_stringValue_m359553617
PQk:_UInt64_Equals_m1243465002
CZs:_ScreenBaseConroller_1_GetTitleWithImage_m1044963860_gshared
W9q:_Enumerator_System_Collections_IEnumerator_get_Current_m1197115851_gshared
T7s:_Vector2_get_Item_m2792130561
Rzq:_LinearLayout_DrawObject_m1786485822
sli:_NetworkingPeer_SetLevelPrefix_m2394509776
yAa:__Z16MarkDependenciesR27GarbageCollectorThreadStatej
Quk:_X509ChainElementEnumerator_Reset_m3832280427
xKq:_FormatterConverter_ToBoolean_m137283188
rIm:_MulticastDelegate_RemoveImpl_m2024746777
AHb:_noop_upsample
Xzf:__ZL69DebuggerBrowsableAttribute_t1386379234_CustomAttributesCacheGeneratorP21CustomAttributesCache
Gom:_Activator_CreateInstance_m1465989661
zea:__ZNK9Transform11GetPositionEv
qqs:_PositionAssertion_GetWidth_m2294218483
qwp:_GooglePlayConnection_add_ActionConnectionStateChanged_m148191927
S9k:_ObscuredUShort_op_Increment_m2259141111
V4a:__ZN23SharedMeshRenderingData18UnloadVertexStreamEi
IJd:__ZN5physx3Cct13HandleManager3AddEPv
qDc:__ZN17MemoryCacheWriterD2Ev
TQl:_UM_NotificationController_add_OnPushIdLoadResult_m3459498381
Sxc:__ZN31CanvasBatchIntermediateRenderer11AddSubBatchERK16DrawBuffersRangePK19ShaderPropertySheet
hwc:__ZN19RenderEventsContextC2Ei
X5:__Z6simd4fRKf
mNr:_Slider_ClampValue_m2851810895
Om:_emscripten_glEnable
gat:_WWW_get_DefaultEncoding_m1497697991
N7m:_GUISkin_set_font_m4009958323
M6q:_Enumerator_Reset_m3115320746_AdjustorThunk
Wid:__ZNK14ParticleSystem16GetParticleCountEv
hwb:__ZN10TagManager23VirtualRedirectTransferER14SafeBinaryRead
HRe:__ZNK5physx2Sc15ClothFabricCore9getNbSetsEv
nds:_AudioSource_set_priority_m608149462
z$p:_XmlReader_get_Name_m2814912812
Ydf:_UNITY_FT_Init_Class_ft_grays_raster
qlp:_Data_Drill_Ground_set_time1_m2969783222
zot:__ZN15dense_hashtableINSt3__24pairIK10KeyWrapperIPK22Il2CppGenericParameterEP11Il2CppClassEES6_N6il2cpp5utils11PointerHashIS4_EEN14dense_hash_mapIS6_S9_SE_NS6_14EqualsComparerINS0_8equal_toIS5_EEEENS0_9allocatorISA_EEE9SelectKeyESJ_SL_EC2ERKSO_j
fdb:__Z15InitLightMeshesv
Szn:_Cookie_set_Port_m312020554
cKf:__ZL97WaitHandle_t677569169_CustomAttributesCacheGenerator_WaitHandle_t677569169____Handle_PropertyInfoP21CustomAttributesCache
Mpe:__ZNK5physx7NpScene26getNbContactDataBlocksUsedEv
Csh:_KeyValuePair_2_ToString_m1391611625_AdjustorThunk
oq:FUNCTION_TABLE_iifiii
Cfs:_Canvas_get_referencePixelsPerUnit_m1520474171
sFd:__ZN5physx2Gu29computeCapsule_HeightFieldMTDERKNS_21PxHeightFieldGeometryERKNS_11PxTransformERNS0_8CapsuleVEffbjRNS_10PxSweepHitE
_Se:__ZN5physx2Gu11HeightField15exportExtraDataERNS_22PxSerializationContextE
F3a:__ZN22RenderingCommandBuffer36AcquireAndRegisterSharedMaterialDataEP8Material
kGb:_UNITY_png_reciprocal
_Zj:_PhotonManager_JoinOrCreateRoom_m2948791777
pTk:_BaseLoader_Start_m1181541005
Q7b:__Z18Transfer_BlittableI19StreamedBinaryWriteILb0EELb1E8Vector2fEvRK29SerializationCommandArgumentsR31RuntimeSerializationCommandInfo
Tif:_cf2_arrstack_init
lxi:_Char_Equals_m1374454116_AdjustorThunk
KFt:__ZN15dense_hashtableINSt3__24pairIK10KeyWrapperINS1_IPK14Il2CppAssemblyP11Il2CppClassEEEjEES9_17ReflectionMapHashIS8_EN14dense_hash_mapIS9_jSD_NS9_14EqualsComparerINS0_8equal_toIS8_EEEENS0_9allocatorISB_EEE9SelectKeyESI_SK_E15insert_noresizeERKSB_
vUj:_UISprite_get_fillCenter_m1394291695
R7:__Z15CleanLogHandler7LogTypePKcz
mhc:__ZN9ShaderLab19SerializedSubShader8TransferI19StreamedBinaryWriteILb0EEEEvRT_
R5d:__ZN5physx10NpMaterialC2ERKNS_2Sc12MaterialCoreE
rJe:__ZN5physx9PxTaskMgr10resolveRowEjb
hsh:_KeyValuePair_2_ToString_m2961164621_gshared
RHk:_UTF32Encoding_GetBytes_m2290150495
D$b:__ZN6Camera17RemoveImageFilterERK11ImageFilter
mRa:__ZNSt3__218__insertion_sort_3IR25ValueParameterArraySorterPN20GpuProgramParameters14ValueParameterEEEvT0_S6_T_
Kpq:_AndroidADBanner_Show_m3224694474
rpd:__ZN10ClipperLib7Clipper27ProcessEdgesAtTopOfScanbeamEx
uTs:_GenericEqualityComparer_1_Equals_m1549453511_gshared
FVp:_XmlDocument__ctor_m1747781519
lGr:_LayoutUtility_GetLayoutProperty_m4052007472
khs:_CharacterInfo_get_uvTopLeft_m1952531187_AdjustorThunk
pfd:__ZN11ShapeModule17MainThreadCleanupEv
C4a:__ZNSt3__214__split_bufferI20ComputeShaderVariantRNS_9allocatorIS1_EEED2Ev
sWp:_XmlDocument_CreateProcessingInstruction_m3828260893
k8e:__ZNSt3__26vectorIN4core12basic_stringIcNS1_20StringStorageDefaultIcEEEE13stl_allocatorIS5_L18MemLabelIdentifier34ELi16EEE7reserveEj
QMq:_StreamingContext_t1417235061_marshal_pinvoke_back
wDk:_String_JoinUnchecked_m1880555587
_En:_FtpWebRequest_OperationCompleted_m3643941383
c7t:__ZN6il2cpp2vm13ManagedObject7GetIidsEPjPP10Il2CppGuid
bRe:__ZNK5physx13NpClothFabric13getRestvaluesEPfj
eYi:_HMAC_set_Key_m1530357889
Uea:__Z27LogRepeatingStringWithFlagsRKN4core12basic_stringIcNS_20StringStorageDefaultIcEEEE15LogMessageFlagsi
JCd:__ZN5physx2Gu16_gjkLocalRayCastINS0_9TriangleVENS0_11ConvexHullVEEEbRT_RT0_RKNS_6shdfnd3aos6FloatVERKNS9_5Vec3VESF_RSA_RSD_SH_f
$F:__ZNK8Playable11GetDurationEv
mMi:_DateTime_AddDays_m1926530883_AdjustorThunk
Kbt:_JsonReaderException_Create_m3412180909
tG:__ZN17AnimationPlayable28ComputeNeedsBindingRebuildedEv
_nn:_ClientSessionInfo_Dispose_m2571428025
aRd:__ZN5physx6shdfnd8PoolBaseINS_2Cm5BlockIPvLj32EEENS0_19ReflectionAllocatorIS5_EEE17releaseEmptySlabsEv
oej:_Array_InternalArray__ICollection_Add_TisMonoResource_t3127387157_m2070096275_gshared
ECe:__ZN5physx23PxsBroadPhaseContextSap21batchUpdateFewUpdatesEjRPNS_17PxcBroadPhasePairERjS4_
ZFd:__ZN5physx3Cct17getSceneTimestampEPKNS0_30InternalCBData_FindTouchedGeomE
XWb:__ZN15ResourceManagerD0Ev
vsk:_X509ExtensionCollection__ctor_m1324282194
WZg:__ZL89UIInput_t860674234_CustomAttributesCacheGenerator_UIInput_t860674234____text_PropertyInfoP21CustomAttributesCache
Ehr:_Physics_Raycast_m2874007225
rzf:__ZL74CaseInsensitiveHashCodeProvider_t2307530285_CustomAttributesCacheGeneratorP21CustomAttributesCache
QVo:_PeerBase_SendNetworkSimulated_m4275030151
TSc:__Z25PlayerPrefs_CUSTOM_GetIntP12Il2CppStringi
OMa:__ZN7ApiGLES4LoadE16GfxDeviceLevelGL
UJb:__ZN18StreamedBinaryReadILb0EE21TransferSTLStyleArrayI13dynamic_arrayI31EnlightenSystemAtlasInformationLj8EEEEvRT_17TransferMetaFlags
_4d:__ZN5physx9NpPhysics15createAggregateEjb
wPa:__ZN4crnd12crn_unpacker22decode_color_endpointsEv
Uzn:_Cookie_set_Version_m1740254262
TGj:_UIPanel_set_clipOffset_m1085789407
MBs:_ReadOnlyCollection_1_System_Collections_IList_Clear_m3006875897_gshared
qso:__Z90RuntimeInvoker_Void_t1841601450_Il2CppObject_Vector3_t2243707580_Il2CppObject_Il2CppObjectPK10MethodInfoPvPS2_
tuc:__ZZL31RegisterOtherRendererPropertiesR22GenericPropertyBindingEN30Wrapper_RendererReceiveShadows13GetFloatValueEPv
tio:__Z155RuntimeInvoker_Void_t1841601450_Vector2U26_t3911752445_Vector2U26_t3911752445_Single_t2076509932_ContactFilter2DU26_t4287536796_RaycastHit2DU26_t4207306570PK10MethodInfoPvPS2_
D$e:__ZN9Rigidbody5ResetEv
lyh:_Enumerator_System_Collections_IEnumerator_get_Current_m3866069145_gshared
hs:FUNCTION_TABLE_viiffffi
$4m:_GUI_SetNextControlName_m1935173465
H4r:_Action_1_Invoke_m2226099137_gshared
Vou:__ZNK10__cxxabiv121__vmi_class_type_info16search_below_dstEPNS_19__dynamic_cast_infoEPKvib
rTk:_BaseLoader_Initialize_m3085788741
Fpa:__ZN8Material11SetPassFastEPN9ShaderLab4PassER17ShaderPassContextP6Shaderib
Lqj:_AspectRatioFitter_UpdateRect_m3782072749
U6c:__ZN15PolynomialCurve12IsValidCurveERK17AnimationCurveTplIfE
olr:_Rect_get_max_m96665935_AdjustorThunk
WTb:__ZN14SafeBinaryRead21TransferSTLStyleArrayINSt3__26vectorI17SubstanceEnumItemNS1_9allocatorIS3_EEEEEEvRT_17TransferMetaFlags
s6k:_ObscuredQuaternion_SetEncrypted_m876988440
nnj:_ExecuteEvents_get_pointerDownHandler_m1172742772
$Dq:_StatusViewController_OnClickExit_m170159756
mWh:_Enumerator_System_Collections_IEnumerator_Reset_m2108388167_AdjustorThunk
iJe:__ZN5physx9PxTaskMgr12addReferenceEj
ysd:__ZNSt3__27__sort4IR24RayHitsByDepthComparitorP12RaycastHit2DEEjT0_S5_S5_S5_T_
sEc:__Z14ScaleCurveTimeR17AnimationCurveTplIfEf
iuk:_X509CertificateEnumerator_System_Collections_IEnumerator_MoveNext_m3708362145
b7a:__Z12SetupLODFadeR9GfxDeviceR17ShaderPassContextf
And:__ZN26b2PolygonAndCapsuleContact6CreateEP9b2FixtureiS1_iP16b2BlockAllocator
MMj:_UIKeyNavigation_GetLeft_m3488500246
y4l:_GameCenterManager_remove_OnLeadrboardInfoLoaded_m2178280541
BMs:_X501_ToString_m3328169518
Ucb:__ZL24CollectForwardObjectsJobP27CollectForwardObjectsHeader
lyc:__ZN8Playable13SetGameObjectEP10GameObject
bxl:_Dictionary_2_GetObjectData_m2611436594_gshared
lgb:__ZNK25CameraStackRenderingState24ResolveTempToEyeTexturesEv
Meb:__Z13IsNodeVisibleRK9SceneNodeRK4AABBRK22SceneCullingParameters
lWj:_Parser_ParseByToken_m1458617675
Z2l:_GameCenterManager_GetStoredAchievementProgress_m1329550832
Qlk:_Socket_LocalEndPoint_internal_m638078112
kkq:_AN_GMSGeneralProxy_reportAchievement_m2340840675
Osf:__Z57RectTransformUtility_CUSTOM_INTERNAL_CALL_PixelAdjustRectP12Il2CppObjectS0_R5RectTIfE
u_o:_PhotonPeer_get_ServerTimeInMilliSeconds_m3862387672
h5m:_GUIClip_Internal_Push_m2596311866
CCu:_emscripten_glStencilMask__wrapper
Wbf:__ZZ29InitializeTextRenderingModulevEN40CleanUpTextRenderingGarbageCollectstruct7ForwardEv
khm:_BigInteger_op_Implicit_m4032862257
FZg:__ZL100UICamera_t1496819779_CustomAttributesCacheGenerator_UICamera_t1496819779____stickyPress_PropertyInfoP21CustomAttributesCache
Ygm:_BigInteger_ToString_m3837784224
wQo:_SA_BackButton_FixedUpdate_m2429153846
A3a:__ZN15RenderNodeQueue7CleanupEv
_Kd:__ZN16NovodexAllocator8allocateEjPKcS1_i
tcb:__Z17PrepareShadowMapsRK11CullResultsRK11ActiveLightRK10MinMaxAABB
QYm:_AnimationClipPlayable_INTERNAL_CALL_SetRemoveStartOffset_m309844041
oJk:_NativeEventCalls_CreateEvent_internal_m1605829321
xhi:_MobileNativeDialog_OnCompleteListener_m3112811446
$fg:__ZL73RuntimePlatform_t1869584967_CustomAttributesCacheGenerator_MetroPlayerX64P21CustomAttributesCache
n4l:_GameCenterInvitations_OnPlayerRequestedMatchWithRecipients_RTM_m3666013009
y1o:_iAdBannerController_CreateAdBanner_m1792969925
pau:__ZN6il2cpp8metadata22Il2CppSignatureCompare6EqualsERK13dynamic_arrayIPK10Il2CppTypeLj4EES8_
oFr:_IOSFacebook_AppEventsLogPurchase_m3508193172
Rcb:__ZN9ShaderLab10GrabPassesD2Ev
Qaq:_XsollaPaystation_U3CStartPaymentU3Em__5_m2532902036
Pfn:_MonoBehaviour_set_useGUILayout_m2666356651
TNb:__ZN14Texture2DArray13UploadTextureEv
eLs:_X501_ToString_m4145210560
Epo:__Z69RuntimeInvoker_TextGenerationSettings_t2543476768_Vector2_t2243707579PK10MethodInfoPvPS2_
Qqs:_Uri_CheckSchemeName_m3372242109
kgf:_tt_cmap14_done
nBa:__ZN18AwakeFromLoadQueue25RegisterObjectInstanceIDsEv
fP:__ZN9Animation9IsPlayingERKN4core12basic_stringIcNS0_20StringStorageDefaultIcEEEE
lvi:_Buffer_BlockCopy_m1586717258
QGf:__ZL93X509Certificate_t283079845_CustomAttributesCacheGenerator_X509Certificate_GetName_m2354987368P21CustomAttributesCache
w7d:__ZNK5physx2Gu10ConvexMesh14debugVisualizeERNS_2Cm12RenderOutputERKNS2_8Matrix34ERKNS_9PxBounds3Eyfj
g9e:__ZN20TextRenderingPrivate19NativeTextGenerator15InsertCharacterEiPj
I$n:__Z77RuntimeInvoker_Single_t2076509932_Il2CppObject_Int32_t2071877448_Il2CppObjectPK10MethodInfoPvPS2_
xqe:__ZN5physx2Sc5Scene22removeBroadPhaseRegionEj
_Jd:__ZN5physx2Cm12RenderBuffer5clearEv
ZLs:_X509Certificate_get_DSA_m3972464423
lpd:__ZTv0_n12_N10ClipperLib7ClipperD0Ev
lqm:_CompareInfo_GetSortKey_m3691382873
jce:__ZNK5physx2Sc9ClothCore21getStiffnessFrequencyEv
Pbm:_GoogleAnalyticsClient_SetProductSKU_m2664609800
xmd:__ZN11b2RopeJoint24SolveVelocityConstraintsERK12b2SolverData
wOi:_DBNull_ToString_m3228904745
Upk:_WebHeaderCollection_AddWithoutValidate_m1479880592
V3c:__ZN24OptimizedPolynomialCurve19BuildOptimizedCurveERK17AnimationCurveTplIfEf
Pye:__ZN5physx13PxsCCDContext14postCCDAdvanceEPNS_10PxBaseTaskE
xkn:_RC4_get_IV_m506011366
KNs:_X509Crl__ctor_m2469408229
Hsq:_AndroidGoogleAdsExample_ChangePostRandom_m1296852746
Pxt:__ZNSt3__214__split_bufferIN6il2cpp2os11PollRequestERNS_9allocatorIS3_EEED2Ev
vvk:_X509SubjectKeyIdentifierExtension_CopyFrom_m136762226
ZBp:_GP_RTM_ReliableMessageListener_ReportDeliveredMessage_m2114471847
Zvh:_Enumerator_System_Collections_IEnumerator_Reset_m610822832_AdjustorThunk
uRm:_AssetBundleLoadManifestOperation_Update_m2961739026
pSt:__ZN6il2cpp6icalls8mscorlib6System2IO6MonoIO20GetFileSystemEntriesEP12Il2CppStringS6_iiPi
igk:_FadeEntry_t3041229383_marshal_pinvoke_back
HYq:_InternalEnumerator_1_System_Collections_IEnumerator_get_Current_m2061144652_gshared
wSc:__Z41MonoBehaviour_Set_Custom_PropUseGUILayoutP12Il2CppObjecth
baf:_UNITY_FT_Open_Face
PDp:_GooglePlayTBM_DeclineInvitation_m4290103334
X$t:__ZN6il2cpp2gc16GarbageCollector9FreeFixedEPv
ees:_Bounds_ToString_m1966597703
Thm:_BigInteger_op_Division_m1581119694
fOj:_UIRect_get_isFullyAnchored_m2129434494
ydc:__ZN16ScriptingManagerD0Ev
bWm:_AudioObject__ctor_m4144125776
lYo:_OperationResponse_ToStringFull_m269004618
T2t:__ZN6il2cpp6icalls8mscorlib6System7Convert24InternalFromBase64StringEP12Il2CppStringb
CLq:_CallbackHandler_Invoke_m1498072969
iXi:_DSACryptoServiceProvider__ctor_m701823690
dFe:__ZNK5physx10BPWorkTask7getNameEv
wkq:_AN_GMSGeneralProxy_ShowSavedGamesUI_Bridge_m3967010092
$3m:_Mathf_Clamp_m2354025655
fRk:_UIntPtr__ctor_m2737768530
zyk:_MatchCollection_get_Count_m3236470266
j1d:__ZN5physx2Sc8ShapeSim16onResetFilteringEv
bDp:_GooglePlaySavedGamesManager_add_ActionGameSaveResult_m817124854
nXt:__ZN30dense_hashtable_const_iteratorINSt3__24pairIK10KeyWrapperINS1_IPKcS4_EEEiEES6_24NamespaceAndNamePairHashN14dense_hash_mapIS6_iS9_NS6_14EqualsComparerI26NamespaceAndNamePairEqualsEENS0_9allocatorIS8_EEE9SelectKeyESD_SF_EppEv
ZMk:_Type_get_IsEnum_m313908919
OMc:__Z44Register_UnityEngine_Component_get_transformv
jIj:_FloatDelegate_Invoke_m303420650
nOc:__Z39GameObject_CUSTOM_FindGameObjectWithTagP12Il2CppString
R3h:_Collection_1_System_Collections_ICollection_CopyTo_m1335644572_gshared
dbl:_ObscuredVector3_get_x_m701803455_AdjustorThunk
kgu:__ZNKSt3__27collateIwE12do_transformEPKwS3_
LNh:_List_1_CheckMatch_m2830747427_gshared
u7j:_JSONNode_get_AsBool_m3431398284
mXa:__ZN17ArchiveFileSystem12MountArchiveEPKcS1_
GRp:_ExecuteEvents_ExecuteHierarchy_TisIl2CppObject_m2541874163_gshared
Tko:__Z153RuntimeInvoker_Rect_t3681755626_Int32_t2071877448_Int32_t2071877448_Rect_t3681755626_Il2CppObject_Il2CppObject_Il2CppObject_Il2CppObject_SByte_t454417549PK10MethodInfoPvPS2_
Jhm:_ModulusRing_Pow_m3751129772
Uno:__Z107RuntimeInvoker_Void_t1841601450_Il2CppObject_Double_t4078015681_Int32_t2071877448_Il2CppObject_Il2CppObjectPK10MethodInfoPvPS2_
Fca:__Z11RequireTypePKcS0_S0_
w6q:_Enumerator_System_Collections_IEnumerator_Reset_m70453843_gshared
NKb:__ZThn32_NK8Renderer14GetSubsetIndexEi
FUk:_BBundleManager_QueDownload_m2751104418
rqp:_DetectorsUsageExample_Start_m3345133879
QEm:_TextWriter_Synchronized_m1237756643
c4i:_Array_InternalArray__ICollection_Contains_TisTeam_t3635662189_m1026172072_gshared
dOq:_InternalEnumerator_1_System_Collections_IEnumerator_get_Current_m945013892_gshared
hgl:_XmlChoiceIdentifierAttribute_AddKeyHash_m1900813700
xPp:_Array_InternalArray__get_Item_TisKeyValuePair_2_t614362368_m509368563_gshared
htc:__ZN13ProduceHelperI15ResourceManagerLb0EE7ProduceE18MemLabelIdentifier18ObjectCreationMode
kKa:__ZN9GfxDevice15ImmediateVertexEfff
Uoc:__Z13RegisterClassI8MaterialEvv
iie:__ZN5physx14NpRigidDynamic10clearForceENS_11PxForceMode4EnumE
VTi:_FieldAccessException__ctor_m3893881490
wlo:__Z82RuntimeInvoker_Int32_t2071877448_Rect_t3681755626_Il2CppObject_Vector2_t2243707579PK10MethodInfoPvPS2_
$8p:_XsollaPricepoints_Parse_m4204190869
YHa:__ZN13GfxDeviceGLES15SetStencilStateEPK18DeviceStencilStatei
zHt:__ZN15dense_hashtableINSt3__24pairIK10KeyWrapperINS1_IPK10MethodInfoP11Il2CppClassEEEjEES9_17ReflectionMapHashIS8_EN14dense_hash_mapIS9_jSD_NS9_14EqualsComparerINS0_8equal_toIS8_EEEENS0_9allocatorISB_EEE9SelectKeyESI_SK_E6insertERKSB_
iQj:_UIPanel__cctor_m1130496102
adu:_cycle
D0r:_GenericGeneratorEnumerator_1_Yield_m3714621347_gshared
lkq:_AN_GMSGeneralProxy_reportAchievementById_m1874907121
xf:_emscripten_glUniform1iv
ott:__ZNK10KeyWrapperIPK17Il2CppGenericInstE14EqualsComparerIN6il2cpp8metadata24Il2CppGenericInstCompareEEclERKS3_SA_
Xrd:__ZN15b2DistanceProxy3SetEPK7b2Shapei
XAk:_String_System_IConvertible_ToDouble_m3860911722
Anb:__ZN16MemoryFileSystemD2Ev
Uoq:_AN_SoomlaProxy_OnMarketPurchaseFailed_m890782225
Rin:_ARC4Managed__ctor_m2922048522
s9e:__Z17dynamic_pptr_castIP9Texture2D7TextureET_RK4PPtrIT0_E
RG:__ZN7mecanim14ValueArrayLoopERKNS_10ValueArrayES2_RS0_fRKNS_14ValueArrayMaskE
FDs:_ReadOnlyCollection_1_System_Collections_IList_set_Item_m1272038804_gshared
pOq:_InternalEnumerator_1_System_Collections_IEnumerator_get_Current_m1931522460_AdjustorThunk
buk:_X509CertificateCollection__ctor_m3709509050
Hun:__Z30il2cpp_codegen_resolve_pinvokeIPFiiiiiELj67ELj14EET_RAT0__KcRAT1__S3_20Il2CppCallConvention13Il2CppCharSetib
eMc:__Z37Register_UnityEngine_Camera_get_depthv
klm:_EncryptedPrivateKeyInfo_get_Salt_m2734354394
y_l:_GetTournamentWinner__ctor_m2429032069
mWp:_XmlDocument_CreateElement_m3625277341
BFs:_ReadOnlyCollection_1_System_Collections_Generic_IListU3CTU3E_set_Item_m1918537449_gshared
F1h:_Collection_1_System_Collections_ICollection_CopyTo_m3896480607_gshared
Tnj:_PointerEventData_set_position_m794507622
hhj:_Array_InternalArray__Insert_TisKeyValuePair_2_t38854645_m211413533_gshared
v1e:__ZN5physx7profile8ZoneImplINS_28PxProfileNameProviderForwardEE10startEventEty
vna:__ZN15dense_hashtableINSt3__24pairIKPKcPK4RTTIEES3_N11TypeManager23ConstCharPtrHashFunctorEN14dense_hash_mapIS3_S7_SA_NS9_19ConstCharPtrEqualToE13stl_allocatorIS8_L18MemLabelIdentifier6ELi16EEE9SelectKeyESC_SF_E12resize_deltaEjj
hze:__ZN5physx10PxsCCDPair17sweepAdvanceToToiEfb
XZj:_PhotonManager_Room1vs1_m1172890606
lnb:__Z23ConvertIntegerToTypePtrItEbPvR14SafeBinaryRead
Ttp:_ConsoleBase_set_ScrollPosition_m2281592185
j_m:_AnimatorControllerPlayable_IsParameterControlledByCurveID_m4183631446
Wal:_ObscuredVector2_ToString_m2901948232_AdjustorThunk
OD:__ZN7mecanim5human29HumanGetGoalOrientationOffsetENS0_4GoalE
Of:_emscripten_glStencilFunc
R4n:__Z101RuntimeInvoker_Void_t1841601450_Il2CppObject_Il2CppObject_Il2CppObject_Il2CppObject_Int32_t2071877448PK10MethodInfoPvPS2_
l0d:__ZN5physx6shdfnd8PoolBaseINS_2Cm5BlockIhLj384EEENS0_19ReflectionAllocatorIS4_EEE17releaseEmptySlabsEv
iPe:__ZN5physx16PxsIslandManager11freeBuffersEv
iYn:_MonoMethod_MakeGenericMethod_impl_m2063853616
WUd:__ZN5physx2Cm12DelegateTaskINS_2Sc17ParticleSystemSimEXadL_ZNS3_21prepareCollisionInputEPNS_10PxBaseTaskEEEE11runInternalEv
b3i:__Z46il2cpp_codegen_get_marshal_directive_exceptionPKc
oic:__ZN9ShaderLab20SerializedSubProgram14AddMatrixParamEPKcii15ShaderParamTypei
bT:__Z44Register_UnityEngine_AnimationState_get_namev
Uf:_glGetActiveUniformBlockName
Qhl:_XmlTypeMapMember__ctor_m1316177970
G4o:_IOSADBanner__ctor_m1845188066
WR:__ZN26AnimatorControllerPlayable23ValidateParameterStringE17GetSetValueResultRKN4core12basic_stringIcNS1_20StringStorageDefaultIcEEEE
Gzn:_Cookie_set_Domain_m334320991
bDu:b181
Itm:_Guid_AppendByte_m2890893073
c4c:__ZN31CollisionModulePropertyBindings13GetFloatValueERK14ParticleSystemi
Awi:_Char_System_IConvertible_ToType_m3106771703_AdjustorThunk
_Qc:__Z39Quaternion_CUSTOM_INTERNAL_CALL_InverseRK11QuaternionfRS_
zus:_GCHandle_Alloc_m1063472408
XY:__ZN4FMOD7Channel20set3DConeOrientationEP11FMOD_VECTOR
Qhd:__ZN14ParticleSystem24ScheduleUpdateJobsHelperER13dynamic_arrayINS_15UpdateOrderDataELj4EERS0_IP8JobFenceLj4EEd
Yp:FUNCTION_TABLE_iiifii
oWi:_CryptoConfig_CreateFromName_m391442950
eDu:b184
mYt:__ZN6il2cpp2vm12GenericClass11SetupEventsEP11Il2CppClass
smf:_tt_delta_interpolate
dgf:_tt_cmap12_get_info
YBc:__Z24LoadImageIntoTextureImplI11JpegDecoderEbR9Texture2DPKhjb13TextureFormatR13dynamic_arrayIhLj1EE
fLc:__Z58Register_UnityEngine_Caching_INTERNAL_CALL_IsVersionCachedv
k_o:_PhotonPeer_get_LimitOfUnreliableCommands_m2838001734
ffi:_MarketExample_OnReceiptRefreshComplete_m202700502
iDu:b188
Ari:_SimpleEnumerator__ctor_m2272112645
Jht:__ZN6il2cpp6icalls8mscorlib6System7Decimal14decimalCompareEP19il2cpp_decimal_reprS5_
g7t:__ZThn4_N6il2cpp2vm13CachedCCWBaseINS0_13ManagedObjectEE7ReleaseEv
tXd:__ZN5physx26PxcFsComputeJointLoadsSimdERKNS_9PxcFsDataEPKNS_12PxcFsInertiaEPNS_6shdfnd3aos6Mat33VEPKfjjNS_21PxcFsScratchAllocatorE
I4p:_XsollaCheckout_Parse_m2505385339
FZj:_U3CPingAvailableRegionsCoroutineU3Ec__Iterator0_Reset_m605324802
fBi:_CollectionBase_System_Collections_IList_get_Item_m2370387510
pP:__ZN29AnimationStateNetworkProvider24GetNetworkAnimationStateER9AnimationP24AnimationStateForNetworki
ale:__ZN5physx6shdfnd8SyncImpl7getSizeEv
Bik:_UIButtonKeys_Upgrade_m3365741053
d2o:_iAdIOSInterstitial_ShowBanner_m1501598107
bDj:_LayoutElement__ctor_m789941073
DAr:_EditorFacebook_OnRefreshCurrentAccessTokenComplete_m326067869
Hqt:_il2cpp_z_deflateEnd
FJh:_List_1_RemoveAll_m1135879711_gshared
lCu:_emscripten_glValidateProgram__wrapper
Cbs:_AssetBundle_LoadAllAssets_m1027061150
Swa:__Z18ClearByDrawingQuad13GfxClearFlagsRK10ColorRGBAffjR17ShaderPassContext
exs:_DynamicPropertyCollection_FindProperty_m1233265924
Nya:__ZN6prcoreL17RemapGenericFloatI14TexFormatRHalf15TexFormatRFloatEEvPKNS_9InnerInfoE
Q6a:__Z16ShouldUseShadowsb
Sba:__ZN15DirectorManager21RebuildStageCallbacksEv
nyn:_GZipStream_BeginRead_m3633019595
nq:FUNCTION_TABLE_iifff
Nza:__ZN19RuntimeSceneManager9LoadSceneERKN4core12basic_stringIcNS0_20StringStorageDefaultIcEEEES6_S6_RK9UnityGUIDiNS_11LoadingModeE
j1j:_PhotonStream_ToArray_m2859696286
pQa:__ZN7ApiGLES10DrawArraysE16GfxPrimitiveTypejjj
Ils:_Event_PopEvent_m1952528237
DW:__ZN10SampleClip13LoadBaseSoundEv
rDd:__ZN5physx2Gu22gjkRelativePenetrationINS0_17ShrunkConvexHullVES2_EEjRKT_RKT0_RKNS_6shdfnd3aos15PsMatTransformVERKNSA_6FloatVERNSA_5Vec3VESI_SI_RSE_PhSK_Rh
LO:__ZN18StreamedBinaryReadILb0EE21TransferSTLStyleArrayI22OffsetPtrArrayTransferIN7mecanim8skeleton4NodeEEEEvRT_17TransferMetaFlags
uA:__ZN7mecanim9animation4Clip8TransferI19StreamedBinaryWriteILb0EEEEvRT_
jKm:_AndroidNative_OpenSettingsPage_m214927041
g7h:_Collection_1_Contains_m643401393_gshared
m5r:_Action_2_BeginInvoke_m2635411737_gshared
gQe:__ZN5physx2Sc19ParticlePacketShapeC2ERNS0_17ParticleSystemSimEjPNS_16PxvParticleShapeE
Ako:__Z107RuntimeInvoker_Single_t2076509932_Rect_t3681755626_Single_t2076509932_Single_t2076509932_Single_t2076509932PK10MethodInfoPvPS2_
Gur:_TextGenerator_Populate_m4139823822
Rwa:__ZN22DeviceMVPMatricesStateC2ER9GfxDevice
ios:_Regex_IsMatch_m1286520424
a5d:__ZN5physx9NpPhysics18createTriangleMeshERNS_13PxInputStreamE
qq:FUNCTION_TABLE_iiiiifiiiif
PAk:_String__ctor_m372528291
wp:FUNCTION_TABLE_iifii
oSr:_XmlTextReader__ctor_m1385347850
rMt:__ZN6il2cpp2vm10Reflection12HasAttributeEP9FieldInfoP11Il2CppClass
tSt:__ZN6il2cpp6icalls8mscorlib6System10Reflection10MonoMethod19get_IsGenericMethodEP22Il2CppReflectionMethod
YAa:__ZNSt3__26__treeIiNS_4lessIiEE13stl_allocatorIiL18MemLabelIdentifier1ELi16EEE7destroyEPNS_11__tree_nodeIiPvEE
Od:invoke_viiifi
hTm:_AudioController__PlayEx_m1356645891
s1p:_XmlTextReader_ReadAttributeValue_m3307727945
CYm:_AnimationClipPlayable_GetSpeed_m668389965
Syk:_PatternCompiler_Emit_m3700775527
Tqm:_CultureInfo_get_CompareInfo_m3085280862
uUe:__ZN5physx6shdfnd5ArrayIPNS_7PxActorENS0_19ReflectionAllocatorIS3_EEE8recreateEj
aQt:__ZNSt3__26vectorIN6il2cpp2vm22EmbeddedResourceRecordENS_9allocatorIS3_EEE21__push_back_slow_pathIS3_EEvOT_
yNr:_Slider_FindSelectableOnUp_m15474611
EFa:__ZNK11AssetBundle14GetPreloadDataEiR13dynamic_arrayIiLj4EE
smm:_EncryptedData_get_EncryptedContent_m2732115576
SHb:_rgb_gray_convert_22
Szr:_MockLoginDialog_U3CSendSuccessResultU3Eb__4_0_m811345350
fh:_JS_Sound_SetPosition
yns:_Assertion_set_FalseExpression_m1781616372
rvk:_X509SubjectKeyIdentifierExtension_FromHexChars_m2515150420
gck:_TournamentUserUI_SetBlankInfo_m3581516877
byf:__ZL51IReflect_t3412036974_CustomAttributesCacheGeneratorP21CustomAttributesCache
Spj:_StandaloneInputModule_SendSubmitEventToSelectedObject_m3421155293
P$s:_Nullable_1_GetValueOrDefault_m337650842_AdjustorThunk
LQj:_UIPlaySound_OnEnable_m383956650
_Eq:_CallContextRemotingData_Clone_m2226242476
Wvi:_Byte_System_IConvertible_ToUInt32_m3950610247
y8d:__ZNK5physx7NpCloth14getNbParticlesEv
w1r:_List_1_NewArray_m742551263_gshared
tai:_Collection_1__ctor_m2265994654_gshared
J6o:_IOSCamera_add_OnVideoPathPicked_m2245086388
XMd:__ZN5physx2Sc10NPhaseCore24releaseShapeInstancePairEPNS0_19ShapeInstancePairLLEjj
Zgo:__Z84RuntimeInvoker_Void_t1841601450_Rect_t3681755626_Int32_t2071877448_Int32_t2071877448PK10MethodInfoPvPS2_
Hbl:_ObscuredVector3_CompareVectorsWithTolerance_m1231156940_AdjustorThunk
F_o:_TPeer__ctor_m981872684
Xcb:__Z24SetupActiveLightsContextR21ActiveLightingContextRK12ActiveLightsRK11CullResultsP14ShadowMapCacheRK10MinMaxAABB
_Uc:__Z38Sprite_CUSTOM_INTERNAL_get_textureRectP12Il2CppObjectP5RectTIfE
sOi:_DBNull_System_IConvertible_ToUInt32_m2681284284
kMm:_AndroidSocialGate_StartShareIntentWithSubject_m3230935345
i2l:_GameCenter_TBM_OnTrunReceived_m1290082439
qxb:__ZN6Camera8TransferI24GenerateTypeTreeTransferEEvRT_
RZj:_PhotonNetwork_ConnectUsingSettings_m3483314744
dxl:_Dictionary_2_Remove_m3580374503_gshared
kb:invoke_iiiiiiif
cb:invoke_iiiiiiii
$Zb:__ZN24RingBufferMemoryFileData16ConsumeReadBytesEy
Sen:_Mesh_GetUVChannel_m364477864
Ftk:_X509ChainElementCollection_Contains_m3599995067
Xik:_UIButtonRotation_OnPress_m3695642518
U0d:__ZN5physx7NpActor18releaseConstraintsERNS_12PxRigidActorE
eKd:__ZN5physx6shdfnd5ArrayINS_11PxDebugLineENS0_19ReflectionAllocatorIS2_EEE8recreateEj
Dfi:_MessageOverlay_SetActive_m564623591
Tyu:b124
Wyu:b127
$yu:b129
BTc:__Z52Register_UnityEngine_RectTransform_INTERNAL_get_rectv
rca:__Z21PostprocessStacktracePKcRN4core12basic_stringIcNS1_20StringStorageDefaultIcEEEE
hqa:__ZN19RenderBufferManager13GetTempBufferEii17DepthBufferFormat19RenderTextureFormatj22RenderTextureReadWrite14VRTextureUsagei
PWb:__ZN18StreamedBinaryReadILb0EE21TransferSTLStyleArrayI13dynamic_arrayI16SplashScreenLogoLj4EEEEvRT_17TransferMetaFlags
Nie:__ZNK5physx14NpRigidDynamic25getContactReportThresholdEv
_Dp:_GooglePlayTBM_LeaveMatchDuringTurn_m2732466071
w6i:_Array_InternalArray__ICollection_Remove_TisX509ChainStatus_t4278378721_m4127982424_gshared
Rvo:__Z60RuntimeInvoker_Il2CppObject_Il2CppObject_Vector3_t2243707580PK10MethodInfoPvPS2_
BMc:__Z47Register_UnityEngine_Camera_get_allCamerasCountv
xJj:_UIFont_get_packedFontShader_m3013696035
Fet:_ChatClient_HandleStatusUpdate_m935007461
ZO:__ZN16MecanimAnimation25RegisterIAnimationBindingEPKN5Unity4TypeEiP17IAnimationBinding
zBc:__ZNSt3__26vectorIj13stl_allocatorIjL18MemLabelIdentifier1ELi16EEE6assignIPKtEENS_9enable_ifIXaasr21__is_forward_iteratorIT_EE5valuesr16is_constructibleIjNS_15iterator_traitsIS9_E9referenceEEE5valueEvE4typeES9_S9_
HB:__ZN7mecanim9animation16EvaluateAvatarIKEPKNS0_14AvatarConstantEPKNS0_11AvatarInputEPNS0_12AvatarOutputEPNS0_12AvatarMemoryEPNS0_15AvatarWorkspaceEb
OI:__ZN26AnimatorControllerPlayable10GetIntegerEiRi
KLe:__Z22updateIslandsToProcessRKN5physx2Cm10BitMapBaseINS_6shdfnd9AllocatorEEEPKjRKNS_11NodeManagerERS4_
tMm:_AndroidSocialNativeExample_ShareMail_m3081838886
cdm:_GoogleCloudManager_add_ActionAllStatesLoaded_m1860513561
Pis:_Component_GetComponentsInChildren_m908027537
B0a:__ZN12InputManager13InputEndFrameEv
fDi:_SyncHashtable__ctor_m2029869827
F9r:_Animator_GetFloatString_m4224954149
k$t:__ZNSt3__26__treeINS_12basic_stringIcNS_11char_traitsIcEENS_9allocatorIcEEEENS_4lessIS6_EENS4_IS6_EEEC2EOSA_
pOt:__ZN6il2cpp2vm6Thread5SetupEP12Il2CppThread
M9o:_IOSNativePreviewBackButton_Create_m4127262626
kYe:__ZN8Collider30GetRelativePositionAndRotationERK9TransformR10Matrix4x4f
cQt:__ZNSt3__214__split_bufferIN6il2cpp2vm22EmbeddedResourceRecordERNS_9allocatorIS3_EEEC2EjjS6_
nze:__ZN5physx35PxcSweepEstimateAnyShapeHeightfieldERKNS_11PxsCCDShapeES2_PKNS_12PxsRigidBodyES5_RKNS_11PxTransformES8_f
QGs:_ReadOnlyCollection_1_System_Collections_IList_Remove_m2200089035_gshared
zKd:__ZN5physx3Cct13BoxControllerC2ERKNS_16PxControllerDescERNS_9PxPhysicsEPNS_7PxSceneE
A1h:_Collection_1_CheckWritable_m2756357359_gshared
qeu:___munmap
Irg:__ZL68ColorBlock_t2652774230_CustomAttributesCacheGenerator_m_PressedColorP21CustomAttributesCache
$$p:_XmlResolver_ResolveUri_m1553678733
bJi:_Convert_ToInt64_m1722087499
$h:_localtime_r
zlu:__ZNKSt3__27codecvtIwc11__mbstate_tE10do_unshiftERS1_PcS4_RS4_
Neo:__Z80RuntimeInvoker_Il2CppObject_Ray_t2469606224_Single_t2076509932_Int32_t2071877448PK10MethodInfoPvPS2_
ncd:__ZN14ParticleSystem13KillParticlesILb1EEEvRjbR24ParticleSystemUpdateDataR23ParticleSystemParticlesjPj
Ywq:_GridView_Clear_m306512326
$0k:_ObscuredDecimal__ctor_m1666988476
q1j:_PhotonStream_Serialize_m2474985794
A1:__ZN4FMOD5Sound11getDefaultsEPfS1_S1_Pi
o_r:_BetterList_1_AllocateMore_m588278855_gshared
bi:_strftime
rqa:__ZN7Texture33SetStoredColorSpaceNoDirtyNoApplyE17TextureColorSpace
Mxk:_Interval_IsAdjacent_m294638198_AdjustorThunk
naa:__ZN12FileAccessorD2Ev
EOb:__ZN14VertexDataInfoC2Ev
W8s:_Vector3_Equals_m2692262876_AdjustorThunk
WSq:_InternalEnumerator_1_get_Current_m2415979394_gshared
Lpn:_TlsClientHello_Update_m1723542631
iac:__ZL17Transfer_GUIStyleI18StreamedBinaryReadILb1EELb1EEvRK29SerializationCommandArgumentsR31RuntimeSerializationCommandInfo
jcd:__ZNSt3__227__insertion_sort_incompleteIR31SortCollisionEventsByGameObjectP22ParticleCollisionEventEEbT0_S5_T_
uvb:__ZN19AssetBundleManifest8TransferI24GenerateTypeTreeTransferEEvRT_
yKr:_ScrollRect_SetDirtyCaching_m1491302821
PAt:__ZN6il2cpp6icalls8mscorlib6SystemL9IsPrivateEPK12PropertyInfo
o1i:_X509Certificate__ctor_m2046084108
fXl:_Vs1UI_Awake_m627947104
tze:__ZNK5physx18PxcConvexTriangles16getPolygonNormalEj
wNn:_CustomAttributeData_GetCustomAttributes_m3258419955
_Oi:_Decimal_System_IConvertible_ToSByte_m3745141000
Qea:__ZN9shadertag10InitializeEv
k7t:__ZThn8_N6il2cpp2vm13CachedCCWBaseINS0_13ManagedObjectEE7DestroyEv
d7a:__ZN13BatchRenderer20RenderSingleWithPassER17ShaderPassContextPK18SharedMaterialDataP6ShaderPN9ShaderLab4PassEiPKNS7_10GrabPassesEjib15BatchBreakCause
M2e:__ZN5physx24NpPtrTableStorageManager8canReuseEjj
qS:__Z92Register_UnityEngine_Experimental_Director_AnimationOffsetPlayable_INTERNAL_CALL_SetRotationv
uMb:__ZN15QualitySettings14QualitySetting8TransferI24GenerateTypeTreeTransferEEvRT_
Wfj:_Array_InternalArray__ICollection_CopyTo_TisParameterModifier_t1820634920_m4127516211_gshared
cEk:_DecoderReplacementFallback__ctor_m2344783488
D7q:_Enumerator_System_Collections_IDictionaryEnumerator_get_Key_m467957770_AdjustorThunk
Dne:__ZN5physx2Sc27ConstraintProjectionManager33processConstraintForGroupBuildingEPNS0_13ConstraintSimERNS0_20ScratchAllocatorListIS3_Lj64EEE
Rwj:_GraphicRegistry_UnregisterGraphicForCanvas_m820096873
pnf:__Z28Font_Get_Custom_PropMaterialP12Il2CppObject
q7t:__ZN6il2cpp6icalls8mscorlib6System9Threading16NativeEventCalls19ResetEvent_internalE12Il2CppIntPtr
npg:__ZL65EventTrigger_t1967201810_CustomAttributesCacheGenerator_delegatesP21CustomAttributesCache
Zwh:_Enumerator_VerifyState_m2948867230_gshared
cJi:_Decimal__ctor_m1770144563
Hmj:_EventTrigger_OnPointerUp_m2791622548
rBu:_glFlush__wrapper
HMr:_Shadow_set_useGraphicAlpha_m141905402
Izc:__ZN22BlockMemoryCacheWriter14LockCacheBlockEjPPhS1_
M0t:__ZN6il2cpp2os6Thread10RunWrapperEPv
hPk:_UInt16_ToString_m2038947049
YIq:_RealProxy_InternalGetTransparentProxy_m3415358600
Ile:__ZN5physx2Cm29ConstraintImmediateVisualizer19visualizeDoubleConeERKNS_11PxTransformEfb
Txd:__ZN5physx6shdfnd5ArrayINS_13PxExtendedBoxENS0_19ReflectionAllocatorIS2_EEE8recreateEj
XEe:__ZN5physx20ProcessBPResultsTask11runInternalEv
fRd:__ZN5physx6shdfnd5ArrayIPvNS0_19ReflectionAllocatorINS_2Cm5BlockIS2_Lj16EEEEEE4copyINS0_15InlineAllocatorILj256ES7_EEEEvRKNS1_IS2_T_EE
G_r:_BetterList_1_Trim_m3990100699_gshared
sxc:__Z13RegisterClassI10GameObjectEvv
Hzf:__ZL53HashValues_t2390200547_CustomAttributesCacheGeneratorP21CustomAttributesCache
h3q:_Comparer_1__cctor_m1095305854_gshared
gLj:_UILabel_get_keepCrisp_m2627168710
osk:_X509BasicConstraintsExtension_get_PathLengthConstraint_m3004531343
Ewt:__ZN15dense_hashtableINSt3__24pairIK10KeyWrapperIPK19Il2CppGenericMethodEPK26Il2CppGenericMethodIndicesEES6_N6il2cpp8metadata23Il2CppGenericMethodHashEN14dense_hash_mapIS6_SA_SE_NS6_14EqualsComparerINSD_26Il2CppGenericMethodCompareEEENS0_9allocatorISB_EEE9SelectKeyESI_SK_E3endEv
Mvq:_WP8SocialPreview_OnGUI_m2380412215
joe:__ZN5physx7NpScene19getActiveTransformsERjh
KNe:__ZN5physx6shdfnd5ArrayIPKNS_24PxsIndexedContactManagerENS0_19ReflectionAllocatorIS4_EEE8recreateEj
lGm:_MissingMemberException__ctor_m4277447068
k6:__Z7ToUpperIN4core12basic_stringIcNS0_20StringStorageDefaultIcEEEEET_RKS5_
pss:_StrongNameKeyPair_System_Runtime_Serialization_ISerializable_GetObjectData_m1693082120
kzk:_PatternCompiler_EmitIfDefined_m3599839898
a_j:_PhotonNetwork_JoinRoom_m2121519708
Zbc:__Z18Transfer_BlittableI18StreamedBinaryReadILb0EELb1E8Vector4fEvRK29SerializationCommandArgumentsR31RuntimeSerializationCommandInfo
S_t:__ZN6il2cpp2vm6Method8GetParamEPK10MethodInfoj
Fwm:_Int64_CompareTo_m1953686218
ZNp:_BaseInvokableCall_ThrowOnInvalidArg_TisSingle_t2076509932_m3470174535_gshared
owm:_Int64_System_IConvertible_ToInt16_m2022633688_AdjustorThunk
SWe:__ZN5physx6shdfnd5ArrayINS_11RTreeNodeNQENS0_19ReflectionAllocatorIS2_EEE19resizeUninitializedEj
TNd:__ZNK5physx2Sc16InteractionScene18getLLIslandManagerEv
lXp:_XmlElement_get_Attributes_m3671402762
EPd:__ZN5physx2Gu21intersectSphereConvexERKNS0_6SphereERKNS0_10ConvexMeshERKNS_11PxMeshScaleERKNS_11PxTransformEPNS_6PxVec3E
Hua:__ZN8Material8TransferI14SafeBinaryReadEEvRT_
Sye:__ZN5physx17PxcNpMemBlockPool34acquireExceptionalConstraintMemoryEj
OCb:__ZN12CubemapArray17UploadToGfxDeviceEv
_Kr:_ScrollRect_AdjustBounds_m1033723448
yQk:_UInt64_System_IConvertible_ToInt32_m930227577
hxh:_Enumerator_System_Collections_IEnumerator_Reset_m2200349770_gshared
esn:_SslClientStream_remove_ServerCertValidation_m2446179261
xTm:_AudioController_GetPlayingAudioObjects_m3830716506
bLn:_OrdinalComparer__ctor_m2952942058
cAe:__ZN5physxL23PxcSweepConvexTrianglesERKNS_11PxsCCDShapeES2_RKNS_11PxTransformES5_S5_S5_fRNS_6PxVec3ES7_RNS_10PxcNpCacheERNS_18PxcNpThreadContextERKNS_2Cm23FastVertex2ShapeScalingERNS_2Gu9TriangleVEf
C6d:__ZNK5physx7NpShape16getPlaneGeometryERNS_15PxPlaneGeometryE
btk:_X509Chain_CheckRevocationOnChain_m2441901351
D$j:_PhotonNetwork_ConnectToMaster_m735337885
O0i:_SymmetricAlgorithm_CreateDecryptor_m4240570785
aXe:__ZN5physx27InternalTriangleMeshBuilder14fillRemapTableEv
ZW:__ZN11AudioSource4StopEb
Ugs:_CharacterInfo_get_minX_m3229386103_AdjustorThunk
sVd:__ZN5physx6shdfnd8PoolBaseINS_13NpRigidStaticENS0_19ReflectionAllocatorIS2_EEE17releaseEmptySlabsEv
S3b:__ZN14SafeBinaryRead21TransferSTLStyleArrayI13dynamic_arrayI10Matrix4x4fLj4EEEEvRT_17TransferMetaFlags
i8h:_Collection_1_CheckWritable_m732350052_gshared
e1i:_TripleDESCryptoServiceProvider__ctor_m3834520418
GKl:_UIWidget_UpdateVisibility_m2482889154
TUr:_XmlTextReader_ReadWhitespace_m1890458825
lpa:__Z25GetSplashScreenBackgroundRK5RectTIfE
una:__ZN14dense_hash_mapIPKcPK4RTTIN11TypeManager23ConstCharPtrHashFunctorENS5_19ConstCharPtrEqualToE13stl_allocatorINSt3__24pairIKS1_S4_EEL18MemLabelIdentifier6ELi16EEEixERSB_
Ptf:__ZN13RuntimeStaticI19UnityConnectServiceLb0EE16StaticInitializeEPv
d1q:_DefaultComparer_Compare_m1247109616_gshared
Mss:_ResourceManager__ctor_m498829021
VUa:__ZN18GlslGpuProgramGLESD2Ev
nkb:__ZN13RenderTexture14SetVolumeDepthEi
G1e:__ZThn116_NK5physx7profile8ZoneImplINS_28PxProfileNameProviderForwardEE10hasClientsEv
lIe:__ZN5physx2Gu20pcmContactCapsuleBoxERKNS0_13GeometryUnionES3_RKNS_11PxTransformES6_RKfRNS0_5CacheERNS0_13ContactBufferE
DLq:_SerializationCallbacks__ctor_m722356782
t6s:_Transform_set_localPosition_m1026930133
vDl:_Dictionary_2_set_Item_m2569976244_gshared
Jha:__ZN14dense_hash_mapIPKcPK4RTTIN11TypeManager23ConstCharPtrHashFunctorENS5_19ConstCharPtrEqualToE13stl_allocatorINSt3__24pairIKS1_S4_EEL18MemLabelIdentifier6ELi16EEE5beginEv
HMt:__ZN15dense_hashtableINSt3__24pairIK10KeyWrapperINS1_IP11Il2CppClassjEEES4_EES6_N6il2cpp8metadata14ArrayClassHashEN14dense_hash_mapIS6_S4_SB_NS6_14EqualsComparerINSA_17ArrayClassCompareEEENS0_9allocatorIS8_EEE9SelectKeyESF_SH_E9copy_fromERKSK_j
Rdp:_IOSVideoManager__ctor_m1151283498
fPj:_UIPanel_set_clipping_m3438397525
Pfa:__ZN17PersistentManager18ReadObjectThreadedEi
lzn:_ChunkStream_WriteAndReadBack_m4051447520
YLa:__ZN25TransformFeedbackSkinning31CleanupTransformFeedbackShadersEv
g4n:__Z92RuntimeInvoker_Void_t1841601450_Il2CppObject_SByte_t454417549_Il2CppObject_Int32_t2071877448PK10MethodInfoPvPS2_
DUq:_InternalEnumerator_1_System_Collections_IEnumerator_get_Current_m2851415307_gshared
i9e:__ZNK20TextRenderingPrivate8FontImpl19GetCharacterAdvanceEjijfPj
dmk:_Socket_Connect_internal_m414445392
bzt:__ZN6il2cpp2vm10ThreadPool5QueueEP14Il2CppDelegatePPvS3_P12Il2CppObject
FQs:_EqualityComparer_1__cctor_m416314417_gshared
xPn:_DerivedType_GetField_m3960169619
VOi:_Decimal_System_IConvertible_ToInt16_m3159038792_AdjustorThunk
U$j:_PhotonPlayer_SetCustomProperties_m2272199052
jNb:__ZN10VertexData8TransferI18StreamedBinaryReadILb0EEEEvRT_
gVd:__ZN5physx2Sc5Scene9addStaticERNS0_10StaticCoreEPKPvjj
prm:_DateTimeFormatInfo_GetFormat_m3676195179
$mm:_PKCS12_GetExistingParameters_m2413397265
J1s:_Nullable_1_get_Value_m1743067844_gshared
PO:__ZN6Avatar8TransferI19StreamedBinaryWriteILb0EEEEvRT_
zkb:__ZN14PreloadManager16UpdatePreloadingEv
Dun:__Z30il2cpp_codegen_resolve_pinvokeIPFiiPhiELj67ELj13EET_RAT0__KcRAT1__S4_20Il2CppCallConvention13Il2CppCharSetib
y6c:__ZN11NoiseModule8TransferI14SafeBinaryReadEEvRT_
$Li:_DateTime_get_Minute_m803043551_AdjustorThunk
Sue:__ZN5physx2Sc5Scene9addShapesEPKPvjjRNS0_8RigidSimEPNS_12PxsRigidBodyERPNS0_8ShapeSimEPNS_9PxBounds3E
g2n:__Z148RuntimeInvoker_Int32_t2071877448_Il2CppObject_Int32_t2071877448_Int32_t2071877448_Il2CppObject_Int32_t2071877448_Int32_t2071877448_Int32_t2071877448PK10MethodInfoPvPS2_
ZWt:__ZNK15dense_hashtableINSt3__24pairIK10KeyWrapperINS1_IPKcS4_EEEiEES6_24NamespaceAndNamePairHashN14dense_hash_mapIS6_iS9_NS6_14EqualsComparerI26NamespaceAndNamePairEqualsEENS0_9allocatorIS8_EEE9SelectKeyESD_SF_E10test_emptyEj
WVk:_BBundleTextAssetLoader_remove_OnLoadedTextAsset_m1287755878
l3r:_Action_1_Invoke_m1604875246_gshared
d1t:__ZN14dense_hash_mapI10KeyWrapperIPK19Il2CppGenericMethodEP10MethodInfoN6il2cpp8metadata23Il2CppGenericMethodHashENS4_14EqualsComparerINS8_26Il2CppGenericMethodCompareEEENSt3__29allocatorINSD_4pairIKS4_S6_EEEEEC2EjRKS9_RKSC_
zBp:_GooglePlayRTM_SendDataToAll_m1953751574
bHe:__ZN5physx23PxcPCMContactConvexMeshERKNS_2Gu13GeometryUnionES3_RKNS_11PxTransformES6_RKfRNS_10PxcNpCacheERNS0_13ContactBufferE
Hpb:__ZNK21UnityDefaultAllocatorI17LowLevelAllocatorE8ContainsEPKv
Rj:_emscripten_get_main_loop_timing
jzm:_DirectoryInfo__ctor_m3750996792
jrj:_BaseMeshEffect_ModifyMesh_m2134816219
Vip:_CueShotChecker_GameEnd_m668611790
tMb:__ZN24GenerateTypeTreeTransfer21TransferSTLStyleArrayINSt3__26vectorIN15QualitySettings14QualitySettingENS1_9allocatorIS4_EEEEEEvRT_17TransferMetaFlags
vAp:_GooglePlayManager_OnScoreSubmitted_m2179858919
dUb:__ZNSt3__26vectorI14SubstanceInputNS_9allocatorIS1_EEE8__appendEj
byt:__ZN6il2cpp6icalls6System6System3Net7Sockets6Socket15SetSocketOptionE12Il2CppIntPtrNS4_17SocketOptionLevelENS4_16SocketOptionNameEP12Il2CppObjectP11Il2CppArrayiPi
Pib:__ZN23ManagedAttributeManager52CallManagedGetParentTypeDisallowingMultipleInclusionE17ScriptingClassPtr
hVb:__ZNSt3__26vectorI9InputAxisNS_9allocatorIS1_EEE6resizeEj
k7a:__ZN13BatchRendererC2ER15RenderLoopStatsRK15RenderNodeQueuebbb
UVi:_SecurityElement_IsValidAttributeValue_m483287146
YEk:_Decoder_set_Fallback_m1780632169
_5c:__ZNK15PolynomialCurve18EvaluateIntegratedERKN4math7_float4E
iDq:_ShopScreenController__ctor_m2582310808
I7p:_XsollaJsonGenerator_Base64Encode_m4107912974
Us:getTempRet0
wki:_NetworkingPeer_HandleEventLeave_m2205614259
JYm:_AnimationClipPlayable_set_applyFootIK_m1054409049
w8k:_ObscuredUInt_ApplyNewCryptoKey_m3428754316_AdjustorThunk
b5c:__ZN26SizeModulePropertyBindings13GetFloatValueERK14ParticleSystemi
Akl:_XmlSerializationReaderInterpreter_ReadMessage_m2213118201
xOl:_UM_GameServiceExample_OnPlayerDisconnected_m639739794
x1j:_PhotonTransformViewScaleModel__ctor_m955009723
D4n:__Z114RuntimeInvoker_Void_t1841601450_Il2CppObject_Il2CppObject_Int32_t2071877448_Il2CppObject_Il2CppObject_Il2CppObjectPK10MethodInfoPvPS2_
dKc:__Z40SystemInfo_Get_Custom_PropProcessorCountv
wbm:_GoogleAnalyticsClient_SetDocumentHostName_m284963865
Jzj:_Image_AddQuad_m1603575622
$Ut:__ZN30dense_hashtable_const_iteratorINSt3__24pairIK10KeyWrapperIP12Il2CppObjectEN6il2cpp2gc9CachedCCWEEES5_NS7_5utils11PointerHashIS3_EEN14dense_hash_mapIS5_S9_SD_NS5_14EqualsComparerINS0_8equal_toIS4_EEEENS0_9allocatorISA_EEE9SelectKeyESI_SK_EppEv
Tdb:__ZN18DeferredRenderLoopD2Ev
zZo:_Protocol_DeserializeFloat_m262258855
t8l:_Serializer_SerializeObject_m953304733
Cia:__ZNK16TypeTreeIterator4NameEv
Ors:_Uri_GetChars_m1006552869
M9:__ZN15FileSystemEntry3SetEPKc
eOe:__ZN5physx6shdfnd5ArrayIPNS_13PxcNpMemBlockENS0_19ReflectionAllocatorIS3_EEE6resizeEjRKS3_
KYi:_MACTripleDES__ctor_m884945242
Rph:__ZL78SpeedHackDetector_t1152147286_CustomAttributesCacheGenerator_maxFalsePositivesP21CustomAttributesCache
qJc:__Z52Register_UnityEngine_Application_set_targetFrameRatev
$qr:_Sprite_INTERNAL_get_rect_m2819780324
GY:__ZN20SoundChannelInstance15ParameterBuffer5ApplyEPN4FMOD7ChannelE
Hkc:_jinit_c_main_controller
p$l:_GameCenter_RTM_remove_ActionMatchFailed_m4123413222
HU:__Z117Register_UnityEngine_Experimental_Director_AnimatorControllerPlayable_INTERNAL_CALL_GetAnimatorTransitionInfoInternalv
f9e:__ZN20TextRenderingPrivate19NativeTextGenerator9InsertTabEv
Sjj:_Array_InternalArray__set_Item_TisPart_t467884768_m1060172999_gshared
kVk:_U3CDownloadFromAWSU3Ec__Iterator1_MoveNext_m606537178
m1e:__ZN5physx7profile8ZoneImplINS_28PxProfileNameProviderForwardEE21setProfileZoneManagerEPNS_20PxProfileZoneManagerE
urp:_Parameter__ctor_m1372047114
Ck:_glIsEnabled
Otm:_Guid_ToString_m51661589_AdjustorThunk
$Hd:__ZN5physx3Cct17CapsuleController15setFootPositionERKNS_14PxExtendedVec3E
xFd:__ZN5physx2Gu33PCMCapsuleVsMeshContactGeneration13generateEEMTDERKNS_6shdfnd3aos5Vec3VES6_RKNS3_6FloatVES6_jS6_S6_PNS0_21MeshPersistentContactERj
h0b:__Z25scripting_class_get_image17ScriptingClassPtr
Kjk:_UICamera_Awake_m3800014275
fsl:_ValueCollection_System_Collections_Generic_ICollectionU3CTValueU3E_Remove_m1492885958_gshared
Lfd:__ZN8UVModuleD0Ev
Fk:_emscripten_glDrawElementsInstanced
KI:__ZN26AnimatorControllerPlayable27SetupStateMachineBehavioursEv
Foq:_AN_SoomlaGrow_remove_ActionDisconnected_m4060298540
Uin:_ARC4Managed_Dispose_m4102232694
mjn:_HMAC_Initialize_m3052649104
GZj:_PhotonLagSimulationGui__ctor_m615116699
CEa:__ZN18JobBatchDispatcherD2Ev
pjc:__ZN9Transform17MainThreadCleanupEv
O5t:_GC_clear_hdr_marks
UCu:_emscripten_glCreateShader__wrapper
vif:_cff_fd_select_get
uDf:__ZL73CompilationRelaxationsAttribute_t238494011_CustomAttributesCacheGeneratorP21CustomAttributesCache
kBu:_emscripten_glTexParameteri__wrapper
GQ:__Z13RegisterClassI18AnimatorControllerEvv
pRj:_UIPopupList_get_data_m2109754155
zZi:_Rijndael_Create_m369328687
Lmi:_NGUIMath_ResizeWidget_m3807347739
Obt:_JsonReader_ReadInternal_m2268406317
m0i:_SHA512Managed_processBlock_m3220567420
Uvn:_NameObjectCollectionBase_get_Keys_m446053925
Tc:invoke_iiifiiffiidii
krm:_DateTimeFormatInfo__ctor_m3295851604
Qk:_emscripten_glGetShaderiv
C$a:__ZZ23InitPlayerLoopCallbacksvEN41EarlyUpdateUpdateAllUnityWebStreamsstruct7ForwardEv
pam:_GoogleAnalyticsClient_CheckDataLength_m339145532
IZ:__ZN4FMOD6System10getVersionEPj
$Oe:__ZN5physx2Sc7BodySim10sleepCheckEffb
hcj:_Array_InternalArray__IndexOf_TisSByte_t454417549_m1427585061_gshared
kof:__ZN2UI6Canvas23VirtualRedirectTransferER24GenerateTypeTreeTransfer
eGi:_Decimal_u64_m3991988111
r3s:_Predicate_1_BeginInvoke_m2959352225_gshared
Txr:_CanvasFacebook_get_SDKName_m952636314
tgt:_Builtins_join_m2036613869
SLs:_X509Certificate_Parse_m1764345628
EEr:_AndroidFacebook_GetAppLink_m916939895
kNp:_Dictionary_2_Do_ICollectionCopyTo_TisIl2CppObject_m1664293864_gshared
Yir:_PlayerPrefs_GetInt_m2889062785
N7e:__ZN13TextRendering4Font13AwakeFromLoadE17AwakeFromLoadMode
XIa:__ZN9GfxDevice21ReleaseSharedMeshDataEP14SharedMeshData
zjf:_cf2_hintmask_setAll
Fgs:_CanvasRenderer_get_absoluteDepth_m4243141
ZVb:__ZNSt3__27__sort5IRNS_6__lessINS_4pairIPKN5Unity4TypeE7Hash128EES8_EEPS8_EEjT0_SC_SC_SC_SC_T_
tzn:_Cookie__ctor_m1989068482
j5h:_Collection_1_ConvertItem_m3168406667_gshared
Veu:_vprintf
yEr:_AndroidFacebook_LogInWithPublishPermissions_m2112123759
WOp:_Array_FindLast_TisIl2CppObject_m1794562749_gshared
zzr:_Constants_get_IsEditor_m2386263146
fDu:b185
Znr:_Resources_Load_m2041782325
r6t:_maybe_finalize
Fqt:__ZN6il2cpp2vm5Class40GetInterfaceInvokeDataFromVTableSlowPathEPK12Il2CppObjectPK11Il2CppClassj
tTc:__Z43RectTransform_CUSTOM_INTERNAL_get_anchorMaxP12Il2CppObjectP13Vector2fIcall
C1d:__ZN5physx14NpShapeManagerC2Ev
O_j:_PhotonNetwork_get_gameVersion_m1933068691
Cnr:_Renderer_INTERNAL_get_bounds_m1299274192
NLq:_ObjectIDGenerator__ctor_m278693416
l4i:_Array_InternalArray__ICollection_Contains_TisKeyValuePair_2_t289042807_m1091125565_gshared
uua:__ZN8Material28UpdateHashesOnPropertyChangeEN9ShaderLab16FastPropertyNameE
TUc:__Z53Register_UnityEngine_SortingLayer_GetLayerValueFromIDv
LAi:_CaseInsensitiveComparer_Compare_m1192858479
HXq:_InternalEnumerator_1_get_Current_m4168733561_AdjustorThunk
V1b:__Z18Transfer_BlittableI14SafeBinaryReadLb1E8Vector4fEvRK29SerializationCommandArgumentsR31RuntimeSerializationCommandInfo
yfk:_TweenTransform_OnUpdate_m2381480670
OYr:_CompareFunc_Invoke_m2297287975_gshared
gNn:_Default_SelectMethod_m622251293
aCc:__Z27LoadMemoryBufferIntoTextureR9Texture2DPKhj20LoadImageCompressionb
YA:__ZN8Animator23VirtualRedirectTransferER19StreamedBinaryWriteILb0EE
$E:__ZN11UnityEngine9Animation32CreateAnimatorGenericBindingsOptERKNS0_20AnimationSetBindingsER9TransformPKN7mecanim9animation14AvatarConstantEPKNS0_21AvatarBindingConstantEbRNS6_6memory9AllocatorER8Animator
Q9k:_ObscuredUShort_op_Implicit_m3036282661
NWt:__ZN6il2cpp2vm5Image13ClassFromNameEPK11Il2CppImagePKcS6_
Kqu:dynCall_vdddddd
hVp:_XmlConvert_FromBinHexString_m2538267662
Agc:__ZN24GenerateTypeTreeTransfer21TransferSTLStyleArrayINSt3__26vectorIN9ShaderLab14SerializedPassENS1_9allocatorIS4_EEEEEEvRT_17TransferMetaFlags
xfa:__ZL32MarkLevelGameManagerDependenciesR27GarbageCollectorThreadState
fLa:__ZNK13GfxDeviceGLES26HasActiveRandomWriteTargetEv
WHb:_gray_rgb_convert
a3h:_Collection_1_IsFixedSize_m920288628_gshared
pxu:_glGetActiveUniformsiv__wrapper
x_l:_GetTournamentBall_Analysis_m158118632
PUc:__Z43Register_UnityEngine_Material_EnableKeywordv
vxd:__ZNK5physx3Cct10Controller16getInternalStateERNS_17PxControllerStateE
wpl:_Enumerator_Dispose_m3937686072_AdjustorThunk
Uga:__ZN13MonoBehaviour19SetupScriptingCacheE17ScriptingClassPtrP10MonoScript
Dht:__ZL9rshift128PyS_
K9n:__Z59RuntimeInvoker_Il2CppObject_Double_t4078015681_Il2CppObjectPK10MethodInfoPvPS2_
uw:__Z20AnimationEventToMonoRK14AnimationEventR18MonoAnimationEvent
pLq:_ObjectReader_RecordFixup_m1893348030
Ste:__ZN5physx10PxsContext15setScratchBlockEPvj
wPm:_U3CTryToDownloadRegistrationFormU3Ec__Iterator0_MoveNext_m3075265916
YNc:__Z52Register_UnityEngine_RectOffset_INTERNAL_CALL_Removev
Ehl:_XmlSerializableMapping__ctor_m1919179729
$gg:__ZL74UnityEventBase_t828812576_CustomAttributesCacheGenerator_m_PersistentCallsP21CustomAttributesCache
MXs:_IndexedSet_1_AddUnique_m3246859944_gshared
IFt:__ZN15dense_hashtableINSt3__24pairIK10KeyWrapperINS1_IPK14Il2CppAssemblyP11Il2CppClassEEEjEES9_17ReflectionMapHashIS8_EN14dense_hash_mapIS9_jSD_NS9_14EqualsComparerINS0_8equal_toIS8_EEEENS0_9allocatorISB_EEE9SelectKeyESI_SK_E6insertERKSB_
sbn:_Input_GetMouseButtonUp_m1275967966
VLt:__ZN14dense_hash_mapI10KeyWrapperINSt3__24pairIPK12PropertyInfoP11Il2CppClassEEEj17ReflectionMapHashIS8_ENS9_14EqualsComparerINS1_8equal_toIS8_EEEENS1_9allocatorINS2_IKS9_jEEEEE13set_empty_keyERSH_
gak:_TBM_Game_Example_Init_m738027120
vMd:__ZN5physx2Cm27getDynamicGlobalPoseAlignedERKNS_11PxTransformES3_S3_RS1_
Zak:_ThirdPersonCamera_DebugDrawStuff_m2271167903
P4n:__Z45RuntimeInvoker_Il2CppObject_IntPtr_t_IntPtr_tPK10MethodInfoPvPS2_
MBe:__ZN5physx12solve1DBlockEPKNS_23PxcSolverConstraintDescEjRNS_16PxcSolverContextE
JUe:__ZN5physx6shdfnd5ArrayIPvNS0_19ReflectionAllocatorIN17PxcPoolMallocData10PoolData32EEEE15growAndPushBackERKS2_
pfc:__ZNSt3__26vectorIN9ShaderLab20SerializedSubProgram13BufferBindingENS_9allocatorIS3_EEEC2INS_11__wrap_iterIPS3_EEEET_SB_RKS5_PNS_9enable_ifIXaasr21__is_forward_iteratorISB_EE5valuesr16is_constructibleIS3_NS_15iterator_traitsISB_E9referenceEEE5valueEvE4typeE
Kvc:__ZZL23RegisterLightPropertiesR22GenericPropertyBindingEN20Wrapper_LightColorb213GetFloatValueEPv
dHk:_StringBuilder_Append_m3194953358
Rmd:__ZN12b2WheelJoint24SolveVelocityConstraintsERK12b2SolverData
GOm:_AS_AccountManagementGUI_Init_m4255118038
fEb:__ZN9Texture2D23VirtualRedirectTransferER18StreamedBinaryReadILb0EE
Jod:__ZN10Collider2D8TransferI24GenerateTypeTreeTransferEEvRT_
_3m:_GUIClip_Pop_m603598875
aLs:_ExtendedKeyUsageExtension_Encode_m3429751649
KRi:_Double_System_IConvertible_ToUInt16_m286326038_AdjustorThunk
H1p:_XmlTextWriter_WriteStartDocument_m4280227132
oan:_GUIStyleState_Cleanup_m705006206
Hml:_XmlSerializationWriterInterpreter_WriteListContent_m3120957533
MJq:_TypeInfo__ctor_m1475908211
wwb:__ZNSt3__26__treeINS_12__value_typeIN4core12basic_stringIcNS2_20StringStorageDefaultIcEEEEjEENS_19__map_value_compareIS6_S7_NS_4lessIS6_EELb1EEE13stl_allocatorIS7_L18MemLabelIdentifier6ELi16EEE7destroyEPNS_11__tree_nodeIS7_PvEE
Aha:__ZN16ScriptingManager27NativeTypeForScriptingClassE17ScriptingClassPtr
Qqr:_SliderHandler_ThumbSize_m3714327193_AdjustorThunk
m5q:_Enumerator_VerifyCurrent_m144374505_AdjustorThunk
ctk:_X509Chain_WrapUp_m1072032285
mNs:_X509CertificateEnumerator_System_Collections_IEnumerator_MoveNext_m1448966539
xff:_get_sfnt_table
Aan:_GUITexture_set_pixelInset_m2054734980
zJh:_List_1_IndexOf_m441311894_gshared
n2h:_Collection_1_IsSynchronized_m3261594010_gshared
E1a:_unity_z_tr_stored_block
FKm:_AndroidNativeUtility_add_LocaleInfoLoaded_m3440298296
vsq:_AndroidGoogleAdsExample_CreateBannerBottomRight_m4281498822
Roc:__Z13RegisterClassI5LightEvv
haj:_Array_compare_TisIl2CppObject_m1481822507_gshared
D3e:__ZN5physx2Gu20registerHeightFieldsEv
ffb:__ZL22ScheduleSceneNodesJobsP25ScheduleSceneNodesJobDataj
vCe:__ZN5physx22concludeContactCoulombERKNS_23PxcSolverConstraintDescERNS_16PxcSolverContextE
Be:_emscripten_set_canvas_size
Pde:__ZNK5physx15NpParticleFluid12getStiffnessEv
JNj:_UILabel_set_lineWidth_m3028732425
dCi:_Hashtable__ctor_m741952536
X2q:_Comparer_1__cctor_m2253684996_gshared
J$p:_XmlReader_ReadElementString_m1037752001
Hfc:__ZNSt3__26vectorIN9ShaderLab20SerializedSubProgramENS_9allocatorIS2_EEE8__appendEj
c7:__ZN20DynamicHeapAllocatorI17LowLevelAllocatorE8AllocateEji
yvc:__ZN12LineRenderer10LinePointsD0Ev
M7a:__ZN20DynamicPropertySheet15SetVectorQueuedERKN9ShaderLab16FastPropertyNameERK8Vector4fN19ShaderPropertySheet8SetFlagsE
nDk:_String_Format_m1263743648
Hct:_JsonTextReader_ClearRecentString_m2668805240
Mfk:_TweenWidth_get_cachedWidget_m1802285104
yEs:_ReadOnlyCollection_1_System_Collections_IEnumerable_GetEnumerator_m4248982967_gshared
FB:__ZN7mecanim9animation22EvaluateAvatarRetargetEPKNS0_14AvatarConstantEPKNS0_11AvatarInputEPNS0_12AvatarOutputEPNS0_12AvatarMemoryEPNS0_15AvatarWorkspaceEb
Hak:_TBM_Multiplayer_Example_ActionMacthEnded_m3718409135
IAb:__ZN14RenderSettings23VirtualRedirectTransferER19StreamedBinaryWriteILb0EE
s6m:_GUILayout_ExpandHeight_m3157662872
bVl:_Users__ctor_m2258856505
HOa:__ZN17GenericDynamicVBO10AllocateVBEjR21DynamicVBOChunkHandle
GHh:_List_1_get_Item_m1547593893_gshared
gFn:_FtpWebResponse_get_Headers_m1164624792
oEi:_SortedList_Contains_m89042552
Wym:_Path_GetPathRoot_m1269357080
BGe:__ZL27PxcTestFacesSepAxesBackfaceRKN5physx2Gu13PolygonalDataES3_RKNS_2Cm8Matrix34ES7_RKNS4_23FastVertex2ShapeScalingESA_S7_RKNS_6PxVec3ERfRSB_RjPjSG_fSD_
NMm:_AnimatedAlpha__ctor_m920898894
wLj:_UIInput_Validate_m4006471114
cUt:__ZN30dense_hashtable_const_iteratorI10KeyWrapperIP18Il2CppGenericClassES3_N6il2cpp8metadata22Il2CppGenericClassHashEN14dense_hash_setIS3_S6_NS3_14EqualsComparerINS5_25Il2CppGenericClassCompareEEENSt3__29allocatorIS3_EEE8IdentityESA_SD_EppEv
fVm:_AudioController_RemoveCategory_m745786373
pOm:_AS_MySQLFieldMethods_GetFieldValue_m1685260861
kmj:_EventSystem_SetSelectedGameObject_m2211816110
Dhi:_MobileNativeRateUs__ctor_m348088776
dn:_glMapBufferRange
_Db:__ZN9Texture2D8TransferI18StreamedBinaryReadILb0EEEEvRT_
n8q:_Enumerator_VerifyState_m1671341316_AdjustorThunk
bQc:__Z31Input_CUSTOM_GetMouseButtonDowni
lwi:_Byte_Parse_m2794793287
IOj:_UILocalize_Start_m1659896164
ryc:__ZN13PlayableGraph4PlayEv
a9d:__ZNK5physx7NpCloth23getExternalAccelerationEv
t5a:__ZNK9Transform16GetLocalPositionEv
I7d:__ZN5physx6shdfnd5ArrayItNS0_19ReflectionAllocatorItEEE8recreateEj
cMb:__ZNK15QualitySettings26GetTypeInfoVirtualInternalEv
r8t:__ZN6il2cpp2vm23MetadataAllocInitializeEv
VDe:__ZN5physx16PxsBroadPhaseMBP9updatePPUEPNS_10PxBaseTaskE
YUi:_SByte_System_IConvertible_ToInt16_m2746591444_AdjustorThunk
t1p:_XmlTextReader_ReadString_m209810072
sLa:__ZN13GfxDeviceGLES22DispatchComputeProgramE12ObjectHandleI18ComputeProgram_TagPvE15ComputeBufferIDj
HPl:_UM_InAppProduct_get_Title_m994989285
U9m:_GUIStyle_set_contentOffset_m2138084868
d3h:_Collection_1_System_Collections_ICollection_CopyTo_m4193844941_gshared
Qw:__ZNK13AnimationClip15GetAverageSpeedEv
TIi:_Convert_ToInt32_m2297793940
hEa:__Z17TransformAABBSlowRK4AABBRK10Matrix4x4fRS_
zJb:__ZN15SerializeTraitsI13dynamic_arrayI7Hash128Lj8EEE19ResizeSTLStyleArrayERS2_i18MemLabelIdentifier
Fvq:_WP8SocialManager_TwitterPost_m849819235
$Lt:__ZN13Il2CppHashMapINSt3__24pairIPK9FieldInfoP11Il2CppClassEEj17ReflectionMapHashIS7_ENS0_8equal_toIS7_EENS0_9allocatorINS1_IK10KeyWrapperIS7_EjEEEEEC2EjRKS9_RKSB_
Fgl:_XmlCustomFormatter_FromXmlString_m4185517408
wec:__ZN9ShaderLab21SerializedShaderState8TransferI14SafeBinaryReadEEvRT_
igl:_XmlElementAttributes_get_Item_m3962647832
ffu:_ftruncate
S4q:_Enumerator_VerifyCurrent_m144374505_gshared
hSp:_XmlNameEntryCache_GetInternal_m1384518796
l$i:_RSAPKCS1SignatureFormatter_SetKey_m2365816458
GTe:__ZN5physx2Gu13RTreeMidphaseC2Ev
sjf:_cf2_stack_pushInt
E8r:_Animation_GetEnumerator_m3067441975
Yfe:__ZN5physx6shdfnd8PoolBaseINS_16NpParticleSystemENS0_19ReflectionAllocatorIS2_EEE12allocateSlabEv
ijs:_Component_BroadcastMessage_m444672650
eJk:_CompressedStack__ctor_m276924800
znj:_ExecuteEvents_get_cancelHandler_m1964324668
TTm:_AudioController_StopMusic_m338114656
Fva:__ZN15SerializeTraitsINSt3__24pairIN4core12basic_stringIcNS2_20StringStorageDefaultIcEEEES6_EEE8TransferI24GenerateTypeTreeTransferEEvRS7_RT_
Nvu:b88
XOo:_Room_get_maxPlayers_m2910163467
vzr:_ComponentFactory_get_FacebookGameObject_m4175809231
kUj:_UISliderColors__ctor_m749027614
Avu:b81
xBb:__ZN10GUITexture16RenderGUIElementERK5RectTIfER17ShaderPassContext
Cvu:b83
dia:__ZN18ResourceImageGroup7CleanupEv
Bor:_Rigidbody2D_set_isKinematic_m548319077
jPd:__ZN5physx2Gu36closestPtPointTetrahedronTesselationEPNS_6shdfnd3aos5Vec3VES4_S4_RjRS3_S6_
Hvu:b86
QGe:__ZN5physx25PxcPCMContactSphereConvexERKNS_2Gu13GeometryUnionES3_RKNS_11PxTransformES6_RKfRNS_10PxcNpCacheERNS0_13ContactBufferE
KYb:__ZNK9WWWCached14GetPartialDataEv
evc:__ZN13ProduceHelperI4MeshLb0EE7ProduceE18MemLabelIdentifier18ObjectCreationMode
qkn:_PrivateKeyInfo_Decode_m1053025782
Jmm:_PKCS12_Decrypt_m2457743414
XBb:__ZN8Playable19SetOutputConnectionEPS_i
bwd:__Z42Rigidbody2D_Get_Custom_PropAngularVelocityP12Il2CppObject
Zjk:_GetTouchCountCallback_Invoke_m2268871846
Tn:_glDeleteShader
TCt:_il2cpp_exception_from_name_msg
DY:__ZN11SoundHandle8Instance15UpdateLoadStateEv
GKc:__Z54Register_UnityEngine_SystemInfo_get_graphicsDeviceNamev
KTi:_Exception_GetType_m3898489832
Vya:__ZN6prcoreL17RemapGenericFloatI15TexFormatRGHalf16TexFormatRGFloatEEvPKNS_9InnerInfoE
U3d:__ZN5physx6shdfnd8PoolBaseINS_10NpMaterialENS0_19ReflectionAllocatorIS2_EEE15disposeElementsEv
R6j:_JSONLazyCreator_set_AsFloat_m2943361563
Jwr:_ResultBase_Init_m2362672457
x$a:__ZZ23InitPlayerLoopCallbacksvEN38EarlyUpdateExecuteMainThreadJobsstruct7ForwardEv
g9j:_SupportLogging_LogStats_m140678274
EMr:_Shadow_set_effectColor_m3110056844
Gir:_Physics2D_GetColliderFromInstanceID_m95920619
gFi:_Stack_Contains_m2994851559
fkl:_XmlSerializationReader_ReadReferencingElement_m3449951426
tHc:__Z27scripting_add_internal_callPKcPKv
Nhj:_Array_InternalArray__Insert_TisUriScheme_t1876590943_m2728325409_gshared
LXq:_InternalEnumerator_1_System_Collections_IEnumerator_get_Current_m3732729179_gshared
H_g:__ZL56UIOrthoCamera_t1890393437_CustomAttributesCacheGeneratorP21CustomAttributesCache
IUt:__GLOBAL__sub_I_GarbageCollector_cpp
Oyd:__ZL21ContactReductionAllInRN5physx2Gu13ContactBufferEjjRKNS_7PxMat33EPKNS_6PxVec3EPKh
d1p:_XmlTextReader_get_LineNumber_m2626706892
zNs:_X509Store_CheckStore_m1027496478
HAo:__Z87RuntimeInvoker_Int32_t2071877448_UIVertex_t1204258818_UIVertex_t1204258818_Il2CppObjectPK10MethodInfoPvPS2_
zKm:_AndroidNativeUtility_add_OnAndroidIdLoaded_m3476932343
Nhu:__ZNKSt3__27num_putIcNS_19ostreambuf_iteratorIcNS_11char_traitsIcEEEEE6do_putES4_RNS_8ios_baseEcPKv
N1l:_GameCenter_TBM_OnMatchFoundResult_m1018990405
bE:__ZN26AnimatorControllerPlayable18SetLayerAutoWeightEv
Yc:invoke_vffff
vjl:_XmlSerializationReader_CreateUnknownNodeException_m307510187
Mnu:__ZNSt3__212basic_stringIcNS_11char_traitsIcEENS_9allocatorIcEEEC2ERKS5_jjRKS4_
Bp:FUNCTION_TABLE_vififii
H0q:_DefaultComparer_Compare_m1606207039_gshared
uqf:__ZN2UI14CanvasRenderer12SyncMaterialENS0_8SyncFlagE
Rmu:__ZNSt3__26locale5__imp7installINS_7codecvtIDsc11__mbstate_tEEEEvPT_
RAu:_emscripten_glGetRenderbufferParameteriv__wrapper
t9t:__ZN6il2cpp2vm9Parameter30GetDefaultParameterValueObjectEPK10MethodInfoPK13ParameterInfoPb
cjj:_Array_InternalArray__set_Item_TisLabelData_t3712112744_m2253365137_gshared
j1s:_Nullable_1_GetHashCode_m2841619984_gshared
wfn:_MonoBehaviour_Invoke_m666563676
NUb:__ZNSt3__26vectorIhNS_9allocatorIhEEE8__appendEj
lWc:__Z36Time_Get_Custom_PropMaximumDeltaTimev
eKm:_AndroidNative_runPackage_m715458662
KDm:_StringReader__ctor_m643998729
CBn:_IPv6Address_TryParse_m2220524278
rIs:_ReadOnlyCollection_1_System_Collections_ICollection_CopyTo_m1332019956_gshared
uYh:_Collection_1_IsFixedSize_m202442401_gshared
UWh:_Queue_1_Peek_m1435793310_gshared
Etp:_ConsoleBase_LabelAndTextField_m425453358
lss:_PropertyInfo_SetValue_m2961483868
pA:__ZN14AnimationEvent8TransferI19StreamedBinaryWriteILb0EEEEvRT_
tz:__ZN7mecanim9animation9DenseClip8TransferI24GenerateTypeTreeTransferEEvRT_
Oet:_ChatClient_ExitGames_Client_Photon_IPhotonPeerListener_OnStatusChanged_m2883708845
YHi:_Decimal_Parse_m2662862650
off:_UNITY_tt_face_done_kern
y2:__ZN10AudioMixer6UpdateEf
PTb:__ZN14SafeBinaryRead21TransferSTLStyleArrayINSt3__26vectorI14SubstanceInputNS1_9allocatorIS3_EEEEEEvRT_17TransferMetaFlags
h4j:_PlayerDiamond_UpdateDiamondPosition_m86164770
T1c:__Z59GUIStyle_CUSTOM_Internal_GetNumCharactersThatFitWithinWidth13Il2Cpp_IntPtrP12Il2CppStringf
sXr:_XmlSchemaAnnotated__ctor_m3212660426
MUb:__ZNSt3__26__treeINS_12__value_typeIjP25SubstanceRawTextureSharedEENS_19__map_value_compareIjS4_NS_4lessIjEELb1EEE13stl_allocatorIS4_L18MemLabelIdentifier77ELi16EEE7destroyEPNS_11__tree_nodeIS4_PvEE
Hkn:_RSAManaged_GetPaddedValue_m2972141669
nLr:_ScrollRect_OnDrag_m1424848249
Boa:__Z19scripting_gc_enablev
mnq:_AN_PlusButtonProxy_createPlusButton_m3228847452
v2e:__ZN5physx7profile11EventBufferINS_24PxDefaultContextProviderENS_6shdfnd6MutexTINS0_26WrapperReflectionAllocatorIhEEEENS0_14ScopedLockImplIS7_EENS_24PxProfileNullEventFilterEE9stopEventEty
DHn:_LocalCertificateSelectionCallback_Invoke_m2908082640
usf:__Z55Register_UnityEngine_CanvasRenderer_DisableRectClippingv
UJt:__ZN6il2cpp2gc19AppendOnlyGCHashMapINSt3__24pairIPK10MethodInfoP11Il2CppClassEEP11Il2CppArray17ReflectionMapHashIS9_ENS2_8equal_toIS9_EEE3AddERKS9_SB_
Vxk:_Interval_CompareTo_m2909556284_AdjustorThunk
fHb:_start_pass_huff_decoder
AOb:__ZN14SafeBinaryRead21TransferSTLStyleArrayI13dynamic_arrayI11ColorRGBA32Lj4EEEEvRT_17TransferMetaFlags
ebk:_ThirdPersonController_Awake_m1924817928
HWp:_XmlDocument_ReadNode_m1226928635
yhn:_BigInteger_op_Implicit_m3634001681
Mwk:_Interpreter_GetLastDefined_m2450713313
IGr:_Mask_OnEnable_m501850981
NOr:_Toggle__ctor_m272261215
Ins:_Parser_ParseAssertionType_m3316669790
P$m:_AnimatorControllerPlayable_PlayInternal_m3385259863
uam:_GoogleAnalyticsClient_GenerateWWW_m2703308809
jjc:__ZNSt3__27__sort4IRNS_6__lessIN4core12basic_stringIcNS2_20StringStorageDefaultIcEEEES6_EEPS6_EEjT0_SA_SA_SA_T_
CTj:_UIScrollBar_ForceUpdate_m4082460291
aik:_UIButton_OnDragOver_m4143789420
nKt:__ZN6il2cpp2gc19AppendOnlyGCHashMapINSt3__24pairIPK11Il2CppImageP11Il2CppClassEEP22Il2CppReflectionModule17ReflectionMapHashIS9_ENS2_8equal_toIS9_EEEC2Ev
R6t:_GC_is_disabled
Mfa:__Z20GetPersistentManagerv
Fmf:_UNITY_TT_Set_Var_Design
IMh:_List_1_FindAllStackBits_m1829004181_gshared
K3r:_Action_1_BeginInvoke_m1592224130_gshared
coa:__ZN21SystemInfoStringCache16StaticInitializeEPv
cmn:_TlsStream__ctor_m4117943603
gjj:_Array_InternalArray__set_Item_TisParameterModifier_t1820634920_m3126548327_gshared
F_h:_Collection_1_IsSynchronized_m1770501505_gshared
QNd:__ZN5physx2Sc7BodySim18internalWakeUpBaseEf
eRo:_SALevelLoader__ctor_m2458354136
k$b:__ZNK13MonoBehaviour7GetNameEv
Ijk:_MouseOrTouch__ctor_m422044278
EAa:__ZN19ScriptingInvocation28AdjustArgumentsToMatchMethodEv
oUt:__ZN15dense_hashtableI10KeyWrapperIP18Il2CppGenericClassES3_N6il2cpp8metadata22Il2CppGenericClassHashEN14dense_hash_setIS3_S6_NS3_14EqualsComparerINS5_25Il2CppGenericClassCompareEEENSt3__29allocatorIS3_EEE8IdentityESA_SD_E6insertERKS3_
Naq:_XsollaPaystation_U3CStartPaymentU3Em__2_m3119516547
tzb:__Z20RenderMultipleMeshesRK15RenderNodeQueueRK18RenderMultipleData17ShaderChannelMask
Sgk:_UI2DSpriteAnimation_UpdateSprite_m2429052910
jXj:_PanWithMouse_Update_m607103388
mcn:_LineRenderer_SetPosition_m4048451705
qDm:_NullStreamReader_ReadToEnd_m591306942
hek:_TweenFOV_get_fov_m952446985
iFt:__ZN6il2cpp2vm4Type19GetGenericParameterEPK10Il2CppType
Jyp:_GooglePlayManager_showAchievementsUI_m2628188988
G9c:__ZN11ShapeModule5ResetEv
Vrf:__Z51Register_UnityEngine_CanvasGroup_get_blocksRaycastsv
Fxu:b119
XJi:_Convert_EndianSwap_m975554045
s5q:_Enumerator_VerifyCurrent_m3667735842_gshared
qzn:_ChunkStream_get_ChunkLeft_m3001057228
RSq:_InternalEnumerator_1_get_Current_m10285187_AdjustorThunk
esu:dynCall_diiii
_Re:__ZN5physx13BigConvexData5VLoadERNS_13PxInputStreamE
lur:_TextGenerator__ctor_m11880227
wIt:__ZNK15dense_hashtableINSt3__24pairIK10KeyWrapperINS1_IPK11Il2CppImageP11Il2CppClassEEEjEES9_17ReflectionMapHashIS8_EN14dense_hash_mapIS9_jSD_NS9_14EqualsComparerINS0_8equal_toIS8_EEEENS0_9allocatorISB_EEE9SelectKeyESI_SK_E3endEv
kf:_glBeginQuery
KLn:_Assembly_GetCustomAttributes_m95309865
xEi:_SortedList_GetKey_m107993602
P4m:_GUILayoutUtility_INTERNAL_CALL_Internal_GetWindowRect_m3236664463
PLs:_X509Certificate__ctor_m2941481449
SL:__ZN18AnimatorController19TransferRuntimeDataI24GenerateTypeTreeTransferEEvRT_
zEi:_Enumerator__cctor_m3784927209
zIb:_jpeg_alloc_huff_table
awe:__ZN5physx11NodeManager6resizeEj
H4t:_GC_finish_collection
fvd:__ZN10Effector2D25CheckEffectorColliderMaskEP10Collider2DS1_
X2a:__ZN6Camera12RenderStereoENS_10RenderFlagE8CullFlagPNS_24PerformEyeRenderFunctionE
Sin:_RC4__ctor_m1585026462
V8:__ZN20LocalFileSystemPosix10ToAbsoluteEPKc
lzb:__ZN20TierGraphicsSettings8TransferI19StreamedBinaryWriteILb0EEEEvRT_
lVq:_InternalEnumerator_1_get_Current_m2286118957_AdjustorThunk
csr:_SystemInfo_get_graphicsDeviceVendorID_m3686770293
icj:_Array_InternalArray__IndexOf_TisX509ChainStatus_t4278378721_m1338369069_gshared
lwu:b112
Zyh:_List_1_System_Collections_IList_Add_m86159926_gshared
zpe:__ZNK5physx7NpScene28getSceneQueryStaticTimestampEv
$Ip:_iAdBanner_bannerViewDidLoadAd_m2855627174
Kni:_NGUITools_PlaySound_m257523534
$Fb:_UNITY_png_do_expand
Ndu:_getcwd
i$e:__ZNSt3__26vectorI9CollisionNS_9allocatorIS1_EEE21__push_back_slow_pathIKS1_EEvRT_
wnd:__ZN16b2CapsuleContact6CreateEP9b2FixtureiS1_iP16b2BlockAllocator
e3t:__ZN6il2cpp6icalls8mscorlib6System10Reflection6Module16InternalGetTypesEP22Il2CppReflectionModule
qpb:__ZN25ThreadsafeLinearAllocatorD2Ev
Bxe:__ZN5physx2Sq10AABBPruner11preallocateEj
_oa:__Z21SendMessageToEveryoneRK17MessageIdentifier11MessageData
Axu:b116
qla:__ZN21BillboardBatchManager16StaticInitializeEPv
k4m:_Object_get_name_m2079638459
Bba:__ZN12_GLOBAL__N_138ArchiveRedirectFileSystemStaticDestroyEPv
BTi:_EventHandler_Invoke_m1137722757
Rut:__ZNK15dense_hashtableINSt3__24pairIK10KeyWrapperI13dynamic_arrayIPK10Il2CppTypeLj4EEEPFvvEEES8_N6il2cpp8metadata19Il2CppSignatureHashEN14dense_hash_mapIS8_SB_SF_NS8_14EqualsComparerINSE_22Il2CppSignatureCompareEEENS0_9allocatorISC_EEE9SelectKeyESJ_SL_E5beginEv
_me:__ZN5physx2Sc19ShapeInstancePairLLC2ERNS0_8ShapeSimES3_RNS0_9ActorPairENS_7PxFlagsINS_10PxPairFlag4EnumEtEE
MHm:_MonoType_IsSubclassOf_m2211166238
D4h:_Collection_1_System_Collections_ICollection_CopyTo_m2859266050_gshared
wfa:__ZN19RuntimeSceneManagerC2Ev
lBu:_emscripten_glStencilFunc__wrapper
YD:__ZN7mecanim14ValueArrayCopyEPKNS_10ValueArrayEPS0_PKNS_14ValueArrayMaskE
tXl:_WebRpcResponse_ToStringFull_m1896116073
Y5t:_GC_continue_reclaim
Qyi:_ArrayListWrapper_get_Count_m2207944952
Muk:_X509ChainElementCollection_System_Collections_IEnumerable_GetEnumerator_m2559704689
Yrk:_PublicKey_get_Key_m126090744
Q9i:_RegisteredComponentController_InstanceCountOfType_TisIl2CppObject_m996855017_gshared
ruk:_X509ChainPolicy_Reset_m430244129
Olk:_Socket_Available_internal_m3905842419
$9e:__ZNSt3__23mapIN20TextRenderingPrivate7FontRefEP11FT_FaceRec_NS_4lessIS2_EENS_9allocatorINS_4pairIKS2_S4_EEEEEixERS9_
rXa:__ZN17ArchiveFileSystem10AddStorageEP20ArchiveStorageReader
Jsp:_SocketUdp_Connect_m3274297641
Lbe:__ZN5physx2Sc9ClothCore16setStretchConfigENS_22PxClothFabricPhaseType4EnumERKNS_20PxClothStretchConfigE
R2p:_XmlWriter_WriteName_m4219327907
POm:_AS_AccountManagementGUI_AccountInfoOnGUI_m1861374205
Pua:__ZN14SafeBinaryRead23IsVersionSmallerOrEqualEi
BXo:_IPhotonSocket_get_MTU_m903859255
q9c:__ZN9SubModule8TransferI19StreamedBinaryWriteILb0EEEEvRT_
Fur:_TextGenerator_INTERNAL_CALL_Populate_Internal_cpp_m2616440843
eDc:__Z14CopySerializedRK6ObjectRS_
xld:__ZNK12b2MotorJoint16GetReactionForceEf
TSa:__ZN12_GLOBAL__N_112UploadFormatE13TextureFormat
o5l:_GK_Leaderboard_UpdateScore_m320682139
eLc:__Z44Caching_CUSTOM_INTERNAL_CALL_IsVersionCachedP12Il2CppStringRK7Hash128
lPs:_EqualityComparer_1_System_Collections_IEqualityComparer_GetHashCode_m1203798961_gshared
nHb:_decode_mcu_DC_refine
kvh:_Enumerator_MoveNext_m2301473130_AdjustorThunk
Whr:_Physics_Raycast_m2009151399
eTm:_AudioController__PlayMusic_m71483818
fSi:_Double_ToString_m2210043919_AdjustorThunk
sDb:__ZNK9Texture2D16GetNpotTexelSizeEv
Haq:_XsollaPaystation_LoadShop_m1618993293
vem:_GoogleCloudUseExample_OnAllLoaded_m2539867436
Jvq:_WP8SocialManager_SendMail_m2499674219
CGr:_Mask_get_rectTransform_m3304369086
vPq:_InternalEnumerator_1_System_Collections_IEnumerator_get_Current_m2412645217_AdjustorThunk
h5r:_Action_2_Invoke_m628124393_gshared
ydd:__Z20EvaluateSlowThreadedRK11MinMaxCurveRNS_5CacheERKN4math7_float4ES7_
_4e:__ZN13dynamic_arrayItLj2EE6insertEPtPKtS3_
m3p:_SubscriptionsAdapter_GetItem_m3495649791
E3g:__ZL61OnAwakeUsePhotonView_t50327424_CustomAttributesCacheGeneratorP21CustomAttributesCache
MOa:__ZN9GfxDevice22GetDefaultVertexBufferE26GfxDefaultVertexBufferTypej
GQm:_U3CTryToRecoverPasswordU3Ec__AnonStorey0_U3CU3Em__0_m1790270178
b3h:_Collection_1__ctor_m3903788797_gshared
VDs:_ReadOnlyCollection_1_System_Collections_ICollection_CopyTo_m1129689124_gshared
Rpo:__Z162RuntimeInvoker_Void_t1841601450_Il2CppObject_Int32_t2071877448_SByte_t454417549_SByte_t454417549_SingleU26_t4173844468_SingleU26_t4173844468_SingleU26_t4173844468PK10MethodInfoPvPS2_
Bzu:_glGetActiveUniform__wrapper
iKd:__ZN5physx3Cct17CapsuleControllerC2ERKNS_16PxControllerDescERNS_9PxPhysicsEPNS_7PxSceneE
XOm:_AS_Credentials_get_databaseHostname_m2159952574
UOb:__ZN14SafeBinaryRead21TransferSTLStyleArrayINSt3__26vectorI17BlendShapeChannelNS1_9allocatorIS3_EEEEEEvRT_17TransferMetaFlags
Vwa:__Z17BeginSplashScreenv
mNl:_UM_Camera_remove_OnImagePicked_m44493346
khc:__ZN9ShaderLab16SerializedShader8TransferI19StreamedBinaryWriteILb0EEEEvRT_
dPk:_UInt32_Parse_m2400360707
HJ:__ZN7mecanim9animation18CreateAvatarMemoryEPKNS0_14AvatarConstantERNS_6memory9AllocatorE
lFi:_Stack_Pop_m3788808882
t5k:_ObscuredPrefs_GetBool_m3705735650
tGr:_LayoutUtility_U3CGetMinWidthU3Em__0_m2819807638
zNi:_DateTime_op_Equality_m1867073872
XC:__ZN7mecanim8skeleton16SkeletonPoseCopyIN4math4trsXENS2_7affineXEEEvPKNS0_13SkeletonPoseTIT_EEPNS5_IT0_EE
sOa:__ZN18GfxFramebufferGLES18GetFramebufferNameERK20GfxRenderTargetSetup
ITg:__ZL60UIDraggableCamera_t2562792962_CustomAttributesCacheGeneratorP21CustomAttributesCache
H5t:_GC_print_block_list
mhr:_ParticleSystem_U3CPlayU3Em__0_m4250446697
eDr:_GameroomFacebook__ctor_m3184262821
Bet:_ChatClient_ExitGames_Client_Photon_IPhotonPeerListener_DebugReturn_m629351613
gSt:__ZN6il2cpp6icalls8mscorlib6System2IO6MonoIO11GetFileTypeE12Il2CppIntPtrPi
CXc:__Z45Register_UnityEngine_Transform_get_hasChangedv
x$c:__Z30Event_Get_Custom_PropCharacterP12Il2CppObject
oyc:__ZN13PlayableGraph27SchedulePlayableDestructionERK9HPlayable
Uqu:dynCall_viifffiiiii
tGd:__ZN5physx6shdfnd5ArrayINS_12PxDebugPointENS0_19ReflectionAllocatorIS2_EEE15growAndPushBackERKS2_
swu:_glGetFramebufferAttachmentParameteriv__wrapper
Wsc:__ZN13HandleManager16RegisterPodArrayEjPPhS0_S0_
rvi:_Byte_System_IConvertible_ToBoolean_m2812478835_AdjustorThunk
N2b:__Z22scripting_array_length17ScriptingArrayPtr
Nci:_LagPosition_ResetPosition_m1752757650
wyl:_Dictionary_2_System_Collections_IDictionary_Remove_m2617445224_gshared
WYe:__ZN8Collider13AwakeFromLoadE17AwakeFromLoadMode
Xmi:_NGUIText_Update_m3963317672
lMc:__Z56Register_UnityEngine_Camera_INTERNAL_set_backgroundColorv
JDa:__ZN14SafeBinaryRead20TransferTypelessDataEjPvi
FOl:_UM_GameServiceManager_add_ActionFriendsListLoaded_m3785045448
xDf:__ZL66StringFreezingAttribute_t2691375565_CustomAttributesCacheGeneratorP21CustomAttributesCache
BXp:_XmlElement_CloneNode_m2544333692
w3k:_ObscuredInt_InternalDecrypt_m674940613_AdjustorThunk
LPl:_UM_InAppProduct_get_ActualPrice_m3108286336
igo:__Z69RuntimeInvoker_Single_t2076509932_Int32_t2071877448_Int32_t2071877448PK10MethodInfoPvPS2_
lea:__Z19GetActiveColorSpacev
E8c:__ZN17SizeBySpeedModule8TransferI18StreamedBinaryReadILb0EEEEvRT_
zPs:_EqualityComparer_1__cctor_m1672307556_gshared
gIq:_SoapTypeAttribute_get_IsInteropXmlElement_m2941294827
yTb:__ZN14SpriteRenderer18UpdateCachedSpriteEv
Rxh:_Enumerator_System_Collections_IEnumerator_get_Current_m3542273247_gshared
rSp:_XmlAttribute_get_BaseURI_m916085959
exi:_Char_System_IConvertible_ToUInt32_m1557991717_AdjustorThunk
sws:_ClientIdentity_get_ClientProxy_m4052942792
HDk:_Encoding_get_UTF8Unmarked_m628720656
BJn:_NumberFormatter_RoundBits_m1545255255
Tea:__Z6StrCmpPKcS0_
ZIn:_NumberFormatter_InitDecHexDigits_m1612588520
k6q:_Enumerator_get_CurrentValue_m3562053380_AdjustorThunk
u0s:_Nullable_1_ToString_m678068069_AdjustorThunk
Fic:__Z21CheckGpuProgramUsable20ShaderGpuProgramType
fip:_CueController_remove_RefreshAndReturnFrame_m659409746
SMn:_Binder__cctor_m3736115807
E6m:_GUILayout_BeginArea_m2728230265
s0d:__ZN5physx6shdfnd5ArrayIPvNS0_19ReflectionAllocatorINS_2Cm5BlockIhLj128EEEEEE4copyINS0_15InlineAllocatorILj256ES7_EEEEvRKNS1_IS2_T_EE
Y8e:__ZN20TextRenderingPrivate19NativeTextGenerator5SetupEv
KQo:_SA_IdFactory_get_RandomString_m3945854913
_3d:__ZN5physx6shdfnd8PoolBaseINS_16NpConnectorArrayENS0_19ReflectionAllocatorIS2_EEE15disposeElementsEv
NWb:__ZN12AspectRatios8TransferI18StreamedBinaryReadILb0EEEEvRT_
r5e:__ZN14PhysicsManager19CreatePvdConnectionEv
uid:__ZL24GenerateParticleGeometryIL24ParticleSystemRenderMode0ELb1ELb1ELb0EEvPfRK22ParticleSystemTempDataRK26ParticleSystemRendererDataRK21ParticleSystemModulesRK23ParticleSystemParticlesRK31ParticleSystemParticlesTempData
Dxc:__ZN10GameObject14CopyPropertiesERS_
x2c:__Z44Register_UnityEngine_GUIStyle_get_fixedWidthv
_Ls:_X509CertificateEnumerator_MoveNext_m4060814498
VBr:_FB_set_ClientToken_m3053141126
FBm:_MemoryStream_CheckIfClosedThrowDisposed_m2253054610
O6r:_ArrayReadOnlyList_1_GetEnumerator_m634288642_gshared
Wkb:__ZNK13ScreenManager12IsFullScreenEv
Eeu:_rand
pAr:_EditorFacebook_AppRequest_m2252142564
h3d:__ZNK5physx12NpConstraint9getActorsERPNS_12PxRigidActorES3_
e0t:__ZN6il2cpp5utils9PathUtils7CombineIcEENSt3__212basic_stringIT_NS3_11char_traitsIS5_EENS3_9allocatorIS5_EEEERKNS0_10StringViewIS5_EERKSA_
D_m:_AnimatorControllerPlayable_INTERNAL_CALL_GetNextAnimatorStateInfoInternal_m1550960895
C3b:__ZN14SafeBinaryRead21TransferSTLStyleArrayINSt3__26vectorI17AnimationCurveTplIfE13stl_allocatorIS4_L18MemLabelIdentifier1ELi16EEEEEEvRT_17TransferMetaFlags
$Jc:__Z60Register_UnityEngine_AsyncOperation_set_allowSceneActivationv
DUe:__ZN5physx6shdfnd8PoolBaseIN17PxcPoolMallocData10PoolData16ENS0_19ReflectionAllocatorIS3_EEE15disposeElementsEv
BYe:__ZN9Rigidbody23UpdateInterpolationNodeEv
UBc:__ZNSt3__26vectorIhNS_9allocatorIhEEE6insertIPhEENS_9enable_ifIXaasr21__is_forward_iteratorIT_EE5valuesr16is_constructibleIhNS_15iterator_traitsIS7_E9referenceEEE5valueENS_11__wrap_iterIS5_EEE4typeENSB_IPKhEES7_S7_
b8l:_Parser__ctor_m3662862040
VMm:_AnimatedWidget_LateUpdate_m2943101537
Peb:__Z22PrepareOptimizedPlanesPK5PlaneiPKN4math7_float4E
amr:_RectOffset_t3387826427_marshal_pinvoke
Mwj:_Graphic_SetVerticesDirty_m1607014370
aru:dynCall_viiiffiii
ola:__ZN17UniqueIDGenerator15CreatePureIndexEv
EN:__ZN11UnityEngine9Animation28GenericAnimationBindingCache15DidReloadDomainEv
Wom:_AppDomain_InternalGetProcessGuid_m1278588156
SYo:_BigInteger_op_LessThan_m2267998233
aCj:_InputField_MoveRight_m386206014
rfl:_XmlAnyElementAttributes_Add_m2057459005
ien:_Matrix4x4_Equals_m1321236479
KSo:_SetText__ctor_m457761150
y6s:_Transform_set_eulerAngles_m2881310872
TSj:_UIRect_SetAnchor_m4274130260
aoe:__ZN5physx7NpScene8addActorERNS_7PxActorE
sdl:_ClassMap_GetAttribute_m1832457827
k6i:_Array_InternalArray__ICollection_Remove_TisIl2CppObject_m2425110446_gshared
$go:__Z83RuntimeInvoker_Il2CppObject_Il2CppObject_Vector3_t2243707580_Quaternion_t4030073918PK10MethodInfoPvPS2_
iN:__ZN19StreamedBinaryWriteILb0EE8TransferIN7mecanim9animation23BlendDirectDataConstantEEEvRT_PKc17TransferMetaFlags
eNi:_DateTime_ToFileTime_m1401286571_AdjustorThunk
X_i:_RSACryptoServiceProvider_OnKeyGenerated_m3681052691
yXb:__ZNSt3__26__treeINS_12__value_typeIN4core12basic_stringIcNS2_20StringStorageDefaultIcEEEE4PPtrI6ObjectEEENS_19__map_value_compareIS6_SA_NS_4lessIS6_EELb1EEE13stl_allocatorISA_L18MemLabelIdentifier51ELi16EEE7destroyEPNS_11__tree_nodeISA_PvEE
Hld:__ZNK12b2MouseJoint17GetReactionTorqueEf
ONl:_UM_ExampleStatusBar_Awake_m1167061298
Vvc:__ZZL23RegisterLightPropertiesR22GenericPropertyBindingEN18Wrapper_LightRange13SetFloatValueEPvf
clc:_convsamp
uJl:_UIWidget_set_color_m1406575269
Cqs:_Uri__ctor_m3927533881
Nml:_XmlSerializationWriterInterpreter_WritePrimitiveValueLiteral_m1603783810
Aea:__ZNK9Transform18TransformDirectionERK8Vector3f
wQe:__ZN5physx21PxsBodyTransformVault6updateEv
i1s:_Nullable_1_Equals_m3974016973_AdjustorThunk
c7m:_GUILayoutEntry_SetHorizontal_m1828181654
CZo:_Protocol_DeserializeCustom_m1063904160
ssp:_Extensions_MergeStringKeys_m2775932508
nyd:__ZL29GeomMTDCallback_CapsuleConvexRN5physx6PxVec3ERfRKNS_10PxGeometryERKNS_11PxTransformES5_S8_
sQo:_RTM_Game_Example_OnInvManageDialogComplete_m1797121572
QOo:_RoomInfo_CacheProperties_m1082508859
Uyn:_BasicClient_GetBytes_m2438601342
Lvt:__ZN15dense_hashtableINSt3__24pairIK10KeyWrapperIPK11Il2CppClassEPKcEES6_N6il2cpp5utils11PointerHashIS3_EEN14dense_hash_mapIS6_S9_SE_NS6_14EqualsComparerINS0_8equal_toIS5_EEEENS0_9allocatorISA_EEE9SelectKeyESJ_SL_E12resize_deltaEjj
YNj:_UILabel_set_shrinkToFit_m1619954582
Iou:__ZNK10__cxxabiv120__si_class_type_info27has_unambiguous_public_baseEPNS_19__dynamic_cast_infoEPvi
xyt:__ZN6il2cpp2vm21ThreadPoolCompartment13QueueWorkItemEP17Il2CppAsyncResult
czu:_glTexSubImage3D__wrapper
F$k:_ObscuredBool_InternalDecrypt_m1879388498_AdjustorThunk
fwk:_FactoryCache_Add_m2602974721
S0a:__Z21WriteImageAsyncThreadPv
ska:__ZL16GetInterfaceImpl18UnityInterfaceGUID
Y5p:_XsollaForm_Contains_m3383331372
apn:_Context_ChangeProtocol_m46663628
RFh:_List_1_System_Collections_IList_get_Item_m936612973_gshared
v2t:__ZN6il2cpp6icalls8mscorlib6System15MonoCustomAttrs27GetCustomAttributesInternalEP12Il2CppObjectP20Il2CppReflectionTypeb
qLg:__ZL114IOSInAppPurchaseManager_t644626385_CustomAttributesCacheGenerator_IOSInAppPurchaseManager_addProductId_m3734468261P21CustomAttributesCache
Nmf:_UNITY_TT_Set_MM_Blend
hLq:_ObjectReader_ReadAssembly_m869834280
Jyb:__ZN22RenderingCommandBufferD0Ev
she:__ZN5physx14NpRigidDynamicC2ERKNS_11PxTransformE
t4:__Z39AudioSource_Get_Custom_PropDopplerLevelP12Il2CppObject
X8h:_Collection_1_IsSynchronized_m971497175_gshared
aCd:__Z27sweepCCTBox_HeightFieldGeomRKN5physx10PxGeometryERKNS_11PxTransformERKNS_2Gu3BoxERKNS_6PxVec3EfRNS_10PxSweepHitENS_7PxFlagsINS_9PxHitFlag4EnumEtEEf
i7i:_ExecuteEvents_Execute_TisIl2CppObject_m4168308247_gshared
gvp:_U3CWaitingTimeU3Ec__Iterator1_Reset_m1092241318
bY:__ZL31InitializeAudioScriptingClassesv
zWo:_Protocol_SerializeObjectArray_m2124926619
o5a:__Z14SortGUIByDepthP10GUIElementS0_
Pdn:_Mathf_FloorToInt_m4005035722
obd:__Z19UpdateProceduralTplIL27ParticleSystemCurveEvalMode0EEvRK20DualMinMaxPolyCurvesR23ParticleSystemParticlesPfRKN4math7_float4E
N3k:_ObscuredInt_ToString_m3102032210_AdjustorThunk
fft:_WebSocket_SocketRecv_m3432083282
Upl:_Enumerator_Dispose_m878958700_AdjustorThunk
Xxd:__ZN5physx3Cct9SweepTest18updateTouchedGeomsEPKNS0_30InternalCBData_FindTouchedGeomERKNS0_13UserObstaclesERKNS_17PxExtendedBounds3ERKNS_19PxControllerFiltersERKNS_6PxVec3E
g_m:_AnimatorControllerPlayable_IsParameterControlledByCurveString_m4036987523
uGm:_MonoCustomAttrs__cctor_m2608447972
Pum:_Int32_FindSign_m3803672540
qsp:_LoadbalancingPeer_OpLeaveLobby_m821094298
Iwr:_ResultBase_GetCallbackId_m996543320
C2e:_PxCloseExtensions
gKl:_UIWidget_get_isVisible_m1555008678
E9:__ZNK20LocalFileSystemPosix21GetAvailableDiskSpaceEPKcRy
foa:__ZNSt3__26__treeIiNS_4lessIiEENS_9allocatorIiEEE7destroyEPNS_11__tree_nodeIiPvEE
Uln:_CipherSuite_InitializeCipher_m229247572
rsk:_X509Certificate2__ctor_m1095336775
kIa:__ZNK9GfxDevice14GetWorldMatrixEv
bru:dynCall_diiidi
DYn:_MonoProperty_GetGetMethod_m1100580870
vxb:__ZN6Camera8TransferI19StreamedBinaryWriteILb0EEEEvRT_
a8a:__Z19scripting_array_new17ScriptingClassPtrjj
S0:__ZN11SoundHandle13CreateChannelEb
wxs:_Context_CreateServerObjectSinkChain_m1085388208
lJb:__ZN14SafeBinaryRead21TransferSTLStyleArrayI13dynamic_arrayI12LightmapDataLj4EEEEvRT_17TransferMetaFlags
opm:_ArgumentException__ctor_m3312963299
Ofc:__ZNSt3__26vectorIN9ShaderLab20SerializedSubProgram16TextureParameterENS_9allocatorIS3_EEE6assignIPS3_EENS_9enable_ifIXaasr21__is_forward_iteratorIT_EE5valuesr16is_constructibleIS3_NS_15iterator_traitsISA_E9referenceEEE5valueEvE4typeESA_SA_
IDn:_FtpDataStream_Write_m376875914
$Qc:__Z51Quaternion_CUSTOM_INTERNAL_CALL_Internal_ToEulerRadRK11QuaternionfR8Vector3f
r4:__Z40AudioSource_Get_Custom_PropBypassEffectsP12Il2CppObject
suq:_WP8InAppPurchasesManager_add_OnPurchaseFinished_m2731139563
WUm:_AudioController_EnableMusic_m4038477982
tvk:_X509SubjectKeyIdentifierExtension__ctor_m3887138480
Ovh:_Enumerator_System_Collections_IEnumerator_get_Current_m2853089017_AdjustorThunk
Smd:__ZN12b2WheelJoint24SolvePositionConstraintsERK12b2SolverData
xbe:__ZNK5physx2Sc9ClothCore20getNbCollisionPlanesEv
Ei:_emscripten_exit_fullscreen
fcl:_ObscuredVector3_ToString_m2190369995_AdjustorThunk
Tue:__ZN5physx6shdfnd5ArrayINS_9PxBounds3ENS0_15InlineAllocatorILj192ENS0_19ReflectionAllocatorIS2_EEEEE8recreateEj
CSe:__ZNK5physx13GuMeshFactory17getNbHeightFieldsEv
aAj:_InputField_get_mesh_m3276583786
Cus:_GCHandle_Free_m1639542352_AdjustorThunk
tDn:_FtpDataStream_BeginRead_m3442528438
F_g:__ZL98UILabel_t1795115428_CustomAttributesCacheGenerator_UILabel_t1795115428____shrinkToFit_PropertyInfoP21CustomAttributesCache
dMo:_PropertyReference_Cache_m3545860923
tem:_GoogleCloudUseExample_OnStateConflict_m3018650689
k_t:__ZN6il2cpp6icalls8mscorlib6System6String19InternalAllocateStrEi
NKj:_UIImageButton_OnPress_m2003638655
Pxe:__ZNK5physx2Gu12OBBAABBTestsILb1EEclENS_6shdfnd3aos5Vec3VES5_
sMc:__Z45Register_UnityEngine_Camera_get_targetDisplayv
Luc:__ZNK24RendererAnimationBinding15GenerateBindingERKN4core12basic_stringIcNS0_20StringStorageDefaultIcEEEEbRN11UnityEngine9Animation14GenericBindingE
f1k:_ObscuredDecimal_InternalEncrypt_m1557895625
C4q:_Enumerator_System_Collections_IDictionaryEnumerator_get_Value_m2072585001_gshared
vyb:__Z15GetFlareManagerv
qxd:__ZN5physx3Cct9SweepTestD2Ev
wei:_Login_OnCreateAccount_m1611706036
Jyk:_Enumerator_System_Collections_IEnumerator_get_Current_m1429268283
dvh:_Enumerator_VerifyState_m32458666_gshared
tSo:_SearchOponentAnimation_Update_m3487972839
xDp:_GooglePlaySavedGamesManager_OnSavedGameSaveResult_m625161893
P2r:_SingletonMonoBehaviour_1_DoesInstanceExist_m3493883803_gshared
p_m:_AnimatorControllerPlayable_GetLayerName_m2571001466
pDk:_String_Concat_m56707527
DD:__ZN7mecanim9animation16EvaluateAvatarDXEPKNS0_14AvatarConstantEPKNS0_11AvatarInputEPNS0_12AvatarMemoryEPNS0_15AvatarWorkspaceEPNS0_12AvatarOutputE
YRa:__ZN4gles20DestroyRenderSurfaceEP7ApiGLESP17RenderSurfaceGLES
Nvh:_Enumerator_System_Collections_IEnumerator_get_Current_m2853089017_gshared
uyh:_Enumerator_VerifyState_m1289261385_gshared
Umc:__ZN11PlayerPrefs6SetIntERKN4core12basic_stringIcNS0_20StringStorageDefaultIcEEEEi
Zmu:__ZNSt3__26locale5__imp7installINS_7num_putIcNS_19ostreambuf_iteratorIcNS_11char_traitsIcEEEEEEEEvPT_
WWc:__Z34Transform_CUSTOM_SetAsFirstSiblingP12Il2CppObject
Djo:__Z69RuntimeInvoker_Boolean_t3825574718_TextGenerationSettings_t2543476768PK10MethodInfoPvPS2_
xMm:_AndroidSocialNativeExample_PostFBScreenshot_m1921654042
DDq:_ShopViewController_OpenPaymentMethods_m1611309968
swa:__ZN17PersistentManager40GlobalToLocalSerializedFileIndexInternalERK26SerializedObjectIdentifier
Wkj:_BaseEventData_get_selectedObject_m3551206992
Itk:_X509Chain_GetAuthorityKeyIdentifier_m2607407678
qUi:_CCGregorianCalendar_GetYear_m1289900195
J2d:__ZN12GeomQueryAnyIN5physx10PxSweepHitEE7geomHitERKNS0_2Sq17SceneQueryManagerERKNS0_15MultiQueryInputERKNS3_9ShapeDataERKNS0_10PxGeometryERKNS0_11PxTransformENS0_7PxFlagsINS0_9PxHitFlag4EnumEtEEjPS1_fbPNS0_9PxBounds3E
_um:_Int16_ToString_m2592645088
fzp:_GooglePlayManager_UnlockAchievementById_m1440451834
QMa:__ZN13TranslateGLES4InitERK12GraphicsCaps16GfxDeviceLevelGL
K9m:_GUIStyle_Internal_CalcMinMaxWidth_m3660306863
sAd:__ZN43CapsuleHeightfieldContactGenerationCallback7onEventEjPj
byn:_UnmanagedReadOrWrite_BeginInvoke_m1689914535
w0e:__ZThn4_N12MemoryStream4readEPvj
zxn:_DeflateStream_ReadInternal_m1462513020
Y$a:__ZZ23InitPlayerLoopCallbacksvEN33PostLateUpdateInputEndFramestruct7ForwardEv
skc:_write_tables_only
PTs:_GenericEqualityComparer_1_Equals_m1934771410_gshared
j_b:__ZN24RingBufferMemoryFileDataD0Ev
cYb:__ZNSt3__26vectorIN30RuntimeInitializeOnLoadManager15ClassMethodInfoE13stl_allocatorIS2_L18MemLabelIdentifier12ELi16EEE8__appendEj
nrc:__ZN13ProduceHelperI10TagManagerLb0EE7ProduceE18MemLabelIdentifier18ObjectCreationMode
q6k:_ObscuredQuaternion_Decrypt_m1907093966
qbf:__ZN20TextRenderingPrivate7GUIText23VirtualRedirectTransferER17RemapPPtrTransfer
tao:__Z84RuntimeInvoker_Il2CppObject_Il2CppObject_Il2CppObject_Il2CppObject_Int32_t2071877448PK10MethodInfoPvPS2_
QLt:__ZN15dense_hashtableINSt3__24pairIK10KeyWrapperINS1_IPK9EventInfoP11Il2CppClassEEEjEES9_17ReflectionMapHashIS8_EN14dense_hash_mapIS9_jSD_NS9_14EqualsComparerINS0_8equal_toIS8_EEEENS0_9allocatorISB_EEE9SelectKeyESI_SK_E14squash_deletedEv
Cfr:_Transform_1_BeginInvoke_m2411784305_gshared
Z0j:_PhotonRigidbody2DView_OnPhotonSerializeView_m1221114662
fyn:_GZipStream__ctor_m3019216668
Nzm:_StreamReader_get_EndOfStream_m997398933
Myl:_Dictionary_2_InitArrays_m2326971710_gshared
ZKq:_ObjectManager_RegisterObject_m872610295
CLo:_U3CUploadPNGU3Ec__Iterator0_Reset_m4253106725
Z0m:_GameObject_set_layer_m2712461877
zkn:_RSAManaged__ctor_m1370411656
rBq:_PricePointsAdapter_GetItem_m4038478047
DCb:__ZN12CubemapArray23VirtualRedirectTransferER17RemapPPtrTransfer
wGc:__ZL27GetComponentsImplementationILb0ELi0EEbR10GameObjectbRK17CompareParametersRK39GetComponentsImplementation_ReturnValue
O2h:_Collection_1_Insert_m3223100600_gshared
n_p:_XmlNodeListChildren_Item_m674019383
$pk:_WebHeaderCollection_GetObjectData_m3940120977
T$b:__ZN9Scripting36IsSystemCollectionsGenericDictionaryE17ScriptingClassPtr
OIr:_Raycast3DCallback_EndInvoke_m3234280377
e3k:_ObscuredFloat__cctor_m2671627537
hps:_BalancingGroup__ctor_m2474435406
s1d:__ZN5physx12NpConstraint12actorDeletedEPNS_12PxRigidActorE
G1o:_iAdBannerController_get_banners_m699043976
Etj:_ColorTweenCallback__ctor_m3619686788
Hia:__ZL16ReadTypeTreeImplILb0EEbR8TypeTreeRK16TypeTreeIteratorRPKhS6_i
r7j:_JSONNode_set_AsFloat_m1918375005
pN:__ZN25RuntimeAnimatorControllerD2Ev
NNm:_AnOtherFeaturesPreview_LoadAdressBook_m1451834684
Jvi:_Byte_System_IConvertible_ToInt32_m1032609763_AdjustorThunk
Iic:__ZN9ShaderLab7ProgramD0Ev
cMd:__ZN5physx2Sc8ShapeSim18reinsertBroadPhaseEv
aBb:__ZNK22BuiltinResourceManager21GetResourceInstanceIDEPKN5Unity4TypeERKN4core12basic_stringIcNS4_20StringStorageDefaultIcEEEE
Kyq:_U3CSetDataU3Ec__AnonStorey1_U3CU3Em__0_m2041275717
UNc:__Z42Register_UnityEngine_RectOffset_set_bottomv
$Vr:_DTDReader_ReadCP_m707871056
azi:_ArrayListWrapper_IndexOf_m3574835167
l8a:__ZN28LightProbeProxyVolumeContext8CopyFromERKS_
Ihb:__ZN23TransformChangeDispatch32QueueTransformChangeIfHasChangedER18TransformHierarchy
n9o:_IOSNativeAppEvents_add_OnApplicationDidEnterBackground_m1946900654
cdb:__ZN18DeferredRenderLoop15RenderFinalPassEP13RenderTextureS1_
$fu:__ZNSt3__213basic_ostreamIcNS_11char_traitsIcEEE6sentryD2Ev
ZRa:__ZN7ApiGLES18DeleteRenderbufferERj
OPd:__ZN5physx6shdfnd5ArrayIPvNS0_15InlineAllocatorILj256ENS0_19ReflectionAllocatorINS_16NpConnectorArrayEEEEEE15growAndPushBackERKS2_
TQa:__ZL23ProgramUniformMatrix4fvPK7ApiGLESjiihPKv
_bm:_GoogleAnalyticsClient_SetProductAction_m2252653662
AFe:__ZN5physx14SingleAABBTaskC2Ev
EJl:_UITweener_get_direction_m4271232255
wfc:__ZN9ShaderLab20SerializedSubProgram15MatrixParameter8TransferI14SafeBinaryReadEEvRT_
Lhi:_MoveByKeys_FixedUpdate_m1998074088
Goi:_NGUITools_Save_m1350119697
yGc:__ZL27GetComponentsImplementationILb0ELi1EEbR10GameObjectbRK17CompareParametersRK39GetComponentsImplementation_ReturnValue
aaq:_XsollaPaymentMethods_GetSortedItems_m811548868
VIk:_UTF8Decoder__ctor_m1460357288
jXe:__ZN5physx12storeIndicesEjjPKjRNS_14PxOutputStreamEb
pnl:_XmlSerializer_Serialize_m4161306904
qsa:__ZN13RenderTexture7ReleaseEv
Z_s:_U3CCreateSelectIteratorU3Ec__Iterator10_2_System_Collections_Generic_IEnumeratorU3CTResultU3E_get_Current_m3045153909_gshared
n8p:_XsollaPaymentImpl_OnCountriesRecieved_m2846994707
hss:_Pointer_System_Runtime_Serialization_ISerializable_GetObjectData_m4103721774
cQb:__ZN10MeshFilter23VirtualRedirectTransferER14SafeBinaryRead
_cb:__ZN19ShaderPropertySheet26SetTextureWithExplicitSizeEN9ShaderLab16FastPropertyNameE9TextureIDiiff
kGi:_Convert_ToByte_m1201588964
frt:_FacebookSettings_set_Cookie_m3339083374
mQb:__ZN12MeshRenderer17MainThreadCleanupEv
PJc:__Z36AsyncOperation_Get_Custom_PropIsDoneP12Il2CppObject
Qhp:_CSharpAPIHelper_OnPlayerDisconnected_m1677604041
IUa:__ZN22CreateGpuProgramOutput12CreateParamsEv
spu:___remdi3
rSm:_AudioItem__Initialize_m1696018661
j_d:__ZNK5physx18NpArticulationLink11getChildrenEPPNS_18PxArticulationLinkEj
u2s:_Nullable_1_GetHashCode_m1916216271_AdjustorThunk
F7l:_GamePlayUI_HideEffect_m3519264856
GMa:__ZNK14GfxContextGLES13GetDefaultFBOEv
onf:__Z37TextMesh_Set_Custom_PropCharacterSizeP12Il2CppObjectf
Hjk:_UICamera_GetTouch_m3823754436
W3t:_GC_promote_black_lists
v6i:_Array_InternalArray__ICollection_Remove_TisSByte_t454417549_m2474211570_gshared
act:_JsonReaderException__ctor_m1340258615
VNe:__Z15atomIntegrationfPKPN5physx11PxsBodyCoreEPKPNS_12PxsRigidBodyEjPKNS_2Cm13SpatialVectorEPNS_13PxcSolverBodyEPNS_17PxcSolverBodyDataEPS9_RjSH_
hpa:__ZN14GraphicsHelper5ClearE13GfxClearFlagsRK10ColorRGBAffjR17ShaderPassContext
hBp:_GP_Quest_LoadBanner_m1035907575
eke:__ZN5physx13NpRigidStatic11createShapeERKNS_10PxGeometryEPKPNS_10PxMaterialEtNS_7PxFlagsINS_11PxShapeFlag4EnumEhEE
MCt:_il2cpp_class_is_enum
yUr:_XmlTextReader_MoveToAttribute_m2745382643
qua:__ZNSt3__23mapIN9ShaderLab16FastPropertyNameEN18UnityPropertySheet11UnityTexEnvENS_4lessIS2_EENS_9allocatorINS_4pairIKS2_S4_EEEEEixERS9_
vHa:__ZNK13TranslateGLES25GetTextureTargetDimensionEj
QTd:__ZN5physx11NpAggregate22removeActorAndReinsertERNS_7PxActorEb
vVe:__ZZL19ExtractHullPolygonsRjRN5physx2Gu9ContainerERKNS0_17ConvexHullBuilderEPS2_S3_EN5Local9FloodFillES3_PKNS0_11AdjTriangleEjPb
l_t:__ZN6il2cpp6icalls8mscorlib6System6String13InternalSplitEP12Il2CppStringP11Il2CppArrayii
vzk:_PatternCompiler_EmitInfo_m597931026
c3m:_GUIStateObjects_GetStateObject_m2567357506
Qhn:_ModulusRing_Multiply_m3113924743
LVc:__Z47Texture2D_CUSTOM_INTERNAL_CALL_GetPixelBilinearP12Il2CppObjectffR10ColorRGBAf
Owu:_emscripten_glUniformMatrix4fv__wrapper
S5l:_GK_PlayerSignatureResult__ctor_m183833886
Gk:_emscripten_glVertexAttrib4f
E2l:_GameCenterManager_add_OnScoreSubmitted_m3558127350
rnk:_WebAsyncResult_SetCompleted_m2908552542
Viq:_AN_BaseTemplate_AddPropertiesToXml_m241412948
gic:__ZNSt3__26vectorIN20GpuProgramParameters14ConstantBufferENS_9allocatorIS2_EEE8__appendEj
B_o:_PhotonPeer_set_IsSimulationEnabled_m3848882086
$hi:_MultiplayerManagerExample_Awake_m2842387583
abl:_ObscuredVector3__ctor_m4263376834_AdjustorThunk
XKp:_Array_Sort_TisUILineInfo_t3621277874_m3105833015_gshared
XFh:_List_1_AddEnumerable_m2489692396_gshared
yWd:__ZN5physx14NpArticulation26setMaxProjectionIterationsEj
zJd:__ZN5physx3Cct15ObstacleContext14removeObstacleEj
lmr:_RectOffset_Cleanup_m3198970074
tKj:_UIGrid_SortHorizontal_m4102275981
xNa:__ZN4gles10SetTextureER15DeviceStateGLESjjj19BuiltinSamplerState
FKa:__ZN9GfxDevice18SetGlobalDepthBiasEff
Ozt:__ZN6il2cpp6icalls8mscorlib6System8MonoType12get_AssemblyEP20Il2CppReflectionType
lWp:_XmlDocument_CreateElement_m1589445899
Dvp:_GoogleMobileAd_CreateAdBanner_m619664421
Uk:_emscripten_glGetPointerv
p6s:_Transform_set_position_m2469242620
YRn:_FieldBuilder_CreateNotSupportedException_m3999938861
nkq:_AN_GMSGeneralProxy_revealAchievementById_m328644254
pD:__ZN8Animator22ApplyBuiltinRootMotionEv
h1e:__ZN5physx7profile8ZoneImplINS_28PxProfileNameProviderForwardEE17handleBufferFlushEPKhj
$Oq:_InternalEnumerator_1_System_Collections_IEnumerator_get_Current_m1622842821_gshared
_Rq:_InternalEnumerator_1_get_Current_m4279678504_gshared
YYp:_XmlInputStream_Write_m3041193964
YPp:_Array_InternalArray__get_Item_TisUInt16_t986882611_m2599215710_gshared
RQp:_Object_Instantiate_TisIl2CppObject_m1736742113_gshared
p$k:_ObscuredBool_t337339225_marshal_pinvoke
LHl:_UITable_GetChildList_m3773857949
NTd:__ZN5physx2Sc5ActorC2ERNS0_16InteractionSceneEhNS0_14IslandNodeInfo4TypeE
QSo:_BuyTable_get_allparams_m3918364113
Rvr:_Parser_EatWhitespace_m3410206218
Ylj:_BaseRaycaster_OnDisable_m1716508791
iep:_ISN_CacheManager_Clear_m891860300
fZi:_RandomNumberGenerator_Create_m2275686895
q5m:_GUIContent__ctor_m3634307516
YKb:__ZN8Renderer23VirtualRedirectTransferER14SafeBinaryRead
_Pn:_DerivedType_get_UnderlyingSystemType_m3904230233
$3n:__Z135RuntimeInvoker_IntPtr_t_Il2CppObject_Int32_t2071877448_Int32_t2071877448_Int32_t2071877448_Int32_t2071877448_MonoIOErrorU26_t1029615899PK10MethodInfoPvPS2_
$ae:__ZN5physx2Sc9ClothCore16setRestPositionsEPKNS_6PxVec4E
Vvr:_Serializer_SerializeValue_m3170217301
U4a:__Z27ConvertSubMeshesToTrianglesR13dynamic_arrayI7SubMeshLj4EERS_ItLj2EE
pTe:__ZN5physx2Gu12TriangleMesh4loadERNS_13PxInputStreamE
Stk:_X509Certificate2Collection__ctor_m819526826
EX:__ZN12AudioManager5ResetEv
Tin:_ARC4Managed_Finalize_m4206406046
bjn:_KeyBuilder_Key_m3814433741
ppm:_ArgumentException__ctor_m158205422
VVi:_SecurityElement_Unescape_m1089723634
b3k:_ObscuredFloat_ToString_m2725076769_AdjustorThunk
kPj:_UIPanel_set_clipTexture_m2950688819
Aaj:_Array_compare_TisVector3_t2243707580_m3709184876_gshared
tyc:__ZN15DirectorManager18ScheduleGraphStartERK14HPlayableGraph
Zrh:_KeyValuePair_2_ToString_m3392487231_gshared
fza:__ZN6prcoreL17RemapGenericFloatI17TexFormatRGBAHalf15TexFormatRGHalfEEvPKNS_9InnerInfoE
b0t:__ZN6il2cpp6icalls8mscorlib6System11Environment20GetWindowsFolderPathEi
qvg:__ZL60AspectRatioFitter_t3114550109_CustomAttributesCacheGeneratorP21CustomAttributesCache
HH:__ZN7mecanim5human18HumanPoseBlendNodeERNS0_9HumanPoseEPS1_f
Fhf:_UNITY_FT_RoundFix
pic:__ZN9ShaderLab20SerializedSubProgram15AddTextureParamEPKcii16TextureDimension
XA:__ZNK8Animator26GetTypeInfoVirtualInternalEv
jCd:__ZNK5physx2Gu15HeightFieldUtil12traceSegmentI24ConvexVsHeightfieldSweepLb0ELb0ELb1EEEvRKNS_6PxVec3ES6_PT_PS5_
eSe:__ZNK5physx12PxConvexMesh19getConcreteTypeNameEv
SIc:__Z32SetPlayerSettingsRunInBackgroundb
KCd:__ZN5physx2Gu19gjkLocalPenetrationINS0_9TriangleVENS0_17ShrunkConvexHullVEEEjRKT_RKT0_RKNS_6shdfnd3aos6FloatVERNSB_5Vec3VESG_SG_RSC_PhSI_Rhb
X0r:_List_1_System_Collections_IList_get_Item_m936735699_gshared
n_:__ZN4FMOD6System17setSoftwareFormatEi17FMOD_SOUND_FORMATii18FMOD_DSP_RESAMPLER
qEd:__ZN5physx2Gu15GJKLocalRayCastERNS0_9TriangleVERNS0_4BoxVERKNS_6shdfnd3aos6FloatVERKNS6_5Vec3VESC_RS7_RSA_SE_fb
aMd:__ZN5physx2Sc13ShapeIterator4initERKNS0_8ActorSimE
Jdu:_write
Kua:__ZN14SafeBinaryRead19TransferSTLStyleMapINSt3__23mapIN4core12basic_stringIcNS3_20StringStorageDefaultIcEEEES7_NS1_4lessIS7_EE13stl_allocatorINS1_4pairIKS7_S7_EEL18MemLabelIdentifier1ELi16EEEEEEvRT_17TransferMetaFlags
y$j:_PhotonNetwork_get_MaxResendsBeforeDisconnect_m3598959957
bqf:__ZN2UI6Canvas27UpdateEventIndexesRecursiveERi
EG:__ZN7mecanim9animation18EvaluateRootMotionERKNS0_18ClipMuscleConstantERKNS0_15ClipMuscleInputEPKfS8_RNS0_12MotionOutputEb
SAj:_InputField_set_characterLimit_m4114734597
Gdf:_UNITY_FT_Outline_New
$7s:_Vector2_ToString_m3925392051
$xl:_Dictionary_2_OnDeserialization_m3246495018_gshared
TZh:_Collection_1_IsSynchronized_m2731255799_gshared
L8b:__Z19TransferField_ArrayI19StreamedBinaryWriteILb0EE27Converter_SimpleNativeClassI8GUIStyleEEvRK23StaticTransferFieldInfoR31RuntimeSerializationCommandInfoRT0_
lrr:_SpriteRenderer_SetSprite_INTERNAL_m2338909670
$lo:__Z105RuntimeInvoker_Void_t1841601450_Rect_t3681755626_Vector2_t2243707579_Vector2_t2243707579_SByte_t454417549PK10MethodInfoPvPS2_
Fqm:_CultureInfo_get_InvariantCulture_m398972276
Jbf:__ZN20TextRenderingPrivate8TextMesh23VirtualRedirectTransferER18StreamedBinaryReadILb0EE
$5d:__ZN5physx14NpArticulationC2Ev
xRj:_UIPopupList_Clear_m3064880910
uzu:_emscripten_glCopyTexSubImage2D__wrapper
Zw:__ZN14SafeBinaryRead21TransferSTLStyleArrayINSt3__26vectorI24CompressedAnimationCurve13stl_allocatorIS3_L18MemLabelIdentifier25ELi16EEEEEEvRT_17TransferMetaFlags
rfq:_XsollaSubscription_Parse_m3017159102
GJq:_RemotingServices_CreateClientProxy_m768660530
BJq:_RemotingServices_RegisterInternalChannels_m1827304423
P8m:_GUIStyle_get_onNormal_m1675201777
yw:__ZL32CleanupAnimationScriptingClassesv
$Wo:_PeerBase_UpdateRoundTripTimeAndVariance_m2179966203
cVp:_XmlConvert_ToUInt16_m3204521056
Ebj:_Array_InternalArray__IndexOf_TisKeyValuePair_2_t289042807_m415746391_gshared
Ugd:__ZN22ParticleSystemRenderer16UpdateCachedMeshEv
G_g:__ZL53UILocalize_t3754440953_CustomAttributesCacheGeneratorP21CustomAttributesCache
F7c:__ZN12LightsModule8TransferI24GenerateTypeTreeTransferEEvRT_
$Bp:_GooglePlayRTM_OnMatchDataRecieved_m3891868934
Ta:invoke_viiffi
jBr:_FacebookBase_GetGraphUrl_m2658298089
xAr:_EditorFacebook_AppEventsLogPurchase_m124274662
dlb:__ZN13sorted_vectorINSt3__24pairIN4core12basic_stringIcNS2_20StringStorageDefaultIcEEEEPK17MessageIdentifierEEN10vector_mapIS6_S9_NS0_4lessIS6_EENS0_9allocatorISA_EEE13value_compareESF_E10insert_oneERKSA_
uIj:_UIEventListener_OnTooltip_m3320181748
fKk:_Thread_GetCachedCurrentUICulture_m5590127
Zll:_XmlSerializationWriter_WriteElementString_m481035489
o2o:_IOSMessage_Create_m1036938966
ACb:__ZNK12CubemapArray20GetRuntimeMemorySizeEv
hIn:_U3CBeginAuthenticateAsClientU3Ec__AnonStorey7_U3CU3Em__8_m2122166388
lgc:__Z14resize_trimmedINSt3__26vectorIN9ShaderLab18SerializedPropertyENS0_9allocatorIS3_EEEEEvRT_j
dSh:_List_1_CheckMatch_m4018158235_gshared
AYr:_U3CGetEnumeratorU3Ec__Iterator0_Reset_m447530827_gshared
Z2j:_PickupController_UpdateSmoothedMovementDirection_m3959668315
nne:__ZN5physx6shdfnd8PoolBaseINS_2Sc9ActorPairENS0_19ReflectionAllocatorIS3_EEE12allocateSlabEv
g6n:__Z89RuntimeInvoker_Boolean_t3825574718_Il2CppObject_Il2CppObject_StreamingContext_t1417235061PK10MethodInfoPvPS2_
wvi:_Byte_System_IConvertible_ToDateTime_m1583041031
sEp:_GooglePlayTBM_OnMatchInitiatedCallback_m1661027235
Mmk:_SocketAsyncCall_Invoke_m1037165363
W2p:_U3CUpdateStatusU3Ec__Iterator0_MoveNext_m625855218
cDp:_GooglePlaySavedGamesManager_remove_ActionGameSaveResult_m1934398309
cNb:__ZN10VertexData8TransferI24GenerateTypeTreeTransferEEvRT_
svd:__ZN16Physics2DManager12OverlapPointERK8Vector2fRKN10Collider2D13ContactFilterEPKS3_
EAs:_ReadOnlyCollection_1_System_Collections_IEnumerable_GetEnumerator_m531171980_gshared
b1t:__ZN13Il2CppHashMapIPK19Il2CppGenericMethodP10MethodInfoN6il2cpp8metadata23Il2CppGenericMethodHashENS6_26Il2CppGenericMethodCompareENSt3__29allocatorINS9_4pairIK10KeyWrapperIS2_ES4_EEEEEC2EjRKS7_RKS8_
iPo:_Room_SetPropertiesListedInLobby_m2002080373
igj:_Array_InternalArray__ICollection_CopyTo_TisNsScope_t2513625351_m1074026398_gshared
_fn:_PlayerConnection_MessageCallbackInternal_m267902474
Lvj:_Dropdown__cctor_m264401557
uhs:_Collider_get_attachedRigidbody_m3279305420
Gdt:_ChatChannel_Add_m3627970761
s4k:_ObscuredLong_ToString_m2325652927_AdjustorThunk
Dct:_JsonTextReader_ParseObject_m1559133365
ksi:_Array_IndexOf_m2819632474
P2q:_Comparer_1__cctor_m3996541505_gshared
YVr:_DTDReader_ReadAttributeDefinition_m1204959435
kI:__ZN7mecanim12statemachine20GetBlendTreeConstantERKNS0_13StateConstantEi
$hd:__ZZN14ParticleSystem15InitializeClassEvEN16cleanupAfterLoad7ForwardEv
GDu:b212
qoe:__ZN5physx7NpScene21setDominanceGroupPairEhhRKNS_20PxDominanceGroupPairE
MDu:b217
KDu:b216
JDu:b215
Zlj:_RaycasterManager_RemoveRaycasters_m3465850111
SIa:__ZN9GfxDevice16EndAsyncJobFrameEv
Smq:_AN_PropertyTemplate_set_Name_m124908108
Aef:_UNITY_tt_face_load_hhea
f_b:__ZN24RingBufferMemoryFileData11SetGrowableEb
pan:_GUIStyleState_set_background_m3931679679
JFi:_Convert_ToBase64String_m1936815455
Pm:___syscall3
zjk:_UICamera_IsVisible_m3021451623
iNl:_UM_BillingExample_OnBillingConnectFinishedAction_m3737572908
Sm:___syscall6
Um:___syscall4
MPi:_Decimal_ToString_m759431975
DPq:_InternalEnumerator_1_System_Collections_IEnumerator_get_Current_m530982347_gshared
I3i:_Array_get_swapper_TisUILineInfo_t3621277874_m2039324598_gshared
EDs:_ReadOnlyCollection_1_System_Collections_IList_get_Item_m3472752385_gshared
iBs:_ReadOnlyCollection_1_System_Collections_IList_Clear_m1704696544_gshared
osd:__ZNSt3__26__sortIR24RayHitsByDepthComparitorP12RaycastHit2DEEvT0_S5_T_
Vnk:_WebConnection_CreateTunnel_m3630849615
imi:_NGUIMath_HexToColor_m1114865386
l_l:_GamePlayUI_OnGameEnd_m1332956985
xki:_NetworkingPeer_UpdateMasterClient_m192064655
KKj:_UIImageButton_OnEnable_m3629091358
JGc:__ZN9Scripting25BroadcastScriptingMessageER10GameObjectPKc18ScriptingObjectPtr
jn:_emscripten_glShaderBinary
mri:_Array_InternalArray__RemoveAt_m1126483634
rfs:_Camera_INTERNAL_CALL_RaycastTry_m1030092423
t9:__ZNK20LocalFileSystemPosix6ExistsERK13FileEntryData
Ozq:_LinearLayout_Invalidate_m1031375916
Ban:_GUITexture_INTERNAL_set_pixelInset_m3483700034
TRd:__ZN5physx35NpArticulationJointGetBodiesFromScbERNS_3Scb17ArticulationJointERPNS0_4BodyES5_
VD:__ZN7mecanim5human19MaskHasLeftFootGoalERKNS_6bitsetILj70EEE
zRe:__ZNK5physx2Sc15ClothFabricCore16getTetherLengthsEPfj
ffn:_Mesh_get_colors32_m4153271224
Ttd:__ZNK17Physics2DSettings26GetTypeInfoVirtualInternalEv
LIb:_access_virt_sarray
_Xs:_IndexedSet_1_RemoveAll_m2736534958_gshared
ubj:_Array_InternalArray__IndexOf_TisJsonPosition_t687338249_m2098213305_gshared
Btf:__Z58Register_UnityEngine_Canvas_GetETC1SupportedCanvasMaterialv
ogj:_Array_InternalArray__ICollection_CopyTo_TisColor32_t874517518_m379086718_gshared
uir:_Physics2D_INTERNAL_CALL_GetRayIntersectionAll_m161475998
Oac:__ZN17AnimationCurveTplIfE8TransferI18StreamedBinaryReadILb1EEEEvRT_
h2s:_Nullable_1_ToString_m516194009_gshared
Z6s:_Transform_get_localToWorldMatrix_m2868579006
VNi:_DateTimeOffset_GetHashCode_m3312197462_AdjustorThunk
gqr:_SliderHandler_ClampedCurrentValue_m1479539118
rIn:_ServicePoint_set_UseNagleAlgorithm_m2618011464
rNo:_RaiseEventOptions__cctor_m3687732992
tYc:__Z40WWW_Get_Custom_PropResponseHeadersStringP12Il2CppObject
dCt:_il2cpp_set_data_dir
gte:__ZN5physx2Sc13ConstraintSim8getForceERNS_6PxVec3ES3_
btp:_Extensions_GetPhotonView_m2197044566
pZl:_GADBannerIdFactory_get_nextId_m224006057
Qao:__Z68RuntimeInvoker_Int32_t2071877448_IntPtr_t_Int32_t2071877448_IntPtr_tPK10MethodInfoPvPS2_
Zxi:_ArrayList__ctor_m4012174379
Gll:_XmlSerializationWriter_GetQualifiedName_m1008543047
N_s:_U3CCreateSelectIteratorU3Ec__Iterator10_2_MoveNext_m598746401_gshared
Xan:_Hash128_GetHashCode_m2015181591
DSm:_AudioController_set_Volume_m1029100445
yam:_GoogleAnalyticsSettings_GetCurentProfile_m67760753
nO:__ZN7mecanim5human5HumanC2Ev
fDc:__Z19WriteObjectToVectorRK6ObjectR13dynamic_arrayIhLj1EE24TransferInstructionFlags
T2l:_GameCenterManager_ResetAchievements_m630773494
Zxd:__ZN5physx15PxGeometryQuery18computePenetrationERNS_6PxVec3ERfRKNS_10PxGeometryERKNS_11PxTransformES6_S9_
b4l:_GameCenterInvitations__ctor_m3302021428
itr:_TextEditor_SelectToEndOfPreviousWord_m3931162275
D4l:_GameCenterManager_remove_OnGameCenterViewDismissed_m1615914455
L5e:__ZN5Unity12PhysicsQueryC2Ev
MYm:_AnimationClipPlayable_get_removeStartOffset_m1437128149
kDa:__ZL7StbFreePvS_
DLe:__ZN5physx10PxsContext13updateIslandsEfPNS_10PxBaseTaskE
eKi:_Convert_ToUInt16_m1665900934
r7c:__ZN11ColorModule8TransferI24GenerateTypeTreeTransferEEvRT_
Cgb:__Z14DrawGUITextureRK5RectTIfEP7Texture11ColorRGBA32P8Materiali
j6p:_XsollaForm_GetSumTotal_m1573914373
Lsq:_AndroidGoogleAdsExample_OnInAppRequest_m3635442651
cWc:__Z42Register_UnityEngine_Texture2D_EncodeToPNGv
enr:_RectTransform_GetParentSize_m1571597933
eC:__ZN9BlobWrite8TransferI22OffsetPtrArrayTransferIKN4math7_float4EEEEvRT_PKc17TransferMetaFlags
dDj:_LayoutElement_set_ignoreLayout_m1530090081
Akn:_RSAManaged__ctor_m1680944437
Nra:__ZN15TextureSettings8TransferI24GenerateTypeTreeTransferEEvRT_
rpl:_Enumerator_System_Collections_IEnumerator_get_Current_m2642524381_gshared
Gyk:_MatchCollection_GetEnumerator_m3516985966
nqu:dynCall_vifi
gEk:_UTF7Encoding__ctor_m2365939916
zYa:__ZN25MultiBlocksMemoryFileData9SetLengthEy
F0:__Z30GetAudioSpatializerDefinitionsR13dynamic_arrayIP29AudioEffectInternalDefinitionLj4EE
jQl:_UM_InAppPurchaseManager_FakeRestoreEvent_m3850890235
L7q:_Enumerator_get_CurrentKey_m3839846791_AdjustorThunk
G3j:_PickupItemSyncer_SendPickedUpItems_m3407434898
TGr:_MatEntry__ctor_m3650167335
r_s:_U3CCreateConcatIteratorU3Ec__Iterator1_1_Reset_m2389309517_gshared
vbi:_ReadOnlyCollection_1_System_Collections_IList_Remove_m2141749546_gshared
Noo:__Z143RuntimeInvoker_Void_t1841601450_Il2CppObject_Vector2_t2243707579_Vector2_t2243707579_Color32_t874517518_Vector2_t2243707579_Vector2_t2243707579PK10MethodInfoPvPS2_
GOe:__ZNK18ScBeforeSolverTask7getNameEv
xmm:_StrongName_InvalidateCache_m4088388770
PIq:_ProxyAttribute_CreateInstance_m546961127
Ynd:__ZN10Collider2D13AwakeFromLoadE17AwakeFromLoadMode
iDb:__ZNK9Texture2D20GetRuntimeMemorySizeEv
yni:_NGUIText_WrapText_m690767618
QBe:__ZN5physx14solve1D4_BlockEPKNS_23PxcSolverConstraintDescEjRNS_16PxcSolverContextE
to:_emscripten_glUniform2iv
wyd:__ZL33GeomMTDCallback_ConvexHeightFieldRN5physx6PxVec3ERfRKNS_10PxGeometryERKNS_11PxTransformES5_S8_
oKl:_UIWidget_get_localSize_m368013321
M9e:_UNITY_FT_Outline_Transform
yVc:__Z60Register_UnityEngine_Sprites_DataUtility_Internal_GetMinSizev
Ppt:__ZN6il2cpp2vm5Class10GetMethodsEP11Il2CppClassPPv
E6o:_IOSCamera__ctor_m158284279
dab:__Z30AddDefaultStreamsToMeshBuffersR9GfxDeviceR11MeshBuffersRK16DrawBuffersRange17ShaderChannelMaskS6_
m5l:_GK_LeaderboardResult__ctor_m2396490620
pno:__Z80RuntimeInvoker_Void_t1841601450_Il2CppObject_Double_t4078015681_SByte_t454417549PK10MethodInfoPvPS2_
o2i:_Hash_GetObjectData_m315532943
$Ma:__ZN7ApiGLES17DeleteFramebufferERN2gl6HandleILNS0_10ObjectTypeE9EEES3_
NTa:__ZN15UniformTFMethod13MapBoneBufferEj
wnn:_RecordProtocol_SendAlert_m2816808523
dpf:__ZN2UI14CanvasRendererD2Ev
G9r:_Animator_SetFloat_m956158019
XLc:__Z45Register_UnityEngine_Camera_set_nearClipPlanev
evi:_Boolean_TryParse_m3918169608
XGe:__ZN5physx26PxcPCMContactCapsuleConvexERKNS_2Gu13GeometryUnionES3_RKNS_11PxTransformES6_RKfRNS_10PxcNpCacheERNS0_13ContactBufferE
kPt:__ZN6il2cpp6icalls8mscorlib6System5Array8SetValueEP11Il2CppArrayP12Il2CppObjectS5_
jEm:_SynchronizedReader_Read_m1399666181
eXn:_MonoEvent_get_Name_m2796714646
PLt:__ZN15dense_hashtableINSt3__24pairIK10KeyWrapperINS1_IPK9EventInfoP11Il2CppClassEEEjEES9_17ReflectionMapHashIS8_EN14dense_hash_mapIS9_jSD_NS9_14EqualsComparerINS0_8equal_toIS8_EEEENS0_9allocatorISB_EEE9SelectKeyESI_SK_E15set_deleted_keyERKSB_
loa:__Z9SetupArgviPPKc
roj:_PointerEventData_set_worldNormal_m2025727441
aKt:__ZN6il2cpp2vm10Reflection7IsFieldEP12Il2CppObject
W2t:__ZN6il2cpp2vm4Enum21GetEnumValuesAndNamesEP11Il2CppClassPP11Il2CppArrayS6_
u7e:__Z57Register_UnityEngine_Rigidbody_INTERNAL_CALL_MoveRotationv
N2p:_XmlWriter_WriteAttributeString_m2741345027
Don:_Context_get_SentConnectionEnd_m3114190867
RUd:__ZN5physx10PxsContext17addParticleSystemEPNS_15PxsParticleDataERKNS_26PxvParticleSystemParameterEb
NSd:__ZN5physx3Scb5Scene13addRigidNoSimINS0_4BodyELb1ELb1EEEvRT_RNS0_13ObjectTrackerE
ECb:__ZN12CubemapArray23VirtualRedirectTransferER24GenerateTypeTreeTransfer
fYn:_MonoMethod_ToString_m1014895917
jja:__ZN12FileAccessor4OpenER15FileSystemEntry14FilePermission16FileAutoBehavior
GCs:_ReadOnlyCollection_1__ctor_m2364452928_gshared
A$m:_AnimatorControllerPlayable_CrossFadeInternal_m3412201542
Ram:_GoogleAnalytics__cctor_m422013063
IDd:__ZL19sweepBoxVsTrianglesjPKN5physx10PxTriangleERKNS_2Gu3BoxERKNS_6PxVec3EfRNS_10PxSweepHitENS_7PxFlagsINS_9PxHitFlag4EnumEtEEbPKj
rml:_XmlSerializationWriter_WriteStartElement_m3760846524
wLb:__ZN23TransformChangeDispatch32QueueTransformChangeIfHasChangedERK15TransformAccess
Wnj:_PointerEventData_set_clickTime_m3931922487
YJn:_NumberFormatter_AppendNonNegativeNumber_m629862866
wwa:__ZNSt3__26vectorINS_4pairIN9ShaderLab16FastPropertyNameEN18UnityPropertySheet11UnityTexEnvEEENS_9allocatorIS6_EEE21__push_back_slow_pathIKS6_EEvRT_
Vvu:_glTexImage3D__wrapper
rQm:_AS_MySQLFieldHelper_FormatAsMySQLString_m488951084
qts:_ResourceInfo__ctor_m2401359321_AdjustorThunk
l0t:__ZN6il2cpp2os26LibraryNamePrefixAndSuffixC2EPKcS3_
fjj:_Array_InternalArray__set_Item_TisMonoResource_t3127387157_m732733855_gshared
P7p:_Settings_t3767021629_marshal_pinvoke
Pcr:_KeyCollection_System_Collections_Generic_ICollectionU3CTKeyU3E_Remove_m2523591834_gshared
YBi:_Hashtable__ctor_m392789568
MJk:_Mutex_CreateMutex_internal_m2352956576
yZj:_PhotonPingManager_PingSocket_m3416323013
fIk:_UTF7Encoding__cctor_m4192443836
i7o:_IOSDateTimePicker_DateChangedEvent_m1110016961
A1c:__Z31GUIStyle_CUSTOM_SetFontInternalP12Il2CppObjectS0_
B:tempValue
_zl:_Dictionary_2_ToTKey_m2900575080_gshared
oht:_RuntimeServices_GetConvertTypeCode_m69867490
d5e:__ZZN12MeshCollider15InitializeClassEvEN29FunctorImpl_400kDidModifyMesh4CallEPviR11MessageData
Bmi:_NGUIMath_SpringLerp_m802629114
h8s:_Vector2_get_magnitude_m33802565_AdjustorThunk
oum:_Int16_System_IConvertible_ToSingle_m3277935657
Mca:__Z29scripting_class_from_fullnamePKcS0_S0_
J1o:_iAdBannerController_bannerViewWillLoadAd_m2992192461
MIr:_Raycast3DCallback_Invoke_m2271859924
II:__ZN26AnimatorControllerPlayable18DeallocateBindingsEv
Sap:_IOSNotificationController_OnNotificationScheduleResultAction_m150981819
Fyd:__ZN5physx2Gu29ConvexVsMeshContactGeneration20generateLastContactsEv
QEi:_ListKeys_Contains_m2147849441
Miu:__ZNSt3__220__get_up_to_n_digitsIcNS_19istreambuf_iteratorIcNS_11char_traitsIcEEEEEEiRT0_S5_RjRKNS_5ctypeIT_EEi
a1:__ZN11AudioSource19CreateOpenALRolloffEfff
nff:_UNITY_FT_Stream_ReadAt
tlo:__Z132RuntimeInvoker_Void_t1841601450_Rect_t3681755626_Il2CppObject_Int32_t2071877448_Int32_t2071877448_Int32_t2071877448_SByte_t454417549PK10MethodInfoPvPS2_
aee:__ZN5physx2Sc17ParticleSystemSim16getParticleStateEv
$Ca:__ZN9Texture3D34UpdateFileTextureUploadInstructionEP28FileTextureUploadInstructionj
MNe:__ZN5physx6shdfnd5ArrayINS_25PxsCompoundContactManagerENS0_19ReflectionAllocatorIS2_EEE8recreateEj
m9m:_GUIStyle_get_lineHeight_m2132859383
UTk:_U3CStartU3Ec__Iterator0_Reset_m1884205124
_Ao:__Z102RuntimeInvoker_Int32_t2071877448_Il2CppObject_UIVertex_t1204258818_Int32_t2071877448_Int32_t2071877448PK10MethodInfoPvPS2_
cMg:__ZL125IOSNotificationController_t796362558_CustomAttributesCacheGenerator_IOSNotificationController_ShowNotificationBanner_m7281089P21CustomAttributesCache
Mei:_MainValidator_validate_m156626809
nDs:_ReadOnlyCollection_1_System_Collections_Generic_IListU3CTU3E_RemoveAt_m2137782652_gshared
Tik:_UIButtonRotation_Start_m746835677
cf:_glReadBuffer
iji:_NetworkCharacter_OnPhotonSerializeView_m2209585505
rOk:_UInt16_System_IConvertible_ToBoolean_m887616848
IEe:__ZN5physx14PxsAABBManagerC2ERNS_2Cm13EventProfilerERNS_19PxcScratchAllocatorE
O2:__ZN11AudioModule22CreateAudioClipFromWWWEP10IWWWStreamPKcbbi
WGk:_StringBuilder_set_Length_m3039225444
I$i:_SHA256_Create_m3464364143
vdk:_TournamentUserUI_OnClickAvatar_m2963705673
S6h:_Collection_1_System_Collections_IList_Contains_m3870109702_gshared
h5i:_Array_InternalArray__ICollection_Contains_TisRaycastResult_t21186376_m3188614988_gshared
ZWk:_BMFont_Clear_m3571887230
RKi:_CultureAwareComparer_GetHashCode_m3681260951
crf:__Z13RegisterClassIN2UI11CanvasGroupEEvv
kh:_emscripten_glClear
VIr:_Selectable__ctor_m1440593935
Pgl:_XmlElementEventArgs__ctor_m3795702438
vbb:__ZN15SHConstantCacheC2ER13BatchRendererR15RenderLoopStats
Ozi:_SynchronizedArrayListWrapper_get_Count_m4104930530
heq:_XsollaSDK_U3CCreatePaymentFormU3Em__2_m2696860423
pyc:__ZNK8Playable6HandleEv
sem:_GoogleCloudUseExample_DeleteState_m2835094390
$S:__Z45Register_UnityEngine_AnimationState_set_layerv
ped:__Z11StartCircleILN11ShapeModule14MultiModeValueE2ELb0EEvRS0_R23ParticleSystemParticlesRK19ParticleSystemStateRK27ParticleSystemEmissionStateRKN4math8float3x3EPKfjbj
kbi:_ReadOnlyCollection_1_System_Collections_Generic_IListU3CTU3E_RemoveAt_m3542461103_gshared
wha:__ZN14MessageHandler28MessageIDToMessageIdentifierEi
pFn:_HttpRequestCreator_Create_m3607509610
Ucp:_IOSSocialUseExample_HandleOnInstagramPostResult_m1858670772
A1p:_XmlTextWriter_get_XmlLang_m555922395
y2s:_Nullable_1_ToString_m769970515_AdjustorThunk
UGj:_OnDragNotification_Invoke_m2397674476
ywd:__Z52Register_UnityEngine_BoxCollider2D_INTERNAL_set_sizev
tSk:_Version_GetHashCode_m880841176
AT:__Z51Register_UnityEngine_Animator_get_hasBoundPlayablesv
U1s:_Nullable_1_ToString_m1238126148_AdjustorThunk
e4o:_InvDatabase_GetItem_m1127392087
yf:emscriptenWebGLGetUniform
Rr:FUNCTION_TABLE_iiiiiiiiiii
MFd:__ZN5physx2Gu19sweepCapsuleCapsuleERKNS0_7CapsuleES3_RKNS_6PxVec3EfRfRS4_S8_jRt
Sfb:__ZL10CleanUpJobP20CullingGroupsJobData
U0j:_PhotonPlayer_GetNextFor_m1421830979
Jlc:_prepare_for_pass
z5m:_GUILayoutGroup_Add_m211909690
vDk:_String_Join_m1966872927
VVq:_InternalEnumerator_1_System_Collections_IEnumerator_get_Current_m2035754659_AdjustorThunk
bQb:__ZN10MeshFilter23VirtualRedirectTransferER24GenerateTypeTreeTransfer
ZRe:__ZN5physx13BigConvexData4LoadERNS_13PxInputStreamE
vgb:__ZN13RenderManager15BatchModeUpdateEv
fIb:_jpeg_resync_to_restart
PWg:__ZL84NGUITools_t2004302824_CustomAttributesCacheGenerator_NGUITools_ParseColor_m399906211P21CustomAttributesCache
$Nb:__ZN14SafeBinaryRead21TransferSTLStyleArrayI13dynamic_arrayI8Vector2fLj4EEEEvRT_17TransferMetaFlags
rwa:__ZN17PersistentManager51InstanceIDToLocalSerializedObjectIdentifierInternalEiR31LocalSerializedObjectIdentifier
y_o:_PhotonPeer_get_ServerAddress_m16974593
Xpd:__ZN10ClipperLib7Clipper15SetWindingCountERNS_5TEdgeE
rkf:_UNITY_FT_Create_Class_cff_services
x_c:__ZN8GUIState12GetControlIDEi9FocusType
yak:_TBM_Multiplayer_Example_HandleActionPlayerRequestedMatchWithRecipients_m2475297978
Xxt:__ZNSt3__213__vector_baseIN6il2cpp2os19SocketHandleWrapperENS_9allocatorIS3_EEED2Ev
Qf:_glVertexAttribIPointer
vZp:_XmlNamespaceManager_PopScope_m2180989617
bYi:_HMAC_set_HashName_m457235014
ACc:__ZNK6Sprite10GetPaddingE20SpriteRenderDataMode
dZo:_DiffieHellmanCryptoProvider_DeriveSharedKey_m2840057894
O0d:__ZN5physx2Cm8PtrTable5clearERNS0_22PtrTableStorageManagerE
iEp:_GooglePlayTBM_SetVariant_m3320894293
XOt:__ZNSt3__215basic_stringbufIcNS_11char_traitsIcEENS_9allocatorIcEEE7seekoffExNS_8ios_base7seekdirEj
_3i:_Array_InternalArray__ICollection_Contains_TisTableRange_t2011406615_m605506746_gshared
Qzl:_Dictionary_2_Add_m1296007576_gshared
vAn:_CookieContainer_CountDomain_m1088970898
GJi:_Decimal_op_Explicit_m729046406
wJd:__ZN5physx3Cct15ObstacleContext7releaseEv
dxj:_Graphic_OnEnable_m2900261811
uBe:__ZN5physx27solveFrictionBlockWriteBackEPKNS_23PxcSolverConstraintDescEjRNS_16PxcSolverContextEPNS_25PxcThresholdStreamElementEjPi
sWi:_CryptographicUnexpectedOperationException__ctor_m3552441227
P_m:_AnimatorControllerPlayable_GetAnimatorClipInfoCountInternal_m826336390
Yyi:_ArrayListWrapper_Clear_m321161741
kzt:__ZN6il2cpp2vm7Runtime10SetDataDirEPKc
JGj:_UIDragResize_OnDragStart_m3976073938
eCj:_InputField_LineDownCharacterPosition_m2690468785
$Yk:_ChangeScene_goScene_m954094139
mff:_UNITY_ft_glyphslot_alloc_bitmap
F1q:_Comparer_1__cctor_m2347159423_gshared
XPo:_RPGMovement_ApplySynchronizedValues_m3594968883
$pr:_SliderHandler_OnRepaint_m4171175698
$Qm:_AS_ShortDemo_OnUpload_m2866867371
Yrq:_AndroidCamera_GetImageFromGallery_m1843134150
LUt:__ZN14dense_hash_mapI10KeyWrapperIP12Il2CppObjectEN6il2cpp2gc9CachedCCWENS4_5utils11PointerHashIS1_EENS3_14EqualsComparerINSt3__28equal_toIS2_EEEENSB_9allocatorINSB_4pairIKS3_S6_EEEEEC2EjRKS9_RKSE_
uQk:_UInt64_System_IConvertible_ToDouble_m2828923873
B3n:__Z45RuntimeInvoker_Il2CppObject_Int16_t4041245914PK10MethodInfoPvPS2_
n2m:_GUI_CalculateScaledTextureRects_m3962984624
jqc:__ZZN2UI13RectTransform15InitializeClassEvEN31FunctorImpl_62kTransformChanged4CallEPviR11MessageData
Hvk:_BaseMachine_Split_m3850876468
yNh:_List_1_System_Collections_IList_set_Item_m1129584681_gshared
Igf:_ft_raster1_render
FTc:__Z57Register_UnityEngine_RectTransform_INTERNAL_set_anchorMaxv
ZQc:__Z36Quaternion_CUSTOM_INTERNAL_CALL_LerpRK11QuaternionfS1_fRS_
zGh:_List_1_set_Capacity_m491101164_gshared
eju:__ZNKSt3__28time_getIwNS_19istreambuf_iteratorIwNS_11char_traitsIwEEEEE9__get_dayERiRS4_S4_RjRKNS_5ctypeIwEE
Hnu:__ZNKSt3__221__basic_string_commonILb1EE20__throw_length_errorEv
eZs:_UnitySingleton_1_GetSingleton_m2249963370_gshared
dl:_JS_SystemInfo_GetMemory
A_k:_SpeedHackDetector_get_GetOrCreateInstance_m126694763
ktn:_SslStreamBase_get_HashStrength_m480059173
sSa:__ZN18GfxFramebufferGLES13ReadbackImageER14ImageReferenceiiiiii
_bl:_ObscuredVector3_op_Inequality_m2729973205
JKo:_Profile_GetName_m4183454581
Tsl:_ValueCollection_System_Collections_Generic_ICollectionU3CTValueU3E_Clear_m3271993638_gshared
Mxa:__ZN6prcoreL12RemapGenericI17TexFormatARGB888815TexFormatRGB565EEvPKNS_9InnerInfoE
TY:__ZN4FMOD7Channel19setReverbPropertiesEPK29FMOD_REVERB_CHANNELPROPERTIES
Xga:__ZN13MonoBehaviour22GetScriptFullClassNameEv
W3c:__ZN11MinMaxCurve19GetWritableMinCurveEv
lbr:_KeyCollection_System_Collections_Generic_ICollectionU3CTKeyU3E_Remove_m1956194730_gshared
tKo:_PreviewScreenUtil_remove_ActionScreenResized_m1062568297
TNe:__ZN5physx6shdfnd4sortIPNS_15PxsContactPatchENS_27SortBoundsPredicateManifoldENS0_19ReflectionAllocatorIS3_EEEEvPT_jRKT0_RKT1_j
JOc:__Z48Register_UnityEngine_GameObject_BroadcastMessagev
iEn:_ServicePointManager_FindServicePoint_m3137356168
Nno:__Z197RuntimeInvoker_Void_t1841601450_Il2CppObject_Il2CppObject_Il2CppObject_Int32_t2071877448_Nullable_1_t334943763_Nullable_1_t334943763_Il2CppObject_Il2CppObject_Il2CppObject_Il2CppObject_Il2CppObjectPK10MethodInfoPvPS2_
rYj:_PhotonAnimatorView_DoesLayerSynchronizeTypeExist_m3499674257
Wfi:_MNAndroidNative_showDialog_m3399332433
kys:_ReadOnlyCollection_1_System_Collections_Generic_ICollectionU3CTU3E_Clear_m656870291_gshared
yCa:__ZN20SphericalHarmonicsL211AddWeightedERKS_f
Joj:_PointerInputModule_GetPointerData_m1695674453
Zmi:__Z14bankers_roundff
G5b:__Z19TransferField_ArrayI17RemapPPtrTransfer27Converter_SimpleNativeClassI8GUIStyleEEvRK23StaticTransferFieldInfoR31RuntimeSerializationCommandInfoRT0_
LKi:_Convert_ToUInt64_m345450801
U2j:_PickupCamera_LateUpdate_m2113823431
EHb:_h2v1_fancy_upsample
V2s:_Predicate_1_BeginInvoke_m2559992383_gshared
vTt:__ZN6il2cpp2vm3RCW7CleanupEP15Il2CppComObject
S_e:__ZN14PhysicsManager23VirtualRedirectTransferER19StreamedBinaryWriteILb0EE
qha:__Z25scripting_method_get_name18ScriptingMethodPtr
STc:__Z35Register_UnityEngine_Resources_Loadv
p4b:__Z19TransferField_ArrayI14SafeBinaryRead16Converter_StringEvRK23StaticTransferFieldInfoR31RuntimeSerializationCommandInfoRT0_
klc:_pre_process_data
Xii:_U3COnlineStatusU3Ec__Iterator0_Reset_m2786890774
Ueu:_rename
ybd:__ZN14ParticleSystem17SimulateParticlesER24ParticleSystemUpdateDataR23ParticleSystemParticlesjRKfPj
T7j:_U3CU3Ec__Iterator0_MoveNext_m4078887849
qJk:_WaitHandle_CheckDisposed_m2858088315
USo:_SetAvatar_get_url_m435527052
k7s:_Transform_INTERNAL_CALL_TransformDirection_m2899991790
zIm:_NotSupportedException__ctor_m3232764727
Fx:__ZN7mecanim9animation9DenseClip8TransferI14SafeBinaryReadEEvRT_
Pwn:_TypeConverterAttribute_Equals_m2330345916
P8o:_IOSInAppPurchaseManager_OnProductViewLoadedFailed_m3269617433
yzd:__ZNK5physx2Gu15OBBTriangleTest10obbTriTestERKNS_6PxVec3ES4_S4_
Pur:_TextGenerator_get_lineCount_m4287181941
c1k:_ObscuredDecimal_ApplyNewCryptoKey_m961681189
wUk:_BBundleEventListener_BBundleAllDownloadsFinished_m4152658719
tLc:__Z27Camera_Set_Custom_PropDepthP12Il2CppObjectf
Y8k:_ObscuredULong__ctor_m3747664010_AdjustorThunk
NKs:_Func_2_Invoke_m2083325041_gshared
sNi:_DateTime_ToString_m1117481977
KAq:_QuickPaymentsController_SetQuickMethods_m3558639273
$ym:_MonoIO_CreateDirectory_m379525469
rxp:_GooglePlayEvents_SumbitEvent_m4046026464
A4k:_xxHash_CalculateHash_m42097395
vcs:_AudioSettings_get_dspTime_m2570540328
XB:__ZN9BlobWrite8TransferI22OffsetPtrArrayTransferI9OffsetPtrIN7mecanim12statemachine18StateMachineMemoryEEEEEvRT_PKc17TransferMetaFlags
NTp:_XmlLinkedNode__ctor_m1176905295
tgk:_UI2DSprite_get_premultipliedAlpha_m867705927
Jcf:_UNITY_ft_smooth_renderer_class_pic_free
czp:_GooglePlayManager_loadTopScores_m1461307169
GQh:_List_1_System_Collections_IList_Remove_m3763718607_gshared
KGr:_Mask_OnDisable_m2648774416
bh:_emscripten_glStencilOpSeparate
o7o:_IOSDialog_remove_OnComplete_m491098941
xBk:_String_Concat_m2000667605
Uxt:__ZN6il2cpp2os19SocketHandleWrapperC2ERKS1_
xyh:_Enumerator_System_Collections_IEnumerator_get_Current_m2361456515_AdjustorThunk
x_t:__ZN6il2cpp2os10ThreadImpl12QueueUserAPCEPFvPvES2_
Fnu:__ZNSt3__211__call_onceERVmPvPFvS2_E
U9e:__ZN20TextRenderingPrivate15DynamicFontData36GetFaceForCharacterIfAvailableInFontERKNS_7FontRefERKNSt3__26vectorI4PPtrIN13TextRendering4FontEE13stl_allocatorIS9_L18MemLabelIdentifier34ELi16EEEEj
mSt:__ZN6il2cpp6icalls8mscorlib6System2IO6MonoIO4SeekE12Il2CppIntPtrxiPi
dsp:_TimeKeeper_get_ShouldExecute_m1818183884
c2m:_GUI_INTERNAL_CALL_DoLabel_m2786347772
VUo:_DeserializeStreamMethod_Invoke_m3974044424
Moq:_AN_SoomlaProxy_OnMarketPurchaseStarted_m49363513
fSm:_AudioObject_get__volumeWithCategory_m1200591514
Sel:_TypeData__cctor_m1592059906
tKt:__ZN14dense_hash_mapI10KeyWrapperIPK14Il2CppAssemblyEPK16MonoAssemblyNameN6il2cpp5utils11PointerHashIS2_EENS4_14EqualsComparerINSt3__28equal_toIS3_EEEENSD_9allocatorINSD_4pairIKS4_S7_EEEEE13set_empty_keyERSJ_
rFd:__ZNK5physx2Gu15HeightFieldUtil12traceSegmentI25CapsuleTraceSegmentReportLb0ELb0ELb1EEEvRKNS_6PxVec3ES6_PT_PS5_
dGb:_UNITY_png_read_filter_row_up
pTg:__ZL58UICenterOnClick_t1492880774_CustomAttributesCacheGeneratorP21CustomAttributesCache
hmf:_UNITY_FT_Hypot
WFe:__ZN5physx10PxsContext23prepareCMDiscreteUpdateEPNS_10PxBaseTaskE
Zqc:__ZN8RendererC2E12RendererType18MemLabelIdentifier18ObjectCreationMode
ZSi:_Enum_ToObject_m1688724857
Vas:_Application_get_streamingAssetsPath_m8890645
p0d:__ZN5physx6shdfnd5ArrayIPvNS0_19ReflectionAllocatorINS_2Cm5BlockIhLj256EEEEEE4copyINS0_15InlineAllocatorILj256ES7_EEEEvRKNS1_IS2_T_EE
vh:_emscripten_glGetError
ACq:_ScreenErrorController_DrawScreen_m3307255642
GZ:__Z14FMOD_FILE_SeekPvjS_
qk:__MNP_ShowDialog
W3d:__ZN5physx6shdfnd8PoolBaseINS_11NpAggregateENS0_19ReflectionAllocatorIS2_EEE15disposeElementsEv
Ker:_ShimEnumerator_get_Entry_m2387156530_gshared
YUm:_AudioController_IsSoundMuted_m1434088041
z5i:_Array_InternalArray__ICollection_Remove_TisAS_MySQLFieldType_t17009163_m3807731321_gshared
FEd:__ZThn4_N16RayRTreeCallbackILi1ELb1EE14processResultsEjPj
Rmq:_AN_ManifestTemplate_AddPermission_m3824980760
dhb:__ZNK13RenderTexture32CalculateNeedsInvertedProjectionEv
kJd:__ZN5physx2Gu17RadixSortBuffered4SortEPKfj
Dh:emscriptenWebGLGet
Xlr:_Rect_GetHashCode_m559954498_AdjustorThunk
pja:__Z19CanReplaceComponentRN5Unity9ComponentEPKNS_4TypeEPN4core12basic_stringIcNS5_20StringStorageDefaultIcEEEE
Qtc:__ZN12CubemapArray11InitTextureEiii13TextureFormatb
aya:__ZN6prcoreL18BlitIntegerToFloatERK14ImageReferenceRS0_
tii:_NativeIOSActionsExample_OnDateChanged_m890174375
m4c:__ZN32CustomDataModulePropertyBindings13SetFloatValueER14ParticleSystemif
gGc:__Z17GetSceneBuildInfoRKN4core12basic_stringIcNS_20StringStorageDefaultIcEEEEiR14SceneBuildInfo
Uzm:_FileInfo__ctor_m2605645233
pbi:_ReadOnlyCollection_1_System_Collections_IEnumerable_GetEnumerator_m1648350226_gshared
lfn:_Mesh_SetUVs_m841280343
Csk:_X509Certificate2_get_SignatureAlgorithm_m3069898012
AU:__Z105Register_UnityEngine_Experimental_Director_AnimatorControllerPlayable_INTERNAL_CALL_GetLayerCountInternalv
_Od:__ZN27ConvexVsMeshOverlapCallbackC2ERKN5physx2Gu10ConvexMeshERKNS0_11PxMeshScaleERKNS0_2Cm23FastVertex2ShapeScalingERKNS0_11PxTransformESE_bRKNS1_3BoxE
iEc:__Z18SetIParticleSystemP15IParticleSystem
jqo:__Z91RuntimeInvoker_Boolean_t3825574718_Il2CppObject_SByte_t454417549_ChatChannelU26_t4094830901PK10MethodInfoPvPS2_
rEg:__ZL117GooglePlayManager_t746138120_CustomAttributesCacheGenerator_GooglePlayManager_t746138120____leaderBoards_PropertyInfoP21CustomAttributesCache
M5m:_GUIStyle_INTERNAL_CALL_Internal_CalcSizeWithConstraints_m1203344891
FC:__ZN7mecanim5human13HumanFixTwistEPKNS0_5HumanEPNS_8skeleton13SkeletonPoseTIN4math4trsXEEES9_iiRKf
Nab:__ZL24AssignProjectorQueuesJobP30AssignProjectorQueuesJobHeader
qTm:_AudioObject__IsAudioLoopSequenceMode_m1049849615
ALk:_TimeSpan_get_Hours_m3804628138
P6j:_JSONLazyCreator_set_AsInt_m3987969462
cEg:__ZL110GooglePlayManager_t746138120_CustomAttributesCacheGenerator_GooglePlayManager_LoadConnectedPlayers_m1915778544P21CustomAttributesCache
IPo:_RPGCamera_LateUpdate_m3899905874
mic:__ZN9ShaderLab20SerializedSubProgram14SetConstBufferEPKci
yRb:__Z22SkinVerticesGenericCPUILi2ELb1ELb0EEvPKhiiiiPhiPKvS4_
pad:__ZN11ShapeModule9ResetSeedERK27ParticleSystemReadOnlyState
tpm:_ArgumentNullException__ctor_m911049464
X5e:__ZN13PhysicsModule17SetRigidBodyStateER9RigidbodyRKN8IPhysics14RigidBodyStateE
k5s:_Check_Source_m3385315029
FKs:_Func_2_Invoke_m1587848815_gshared
z9n:__Z66RuntimeInvoker_Void_t1841601450_Int32_t2071877448_Int64_t909078037PK10MethodInfoPvPS2_
Iif:_cf2_getStdVW
P7:__Z40DebugStringToFilePostprocessedStacktraceRK21DebugStringToFileData
Ywe:__ZN5physx2Sq12BucketPruner11shiftOriginERKNS_6PxVec3E
oSd:__ZN5physx6shdfnd5ArrayIPNS_2Sc16ArticulationCoreENS0_19ReflectionAllocatorIS4_EEE15growAndPushBackERKS4_
Hgn:_Object_GetInstanceID_m1920497914
vVq:_InternalEnumerator_1_get_Current_m314017974_AdjustorThunk
O$m:_AnimatorControllerPlayable_Play_m1337154648
zdp:_IOSStoreProductView__ctor_m72927807
ki:__setLetterbox
aBm:_MemoryStream__ctor_m1043059966
r9k:_ObscuredULong_GetHashCode_m3915340364_AdjustorThunk
sMe:__ZN5physx19normalizePartitionsERNS_6shdfnd5ArrayIjNS0_19ReflectionAllocatorIjEEEEPNS_23PxcSolverConstraintDescEPKNS_13PxcSolverBodyEjjS5_
Hpi:_ObjectPool__RecursivelySetInactiveAndSendMessages_m37581622
Eur:_TextGenerator_Populate_Internal_m1817393161
o3o:_InitAndroidInventoryTask_add_ActionFailed_m1860069403
tAd:__ZN18ContactCapsuleMesh20processTriangleCacheILj16EEEbRN5physx2Gu13TriangleCacheIXT_EEE
YOb:__ZNSt3__26vectorI17BlendShapeChannelNS_9allocatorIS1_EEE6assignINS_11__wrap_iterIPS1_EEEENS_9enable_ifIXaasr21__is_forward_iteratorIT_EE5valuesr16is_constructibleIS1_NS_15iterator_traitsISA_E9referenceEEE5valueEvE4typeESA_SA_
mDj:_LayoutElement_set_preferredWidth_m3072758716
z8r:_Animation_Play_m112733823
irk:_AsnEncodedData_ToString_m724151831
Mgb:__ZN11TimeManager11GetRealtimeEv
evb:__ZN19AssetBundleManifestD0Ev
XNd:__ZN5physx2Sc16InteractionScene25removeFromActiveActorListERNS0_5ActorE
mbm:_GoogleAnalyticsClient_SetCampaignContent_m3479958124
BFc:__Z15WeldVertexArrayR13dynamic_arrayI8Vector3fLj4EERS_I13BoneInfluenceLj16EERS_ItLj2EES7_
SWn:_MonoMethodInfo_GetDeclaringType_m4186531677
iIq:_SoapTypeAttribute_SetReflectionObject_m1566293812
U5c:__ZNK11MinMaxCurve20FindMinMaxIntegratedEv
tKd:__ZN5physx3Ext21InertiaTensorComputer6rotateERKNS_7PxMat33E
FJq:_RemotingServices_CreateClientProxy_m1631035355
$Qk:_UInt64_ToString_m2892887310
mvc:__ZN12LineRenderer15InitializeClassEv
aNk:_Type_get_IsNestedPublic_m2575056966
zxo:__Z99RuntimeInvoker_Void_t1841601450_Il2CppObject_Single_t2076509932_Single_t2076509932_SByte_t454417549PK10MethodInfoPvPS2_
rMl:_UM_AdManager_StartInterstitialAd_m1196872121
lDa:_stbir_resize
Otr:_TextEditor_get_hasSelection_m3407150912
jkn:_EncryptedPrivateKeyInfo_Decode_m1706190306
lJt:__ZN6il2cpp2gc19AppendOnlyGCHashMapINSt3__24pairIPK9EventInfoP11Il2CppClassEEP21Il2CppReflectionEvent17ReflectionMapHashIS9_ENS2_8equal_toIS9_EEE11TryGetValueERKS9_PSB_
YHq:_SoapServices_CodeXmlNamespaceForClrTypeNamespace_m3502771270
WGe:__ZN5physx23PxcPCMContactCapsuleBoxERKNS_2Gu13GeometryUnionES3_RKNS_11PxTransformES6_RKfRNS_10PxcNpCacheERNS0_13ContactBufferE
LVp:_XmlDocument_get_DocumentType_m3596136406
ldm:_GoogleCloudManager_GetStateData_m3811594000
ZXa:__Z37ReadDirectoryInfo_UnityWebAndUnityRawR12FileAccessorRKN20ArchiveStorageHeader6HeaderERNS1_13DirectoryInfoE
Oea:__ZNSt3__26__treeINS_12__value_typeIPKciEENS_19__map_value_compareIS3_S4_15compare_tstringIS3_ELb1EEENS_9allocatorIS4_EEE7destroyEPNS_11__tree_nodeIS4_PvEE
SCl:_Dictionary_2_ToTValue_m1381983709_gshared
qIm:_MulticastDelegate_KPM_m1592985119
Nmu:__ZNSt3__26locale5__imp7installINS_5ctypeIcEEEEvPT_
oQr:_DTDNode_NotWFError_m1730769624
ini:_NGUIText_EncodeColor_m1278833841
fGr:_U3CU3Ec__cctor_m711105458
AVj:_PhotonView_get_isOwnerActive_m3326017258
H9h:_Collection_1_ConvertItem_m3941916604_gshared
N7a:__ZN20DynamicPropertySheet14SetValueQueuedEN9ShaderLab16FastPropertyNameEN19ShaderPropertySheet12PropertyTypeEjNS2_8SetFlagsE
Opf:__ZN2UI6Canvas26MarkAllNestedCanvasesDirtyEv
hTt:__ZN6il2cpp2vm12ReboxIfBoxedEP14Il2CppIUnknownP11Il2CppClass
mOh:_List_1__ctor_m2766376432_gshared
xlb:__ZN25PathNamePersistentManagerD2Ev
Ofa:__ZN17PersistentManager48IntegrateObjectAndUnlockIntegrationMutexInternalEi
g$o:_Protocol_DeserializeByte_m751075693
d0t:__ZN6il2cpp6icalls8mscorlib6System11Environment20GetMachineConfigPathEv
Jkl:_XmlSerializationReaderInterpreter_SetMemberValue_m1010438802
O3o:_InRoomRoundTimer__ctor_m3481733288
Ys:__ZN6Object12SetHideFlagsENS_9HideFlagsE
Wfu:__ZNSt3__28ios_base4initEPv
htd:__ZN9b2Fixture11SynchronizeEP12b2BroadPhaseRK11b2TransformS4_
J$e:__ZN9Rigidbody23VirtualRedirectTransferER14SafeBinaryRead
DGj:_UIRect_get_parent_m2721070757
cgb:__ZN13RendererScene15InitializeUmbraEv
zas:_AnimatorTransitionInfo_IsName_m2561957738_AdjustorThunk
iCa:__Z28CalculateGlobalMatrixInverse23TransformAccessReadOnly
l5l:_GameCenterManager_onScoreSubmittedFailed_m2376551680
Yed:__ZN23ParticleSystemParticles17SetUsesCustomDataEi
Eoj:_PointerEventData_ToString_m1218584363
Qcu:___ctype_toupper_loc
nIk:_UTF7Encoding_GetCharCount_m2589913583
$Jt:__ZN6il2cpp2vmL16IsGenericCMethodEP12Il2CppObject
oee:__ZNK5physx15PxsParticleData15getWorldBoundsVEv
lZe:__ZN15CapsuleCollider13AwakeFromLoadE17AwakeFromLoadMode
FAr:_EditorFacebook_OnGetAppLinkComplete_m2239434121
pGd:__ZN12_GLOBAL__N_124HfTrianglesEntityReport27onEventEjPj
Bxi:_Char_IsUpper_m4083577610
yWj:_Serializer_SerializeValue_m1960937922
cdj:_CallbackManager_AddFacebookDelegate_TisIl2CppObject_m2534176915_gshared
cMk:_TimeSpan_Equals_m4102942751_AdjustorThunk
who:__Z67RuntimeInvoker_Void_t1841601450_Scene_t1684909666_Scene_t1684909666PK10MethodInfoPvPS2_
Ssl:_ValueCollection_System_Collections_Generic_ICollectionU3CTValueU3E_Add_m1903672223_gshared
o$d:__ZN5physx17PxsContactManager16resetCachedStateEv
dW:__ZN4FMOD6SoundI7releaseEv
lje:__ZN5physx20NpRigidActorTemplateINS_14PxRigidDynamicEE15setActorSimFlagEb
rSb:__ZN14SpriteRenderer13AwakeFromLoadE17AwakeFromLoadMode
SCq:_U3CTryItU3Ec__Iterator0_MoveNext_m2878930816
sag:__ZL59CharacterInfo_t3919092135_CustomAttributesCacheGenerator_uvP21CustomAttributesCache
glu:__ZNKSt3__27codecvtIDic11__mbstate_tE5do_inERS1_PKcS5_RS5_PDiS7_RS7_
vkc:_emit_dqt
NYa:__ZN10MemoryFile9SetLengthEy
ZM:__ZN7mecanim10ValueArray8TransferI19StreamedBinaryWriteILb0EEEEvRT_
auf:__ZL24StaticInitializeIUnityVRPv
g0b:__Z28scripting_class_is_interface17ScriptingClassPtr
Aj:_glTexStorage2D
Xud:__ZZN10Collider2D15InitializeClassEvEN27FunctorImpl_98kSetPolygon2D4CallEPviR11MessageData
bQm:_AS_MySQLFieldMethods_TryToDownloadRegistrationForm_m192068305
UHr:_Outline_ModifyMesh_m3796381413
aij:_Array_InternalArray__Insert_TisRaycastHit2D_t4063908774_m3174907903_gshared
$hc:__ZNK9ShaderLab10SubProgram14EnsureCompiledEv
hMq:_ObjectManager_RecordFixup_m3572285566
z2e:__ZN5physx7profile10DataBufferINS_6shdfnd6MutexTINS0_26WrapperReflectionAllocatorIhEEEENS0_14ScopedLockImplIS6_EEE17handleBufferFlushEPKhj
TDi:_SortedList_InitTable_m460350503
Dno:__Z162RuntimeInvoker_Void_t1841601450_Il2CppObject_Int32_t2071877448_Il2CppObject_Il2CppObject_Il2CppObject_Nullable_1_t334943763_Il2CppObject_Il2CppObject_Il2CppObjectPK10MethodInfoPvPS2_
iha:__Z18BuildScriptClassId17ScriptingClassPtr
dSq:_InternalEnumerator_1_get_Current_m4279678504_AdjustorThunk
lu:__ZNK16LevelGameManager7GetNameEv
zIq:_SerializationInfo_AddValue_m902275108
suc:__ZN8Renderer28HandleParentHierarchyChangesEPK23TransformAccessReadOnlyj
W9:__ZL31DeleteLastPathNameComponentImplRKN4core12basic_stringIcNS_20StringStorageDefaultIcEEEEPKc
Doc:__Z13RegisterClassI18DelayedCallManagerEvv
U5b:__Z18Transfer_BlittableI24GenerateTypeTreeTransferLb0EiEvRK29SerializationCommandArgumentsR31RuntimeSerializationCommandInfo
dPe:__ZN5physx20PxsConstraintProjectEPKNS_13PxsConstraintEbf
W6d:__ZN5physx7NpShape7setFlagENS_11PxShapeFlag4EnumEb
zxt:__ZN6il2cpp2os19SocketHandleWrapperD2Ev
Vqt:_FacebookSettings_set_SelectedAppIndex_m1292661600
ind:__ZN15b2CircleContact6CreateEP9b2FixtureiS1_iP16b2BlockAllocator
c0b:__ZL28SerializationCommandGroupForRK31TransferFunctionScriptingTraits17ScriptingClassPtr17ScriptingFieldPtrRK20CoreScriptingClasses
jwb:__ZN10TagManager32RegisterDefaultTagsAndLayerMasksEv
Xzq:_ListView_DrawList_m1070801660
Hup:_Pay_GetGui_m1468582959
aLe:__ZN5physx2Sc35ParticleElementRbElementInteraction12onDeactivateEj
qiu:__ZNKSt3__220__time_get_c_storageIcE8__monthsEv
Jsb:__ZN14CachingManager12ReadInfoFileERKN4core12basic_stringIcNS0_20StringStorageDefaultIcEEEEPlPNSt3__26vectorIS4_NS8_9allocatorIS4_EEEE
Tgt:_ExtensionRegistry__ctor_m3675685019
Yhp:_CubeInter_Update_m43298675
D7j:_JSONNode_Escape_m1452464221
A6k:_ObscuredQuaternion_ToString_m1464559617
Fru:dynCall_iiifiiffidii
PMa:__ZN4gles8InitCapsEP7ApiGLESP12GraphicsCapsR16GfxDeviceLevelGL
nsr:_SystemInfo_get_supportsVibration_m3475406849
fxa:__ZN6prcore14BlitImageFloatERK14ImageReferenceRS0_NS0_8BlitModeE
eTo:_ShopScene_InActivateTabs_m2377428715
Eyb:__Z24CalculateVertexLightDataRK15SharedLightDataR14GfxVertexLight
jHj:_UIDrawCall_get_finalRenderQueue_m3999468577
jen:_Matrix4x4_Equals_m1321236479_AdjustorThunk
ik:_glEnable
hRq:_InternalEnumerator_1_get_Current_m966604531_AdjustorThunk
Cub:__ZNK13Lz4Compressor29CalculateCompressedBufferSizeEj
A5a:__ZNK25CameraStackRenderingState21GetImageEffectTextureEb
vUi:_RuntimeMethodHandle__ctor_m2437574937_AdjustorThunk
Ise:__ZN5physx2Sq8AABBTreeC2Ev
IOk:_UInt16_System_IConvertible_ToInt64_m2835280558_AdjustorThunk
zap:_IOSNotificationController_remove_OnLocalNotificationReceived_m1898398033
gjm:_ArgumentException__ctor_m3739475201
xfd:__ZN11TrailModuleD2Ev
rXb:__ZNSt3__26vectorI4PPtrI6ObjectE13stl_allocatorIS3_L18MemLabelIdentifier51ELi16EEE6assignINS_11__wrap_iterIPS3_EEEENS_9enable_ifIXaasr21__is_forward_iteratorIT_EE5valuesr16is_constructibleIS3_NS_15iterator_traitsISD_E9referenceEEE5valueEvE4typeESD_SD_
rLq:_ObjectReader_ReadType_m997247161
b1j:_PhotonStatsGui__ctor_m725137475
Kcp:_IOSSocialUseExample_OnGUI_m674520600
VKh:_List_1_get_Item_m1231764300_gshared
suj:_DefaultControls_CreateToggle_m1568873127
A3k:_ObscuredInt_op_Decrement_m2724189709
ACl:_Dictionary_2_InitArrays_m2270022740_gshared
Q8n:__Z115RuntimeInvoker_Boolean_t3825574718_Il2CppObject_Int32_t2071877448_Il2CppObject_SByte_t454417549_Int32U26_t455636984PK10MethodInfoPvPS2_
eep:_ISN_CacheManager_SaveAchievementRequest_m1314548427
cyt:__ZN6il2cpp6icalls6System6System3Net7Sockets6Socket8ShutdownE12Il2CppIntPtrNS4_14SocketShutdownEPi
fSe:__ZN5physx2Gu10ConvexMeshD2Ev
EHk:_UnicodeEncoding_GetChars_m3765282346
hxm:_IntPtr__ctor_m4104029105
n2j:_PhotonView_RefreshRpcMonoBehaviourCache_m3717406774
zMj:_UIItemStorage_GetItem_m454792072
kHm:_MonoType_get_attributes_m1493788675
HJk:_Monitor_Pulse_m15311376
V9o:_IOSNativePreviewBackButton_Awake_m383619737
rck:_TournamentChart_GetBallStatus_m262815141
nNl:_UM_Camera_add_OnImageSaved_m2949841086
sIi:_Convert_ToDouble_m4236754739
d8r:_InternalEnumerator_1_get_Current_m2001776303_AdjustorThunk
ZNc:__Z43Register_UnityEngine_GUITexture_get_texturev
x3q:_Enumerator_System_Collections_IDictionaryEnumerator_get_Entry_m3985393600_gshared
Evj:_Dropdown_CreateItem_m2702141380
xen:_Mesh_get_canAccess_m2763498171
Rzf:__ZL48Stack_t1043988394_CustomAttributesCacheGeneratorP21CustomAttributesCache
Vr:FUNCTION_TABLE_viifi
Yr:FUNCTION_TABLE_viiff
nvc:__ZN12LineRenderer12CleanupClassEv
gMd:__ZNK5physx2Sc8ShapeSim10getBodySimEv
bXn:_MonoEvent_GetAddMethod_m4289563120
VYp:_XmlInputStream_ReadByte_m3910598426
dCc:__ZL20JpgWriteToBufferFuncPvS_i
bUm:_AudioController__EnqueueMusic_m3627394693
APs:_EqualityComparer_1_System_Collections_IEqualityComparer_GetHashCode_m4285727610_gshared
Txf:__ZL37Type_t_CustomAttributesCacheGeneratorP21CustomAttributesCache
wmf:_UNITY_tt_face_free_hdmx
RMm:_AnimatedColor_OnEnable_m2468542973
itp:_Extensions_StripKeysWithNullValues_m3622109825
gEt:__ZN6il2cpp2vm14TypeNameParser5ParseEb
AIr:_ReflectionMethodsCache__ctor_m1835220
AWp:_XmlDocument_CreateXmlDeclaration_m871718864
NOt:__ZN6il2cpp6icalls8mscorlib6System7Runtime15InteropServices7Marshal17copy_to_unmanagedEP11Il2CppArrayi12Il2CppIntPtri
yVp:_XmlDeclaration_WriteTo_m592727520
t0d:__ZN5physx6shdfnd5ArrayIPvNS0_19ReflectionAllocatorINS_2Cm5BlockIhLj128EEEEEE15growAndPushBackERKS2_
$9j:_TableTab_OnUsePattern_m2354102934
aSi:_Double_ToString_m1864290157
NRb:__ZNK9Transform13GetWorldScaleEv
sup:_MainMenu_GetGui_m525279159
Ghi:_MonthValidator__ctor_m887365709
RVh:_List_1_set_Item_m971342110_gshared
Wqs:_Uri_get_Parser_m2250631932
C7d:__ZN5physx14NpShapeManager15setupSceneQueryERNS_2Sq17SceneQueryManagerERKNS_12PxRigidActorERKNS_7NpShapeE
$5j:_PoolableObject__BroadcastMessageToGameObject_m3752434481
J_l:_SetTournamentBall_get_allparams_m453133840
YWt:__ZNK24NamespaceAndNamePairHashclERKNSt3__24pairIPKcS3_EE
rDa:__ZL37stbir__resample_horizontal_downsampleP11stbir__infoiPf
JAa:__ZNK5Unity9Component38MarkGameObjectAndComponentDependenciesER27GarbageCollectorThreadState
cas:_Animator_get_hasBoundPlayables_m3670407842
eaa:__ZL16OutOfMemoryErrorjj18MemLabelIdentifieriPKc
eUd:__ZNK5physx2Sc9ClothCore23getExternalAccelerationEv
Xzi:_SynchronizedArrayListWrapper_Contains_m2259439339
WBt:__ZN6il2cpp6icalls8mscorlib6SystemL18GetNestedTypesImplINS_5utils10functional10TrueFilterEEEP11Il2CppArrayP20Il2CppReflectionTypeiRKT_
cEd:__ZN5physx2Gu13coarseCullingERKNS_6PxVec3ES3_ffRKNS_10PxTriangleE
vcc:__Z18Transfer_BlittableI18StreamedBinaryReadILb0EELb1EdEvRK29SerializationCommandArgumentsR31RuntimeSerializationCommandInfo
kMc:__Z56Register_UnityEngine_Camera_INTERNAL_get_backgroundColorv
ctm:_Guid__ctor_m2599802704
CLe:__ZN5physx2Sc5Scene29processNarrowPhaseTouchEventsEv
APa:__ZN4crnd12symbol_codec32decode_receive_static_data_modelERNS_25static_huffman_data_modelE
eqc:__ZN18ScriptingArguments8AddFloatEf
Zrm:_GregorianCalendar_set_CalendarType_m2438362222
zDh:_List_1_System_Collections_IList_Contains_m2105487823_gshared
QQo:_SA_PartisipantUI_Awake_m557487120
Aeq:_XsollaStatus__cctor_m1967809092
wdi:_LeveUpUI_OnClose_m1383672619
t5i:_Array_InternalArray__ICollection_Contains_TisVector2_t2243707579_m3625698589_gshared
q2k:_ObscuredDouble_Equals_m2330528668_AdjustorThunk
hWd:__ZN5physx6shdfnd5ArrayIPvNS0_15InlineAllocatorILj256ENS0_19ReflectionAllocatorINS_18NpArticulationLinkEEEEEE15growAndPushBackERKS2_
Y1j:_PhotonView_get_instantiationData_m2092032589
w2h:_Collection_1_System_Collections_IList_IndexOf_m3628746604_gshared
Bqd:__ZN7b2World11CreateJointEPK10b2JointDef
zZb:__ZN13EmscriptenWWW10OnResponseEPviS0_jPc
$bd:__ZN23ParticleSystemParticles20SetUsesTriggerEventsEb
CJd:__ZNK5physx3Cct15ObstacleContext11getObstacleEj
yzp:_GooglePlayManager_get_LeaderBoards_m4058670989
nmn:_CipherSuiteCollection__ctor_m2154226461
N7b:__Z18Transfer_BlittableI19StreamedBinaryWriteILb0EELb0E8Vector3fEvRK29SerializationCommandArgumentsR31RuntimeSerializationCommandInfo
vgq:_XsollaTranslations__cctor_m4114555698
JVt:__ZNSt3__26__treeINS_12__value_typeIjN6il2cpp2os17SocketHandleEntryEEENS_19__map_value_compareIjS5_NS_4lessIjEELb1EEENS_9allocatorIS5_EEE5eraseENS_21__tree_const_iteratorIS5_PNS_11__tree_nodeIS5_PvEEiEE
uec:__ZN14SafeBinaryRead19TransferSTLStyleMapINSt3__23mapIN4core12basic_stringIcNS3_20StringStorageDefaultIcEEEEiNS1_4lessIS7_EENS1_9allocatorINS1_4pairIKS7_iEEEEEEEEvRT_17TransferMetaFlags
kuo:__Z135RuntimeInvoker_Void_t1841601450_Single_t2076509932_Single_t2076509932_Single_t2076509932_Il2CppObject_SByte_t454417549_SByte_t454417549PK10MethodInfoPvPS2_
qPm:_AS_Login_CheckFields_m1904937778
def:_gray_move_to
vXi:_DSAParameters_t1872138834_marshal_pinvoke
_ek:_TweenPosition_SetCurrentValueToEnd_m438518111
GBp:_GooglePlayRTM_LeaveRoom_m3406708773
iFq:_ConstructionCall_InitDictionary_m4046452035
eZb:__ZN5Cache9URLToPathERKN4core12basic_stringIcNS0_20StringStorageDefaultIcEEEE7Hash128
kJt:__ZN6il2cpp2vm10Reflection14GetEventObjectEP11Il2CppClassPK9EventInfo
q7j:_JSONNode_get_AsFloat_m4002601236
Gnn:_TlsStream_Write_m2271546135
xNs:_X509StoreManager_get_LocalMachine_m2451390246
cGc:__Z30RegisterValidateMethodCallbackiPF18ScriptingMethodPtrS_17ScriptingClassPtrP6ObjectEPKc
rvr:_Texture2D_EncodeToPNG_m2680110528
Jqm:_CultureInfo_ConstructInternalLocaleFromCurrentLocale_m1342751405
n4j:_PlayerVariables_GetMaterial_m600371634
Ucd:__Z25GetTransformationMatricesPN4math8float3x3ES1_bbRK10Matrix4x4fS4_
LGk:_Latin1Encoding_GetString_m3553289597
onu:__ZNSt3__26vectorIPNS_6locale5facetENS_15__sso_allocatorIS3_Lj28EEEE6resizeEj
nzt:__ZN6il2cpp5utils9PathUtils13DirectoryNameIcEENSt3__212basic_stringIT_NS3_11char_traitsIS5_EENS3_9allocatorIS5_EEEERKNS0_10StringViewIS5_EE
gwe:__ZN5physx13IslandManager6resizeEj
Bis:_Color_get_grey_m1961362537
_Hn:_SslStream_EndAuthenticateAsClient_m2927961136
S5j:_PlusButtonsAPIExample_CreateRandomPostButton_m4185440749
qc:invoke_viidi
KZp:_XmlNode_GetEnumerator_m2088716184
kxh:_Enumerator_System_Collections_IEnumerator_get_Current_m3461301268_gshared
eed:__Z9StartConeILN11ShapeModule14MultiModeValueE3ELb1EEvRS0_R23ParticleSystemParticlesRK19ParticleSystemStateRK27ParticleSystemEmissionStateRKN4math8float3x3EPKfjbj
tUt:__ZN15dense_hashtableI10KeyWrapperIP18Il2CppGenericClassES3_N6il2cpp8metadata22Il2CppGenericClassHashEN14dense_hash_setIS3_S6_NS3_14EqualsComparerINS5_25Il2CppGenericClassCompareEEENSt3__29allocatorIS3_EEE8IdentityESA_SD_E12maybe_shrinkEv
Mpc:__ZN9TextAssetC2E18MemLabelIdentifier18ObjectCreationMode
$Qd:__ZN5physx6shdfnd8PoolBaseINS_2Cm5BlockIPvLj16EEENS0_19ReflectionAllocatorIS5_EEE17releaseEmptySlabsEv
H$g:__ZL52CubeExtra_t2071917625_CustomAttributesCacheGeneratorP21CustomAttributesCache
Iao:__Z78RuntimeInvoker_Void_t1841601450_Byte_t3683104436_Byte_t3683104436_Il2CppObjectPK10MethodInfoPvPS2_
MPo:_RPGCamera_UpdateRotation_m3842631544
YCu:_emscripten_glCheckFramebufferStatus__wrapper
MKj:_UIImageButton_OnHover_m2700678598
UNt:__ZNK15dense_hashtableINSt3__24pairIK10KeyWrapperIP11Il2CppClassES4_EES5_N6il2cpp8metadata16SZArrayClassHashEN14dense_hash_mapIS5_S4_SA_NS5_14EqualsComparerINS9_19SZArrayClassCompareEEENS0_9allocatorIS7_EEE9SelectKeyESE_SG_E12test_deletedEj
hUb:__ZNSt3__26__treeIjNS_4lessIjEENS_9allocatorIjEEE12__find_equalIjEERPNS_16__tree_node_baseIPvEENS_21__tree_const_iteratorIjPNS_11__tree_nodeIjS8_EEiEESB_RKT_
khu:__ZNKSt3__27num_getIwNS_19istreambuf_iteratorIwNS_11char_traitsIwEEEEE6do_getES4_S4_RNS_8ios_baseERjRm
yAn:_CookieContainer_Cook_m4063584936
Ylq:_AN_GoogleAdProxy_AddKeyword_m1749697797
mKd:__ZL20updateMassAndInertiabRN5physx11PxRigidBodyEPKfjPKNS_6PxVec3Eb
J2e:__ZN5physx24NpPtrTableStorageManagerC2Ev
IL:__ZN7mecanim9animation21BlendTreeNodeConstant35Transfer_4_0_BackwardsCompatibilityI14SafeBinaryReadEEvRT_
aVl:_UserLogin_Analysis_m3690805974
vtf:__Z44Register_UnityEngine_Canvas_set_sortingOrderv
TFj:_UIDragDropItem_StartDragging_m3580789092
cgm:_SimpleCollator_LastIndexOfOrdinalIgnoreCase_m550798345
TKj:_UIInput_get_isSelected_m2793903603
L_o:_PhotonPeer_EstablishEncryption_m3353380338
D9m:_GUIStyle_INTERNAL_CALL_Internal_GetCursorStringIndex_m3074318281
hp:FUNCTION_TABLE_viiiiiifiii
lIa:__ZNK9GfxDevice13GetViewMatrixEv
ffs:_Camera_ViewportPointToRay_m1799506792
Yoe:__ZN5physx7NpScene15flushSimulationEb
Q5d:__ZN5physx6shdfnd8PoolBaseINS_10NpMaterialENS0_19ReflectionAllocatorIS2_EEE12allocateSlabEv
sWo:_Protocol_SerializeInteger_m940949444
Fia:__ZN8TypeTree8BlobReadERPKhS1_ib
Uok:_WebConnectionGroup_CreateOrReuseConnection_m512876780
PPj:_UIRect_OnInit_m2134624388
LVe:__ZN5physx18ReducedVertexCloudC2EPKNS_6PxVec3Ej
b_o:_PhotonPeer_set_TrafficStatsEnabled_m102027721
eBa:__ZN18LoadSceneOperation23GetAllowSceneActivationEv
IUs:_HashSet_1_Resize_m2605659614_gshared
gza:__ZN11prophecysdk4half7convertEi
RFb:_UNITY_png_set_bKGD
$wb:__ZN6CameraD0Ev
Dhm:_ModulusRing_Multiply_m386339435
dna:__ZN31CanvasBatchIntermediateRenderer16StaticInitializeEPv
Zxj:_GraphicRaycaster_U3CRaycastU3Em__0_m3971200721
byq:_CCPayment_remove_NextStepRecieved_m16218706
ylo:__Z67RuntimeInvoker_Vector2_t2243707579_Il2CppObject_Vector2_t2243707579PK10MethodInfoPvPS2_
_Hi:_Decimal_op_Implicit_m4246329390
iki:_NetworkingPeer_SendMonoMessage_m1390750886
Qib:__ZN10GameObjectC2E18MemLabelIdentifier18ObjectCreationMode
gdf:_raccess_guess_apple_double
Q6s:_Transform_INTERNAL_set_localScale_m3680777866
r_l:_GetMaxTournamentId_Analysis_m1128400942
Fal:_ObscuredVector2_ApplyNewCryptoKey_m2585662137_AdjustorThunk
lOj:_UILabel_AssumeNaturalSize_m3335569197
dMl:_UM_ExampleStatusBar_set_text_m3650611551
zQa:__ZL18ProgramUniform1uivPK7ApiGLESjiihPKv
X4c:__ZN27ShapeModulePropertyBindings13GetFloatValueERK14ParticleSystemi
_tc:__ZN14Texture2DArray13RebuildMipMapEv
dmq:_AN_GoogleAnalyticsProxy_CallActivityFunction_m340414991
l2b:__Z18Transfer_BlittableI14SafeBinaryReadLb1EaEvRK29SerializationCommandArgumentsR31RuntimeSerializationCommandInfo
O$t:__ZN6il2cpp2gc16GarbageCollector14RemoveWeakLinkEPPv
nic:__ZN9ShaderLab20SerializedSubProgram14AddVectorParamEPKcii15ShaderParamTypei
JS:__Z34AnimationState_Get_Custom_PropClipP12Il2CppObject
A1s:_Nullable_1_GetHashCode_m572762171_AdjustorThunk
j3o:_ImmersiveMode_Awake_m3613121268
uQn:_DynamicMethod_GetParameters_m3873709535
$wp:_GooglePlayerTemplate_add_SmallPhotoLoaded_m1807229991
Cts:_ResourceSet_ReadResources_m1669023823
r3j:_PickupItem_OnTriggerEnter_m4154773282
Bnm:_PKCS12_RemoveCertificate_m1590055870
J3f:__ZL107Collision_t2876846408_CustomAttributesCacheGenerator_Collision_t2876846408____frictionForceSum_PropertyInfoP21CustomAttributesCache
Xoa:__ZN13ScreenManager18SetAllowCursorLockEb
$Xb:__ZN30RuntimeInitializeOnLoadManager15ClassMethodInfo8TransferI14SafeBinaryReadEEvRT_
j5q:_Enumerator_get_CurrentValue_m3177768606_AdjustorThunk
Xad:__ZN23ParticleSystemParticles14element_assignEjj
c$b:__ZN9TextAsset8TransferI14SafeBinaryReadEEvRT_
ugs:_CanvasRenderer_SetAlphaTexture_m3093886085
yvg:__ZL73CanvasScaler_t2574720772_CustomAttributesCacheGenerator_m_ScreenMatchModeP21CustomAttributesCache
l3:__ZL22InitializeModule_Audiov
Lwe:__ZN5physx2Sq11PruningPoolD0Ev
Jrd:__ZN16Physics2DManager13DynamicUpdateEv
Ynb:__ZN16MemoryFileSystem8IsLockedERK13FileEntryData
DEe:__ZN3MBP15removeBoxPrunerEj
Doq:_AN_SoomlaGrow_remove_ActionConnected_m3619670758
cKg:__ZL112GameCenterManager_t1487113918_CustomAttributesCacheGenerator_GameCenterManager_LoadCurrentPlayerScore_m364109288P21CustomAttributesCache
KWn:_MonoCMethod_Invoke_m931478014
ler:_ShimEnumerator_get_Current_m3008171807_gshared
trt:_FacebookSettings_get_UploadAccessToken_m1762901570
Vm:_emscripten_glBindRenderbuffer
vtr:_TextEditor_Paste_m3893796664
m1c:__Z32GUIStyle_Set_Custom_PropClippingP12Il2CppObjecti
uQl:_UM_Leaderboard_get_Name_m359398594
APc:__Z46Register_UnityEngine_MeshFilter_get_sharedMeshv
BSq:_InternalEnumerator_1_System_Collections_IEnumerator_get_Current_m2068723842_gshared
aft:_WebSocket_RecvString_m716708100
fwr:_AccessToken_set_LastRefresh_m399355251
d6t:_GC_dirty_init
gsi:_Array_Copy_m1969461849
Itp:_ConsoleBase_get_ButtonHeight_m504918286
SKq:_MessageFormatter_ReadMethodResponse_m4134629501
xWt:__ZN6il2cpp2vm5Field14GetValueObjectEP9FieldInfoP12Il2CppObject
Rqf:__ZNK2UI6Canvas16GetTargetDisplayEv
l1k:_ObscuredDecimal_GetEncrypted_m4148264992
HLs:_PKCS12_GetSymmetricAlgorithm_m3196291685
Eem:_CodePointIndexer_ToIndex_m2133868653
K8o:_IOSInAppPurchaseManager_onRestoreTransactionFailed_m1147645890
oTi:_Environment_get_OSVersion_m1247315981
CBd:__ZL15SweepBoxCapsulePKN5physx3Cct9SweepTestEPKNS0_11SweptVolumeEPKNS0_11TouchedGeomERKNS_14PxExtendedVec3ERKNS_6PxVec3ERNS0_12SweptContactE
Wla:__ZN6Object17FindObjectsOfTypeEPKN5Unity4TypeER13dynamic_arrayIPS_Lj4EEb
Esp:_LoadbalancingPeer_OpRaiseEvent_m2957100259
Ebl:_ObscuredVector3_SetEncrypted_m899872600
Pns:_CharacterClass_AddRange_m2531976937
A$b:__ZN13MonoBehaviour17RemoveFromManagerEv
hQe:__ZN5physx2Sc19ParticlePacketShapeD2Ev
EMb:__ZL11DecodeValuePPKcS0_
gDc:__Z20ReadObjectFromVectorILb0EEvR6ObjectRK13dynamic_arrayIhLj1EE24TransferInstructionFlags
AAr:_EditorFacebook_OnFetchDeferredAppLinkComplete_m1939659848
S6:__ZN13MemoryManagerC2Ev
vTa:__ZN12SkinMeshInfo10DeallocateEPS_
eWp:_XmlDocumentType__ctor_m2953202689
hZt:__ZNK6il2cpp5utils11StringUtils21CaseSensitiveComparerclEPKcS4_
W6s:_Transform_SetParent_m1963830867
fQo:_RTM_Game_Example_LeaveRoom_m3874901968
__a:__ZN20ArchiveStorageReader28AcquireAndPrefillUnusedBlockEjPNS_11CacheResultE
r9n:__Z78RuntimeInvoker_Il2CppObject_SByte_t454417549_SByte_t454417549_SByte_t454417549PK10MethodInfoPvPS2_
Utc:__Z12NHxRoughnessIA4_tEvP9Texture2DPT_iiii
Yuq:_WP8NativePreviewBackButton_OnGUI_m515723904
H9r:_Animator_SetFloatString_m3960043456
Uao:__Z89RuntimeInvoker_Il2CppObject_IntPtr_t_Int32_t2071877448_IntPtr_t_Il2CppObject_Il2CppObjectPK10MethodInfoPvPS2_
uma:__ZN18AsyncUploadManagerD2Ev
akc:__ZN9Transform5ResetEv
B7b:__Z22TransferField_NonArrayI24GenerateTypeTreeTransfer16Converter_StringEvRK23StaticTransferFieldInfoR31RuntimeSerializationCommandInfoRT0_
sff:_UNITY_FT_CMap_New
QVi:_SecurityElement_AddAttribute_m2324447756
lfk:_TweenScale__ctor_m2979018274
Ooa:__Z17MainLoopKeepalivePv
STd:__ZN5physx7NpScene16addActorInternalERNS_7PxActorE
_Ip:_iAdBanner_didFailToReceiveAdWithError_m1671984235
bMj:_UILabel_GetCharacterIndexAtPosition_m1490185033
DYi:_HMACSHA512__ctor_m1667460019
Kfb:__Z24ScheduleCullingAllGroupsR8JobFenceRK22SceneCullingParameters4PPtrI6CameraERK13CullingOutputRK13dynamic_arrayIP12CullingGroupLj4EERKS_
H2t:__ZThn4_N6il2cpp2vm13ComObjectBase17GetUnmarshalClassERK10Il2CppGuidPvjS5_jPS2_
fIm:_MonoType_ToString_m473949831
cfb:__Z14CalcHullBoundsPK8Vector3fPKhhRK5PlaneRK10Matrix4x4fR10MinMaxAABB
k8m:_GUISkin_set_verticalScrollbarUpButton_m2965376352
W1:__ZNK14SoundHandleAPI12GetFrequencyEv
I7a:__Z19SetupLODFadeKeywordR17ShaderPassContexti
eff:_UNITY_FT_Stream_ReadFields
lCp:_GooglePlayRTM_OnPeersConnected_m906552970
Orm:_DateTimeFormatInfo_GetAllDateTimePatternsInternal_m1587126173
Slk:_Socket_set_ReceiveTimeout_m2929751805
I_t:__ZN6il2cpp2os10ThreadImpl22SetNativeThreadCleanupEPFvPvE
OSa:__ZL25CheckCopyTextureArgumentsRK7ApiGLESP11GLESTextureS3_
y1q:_Comparer_1_System_Collections_IComparer_Compare_m1458357360_gshared
Rcj:_Array_InternalArray__IndexOf_TisItem_t1975588469_m1433658158_gshared
j5c:__ZN24UVModulePropertyBindings13AddPropertiesER10vector_mapIi22ParticleModulePropertyNSt3__24lessIiEENS2_9allocatorINS2_4pairIiS1_EEEEE
oma:__ZN13dynamic_arrayI26EnlightenSystemInformationLj8EE6insertEPS0_PKS0_S4_
Vfk:_TweenWidth_SetCurrentValueToStart_m3065940267
Yef:_tt_name_entry_ascii_from_utf16
sIm:_MulticastNotSupportedException__ctor_m2164514827
nLi:_DateTime_System_IConvertible_ToChar_m2489529194_AdjustorThunk
Gre:__ZNK5physx2Sc5Scene20getMeshContactMarginEv
g7b:__Z29Transfer_Blittable_ArrayFieldI24GenerateTypeTreeTransferyEvRT_R9ArrayInfoRK23StaticTransferFieldInfo
jZ:__ZN4FMOD7SystemI9playSoundE17FMOD_CHANNELINDEXPNS_5SoundEbPPNS_7ChannelE
K4:__Z42Register_UnityEngine_AudioSource_set_pitchv
W5e:__ZN13PhysicsModule31GetColliderComponentsInChildrenERK10GameObjectbbR13dynamic_arrayIPN5Unity9ComponentELj4EE
dij:_Array_InternalArray__Insert_TisTextEditOp_t3138797698_m1261639558_gshared
Zaa:__GLOBAL__sub_I_runtime_graphics_mesh2_lump_cpp
Agg:__ZL68PreferBinarySerialization_t2472773525_CustomAttributesCacheGeneratorP21CustomAttributesCache
HUb:__ZN19StreamedBinaryWriteILb0EE21TransferSTLStyleArrayINSt3__26vectorI17SubstanceEnumItemNS2_9allocatorIS4_EEEEEEvRT_17TransferMetaFlags
Gtd:__ZN17PhysicsMaterial2D5ResetEv
l1q:_DefaultComparer_Compare_m3564013922_gshared
wAm:_FileStream_get_CanSeek_m1833070492
Bth:_Enumerator_get_Current_m3966343234_gshared
TDg:__ZL103GooglePlayManager_t746138120_CustomAttributesCacheGenerator_GooglePlayManager_loadTopScores_m1461307169P21CustomAttributesCache
cA:__ZN18StreamedBinaryReadILb0EE21TransferSTLStyleArrayI13dynamic_arrayI12PPtrKeyframeLj4EEEEvRT_17TransferMetaFlags
DOb:__ZN10VertexData13SwapEndianessEv
_Lm:_AndroidPopUpExamples_HidePreloader_m2574541599
mzp:_GooglePlayManager_incrementAchievement_m1285559766
i4c:__ZN27ColorModulePropertyBindings13GetFloatValueERK14ParticleSystemi
hXc:__Z57Register_UnityEngine_Transform_INTERNAL_get_localRotationv
NLr:_ScrollRect_SetLayoutVertical_m1225848090
$ft:_ParticleSystemSound_LateUpdate_m2484604701
WMk:_Type_get_IsInterface_m3583817465
Isu:dynCall_viif
dXk:_BMSymbol_get_length_m4198759009
nyk:_Enumerator_MoveNext_m4234629003
xuo:__Z90RuntimeInvoker_Void_t1841601450_Vector3_t2243707580_Vector3_t2243707580_Single_t2076509932PK10MethodInfoPvPS2_
C9o:_IOSNativeAppEvents_applicationWillResignActive_m3200646769
mrj:_ButtonClickedEvent__ctor_m938038541
aPe:__ZN5physx2Sc24ConstraintProjectionTree11projectPoseERNS0_19ConstraintGroupNodeE
i5b:__ZL26Transfer_SimpleNativeClassI17RemapPPtrTransfer8GradientLb0EEvRK29SerializationCommandArgumentsR31RuntimeSerializationCommandInfo
Gut:__ZNK15dense_hashtableINSt3__24pairIK10KeyWrapperI13dynamic_arrayIPK10Il2CppTypeLj4EEEPFvvEEES8_N6il2cpp8metadata19Il2CppSignatureHashEN14dense_hash_mapIS8_SB_SF_NS8_14EqualsComparerINSE_22Il2CppSignatureCompareEEENS0_9allocatorISC_EEE9SelectKeyESJ_SL_E10test_emptyEj
zSg:__ZL56UIStorageSlot_t2374452303_CustomAttributesCacheGeneratorP21CustomAttributesCache
Mub:__ZNSt3__26vectorIN20ArchiveStorageHeader12StorageBlockE13stl_allocatorIS2_L18MemLabelIdentifier54ELi16EEE21__push_back_slow_pathIKS2_EEvRT_
Pzt:__ZN6il2cpp6icalls8mscorlib6System8MonoType14get_attributesEP20Il2CppReflectionType
isb:__Z43DestroyWithoutLoadingButDontDestroyFromFilei
c6e:__ZN13PhysicsModule29GetColliderMaterialInstanceIDER8Collider
lHm:_MonoType_GetDefaultConstructor_m925465120
xal:_ObscuredVector2_set_Item_m2845014321
exr:_AppRequestResult_ToString_m1639718223
x1r:_List_1_InnerRemoveAt_m467546350_gshared
Atu:dynCall_viifffi
Xpu:dynCall_viiiiiffi
AEr:_AndroidFacebook_AppRequest_m3948833258
ne:_emscripten_glBlendFuncSeparate
dcs:_AttributeHelperEngine_GetRequiredComponents_m120894667
wca:__Z20scripting_string_newPKc
jFn:_FtpWebResponse_CheckDisposed_m1532914452
sUc:__Z43Material_CUSTOM_Internal_CreateWithMaterialP12Il2CppObjectS0_
L2p:_XmlWriter_WriteAttribute_m3300629885
Uym:_Directory_GetCurrentDirectory_m44486537
GZk:_ChatInput0_OnPhraseClick_m2441895867
Drb:__ZN29AssetBundleLoadAssetOperation34CollectFullPreloadDataDependenciesER13dynamic_arrayIiLj4EE
v$h:_Collection_1_System_Collections_ICollection_CopyTo_m1047946700_gshared
idi:_Localization_AddCSV_m2735959452
uXr:_XmlSchemaComplexType__cctor_m3598807293
g4p:_ValidatorInputField_Awake_m3811189183
t1m:_Gizmos_INTERNAL_CALL_DrawCube_m1399418594
prk:_AsnEncodedData_Default_m4197142414
MU:__Z103Register_UnityEngine_Experimental_Director_AnimatorControllerPlayable_INTERNAL_CALL_ResolveHashInternalv
Ovp:_GoogleMobileAd_SetGender_m1079216964
fOl:_UM_Score_get_LongScore_m536638400
bTe:__ZThn8_N5physx2Gu11HeightFieldD1Ev
TDt:__ZN6il2cpp2os4File17GetFileAttributesERKNSt3__212basic_stringIcNS2_11char_traitsIcEENS2_9allocatorIcEEEEPi
XXd:__ZNK5physx19PxArticulationJoint19getConcreteTypeNameEv
jD:__ZNSt3__26__sortIRPFbPKN8Animator11AnimatorJobES4_EPS4_EEvT0_S9_T_
WW:__ZN17AudioCustomFilterD2Ev
ORi:_Double_System_IConvertible_ToUInt64_m1318285078_AdjustorThunk
ePj:_UIPanel_get_halfPixelOffset_m2922990942
M_c:__ZNK8GUIStyle13GetLineHeightEv
YZi:_RIPEMD160Managed__ctor_m2544156846
VRa:__ZN18GfxFramebufferGLES18ReleaseFramebufferEP17RenderSurfaceBaseP14GfxContextGLES
Fsk:_X509Certificate2_get_Version_m1927399907
_fu:__ZNSt3__213basic_ostreamIcNS_11char_traitsIcEEE6sentryC2ERS3_
Pwc:__ZN13ProduceHelperI6CameraLb0EE7ProduceE18MemLabelIdentifier18ObjectCreationMode
Xci:_LanguageSelection_Refresh_m4217139308
Fzj:_Image_RadialCut_m3229543088
J9k:_ObscuredUShort_EncryptDecrypt_m3257030360
Rfi:_MNAndroidMessage_init_m3626327384
cMj:_UIInput_OnPress_m545608652
aJ:__ZN7mecanim21ValueArrayReverseCopyEPKNS_18ValueArrayConstantEPKNS_10ValueArrayES2_PS3_PKi
phl:_XmlReflectionImporter__cctor_m3348473364
HW:__Z31GetParentSampleClipFromInstancePN11SoundHandle8InstanceE
kqc:__ZNK28RectTransformPropertyBinding13GetFloatValueERKN11UnityEngine9Animation10BoundCurveE
Bhb:__ZN6Camera22StandaloneCustomRenderENS_10RenderFlagEP6ShaderRKN4core12basic_stringIcNS3_20StringStorageDefaultIcEEEEPNS_21PerformRenderFunctionE
yGj:_UIDragObject_OnPress_m1996798103
Ixt:__ZN6il2cpp6icalls6System6System3Net7Sockets6Socket18GetSocketOptionObjE12Il2CppIntPtrNS4_17SocketOptionLevelENS4_16SocketOptionNameEPP12Il2CppObjectPi
Fke:__ZL22addOrRemoveRigidObjectILb0ELb0ELb0ELb1EN5physx3Scb11RigidStaticEEvRNS0_2Sc5SceneERT3_b
abu:__ZN6il2cpp2os16ThreadLocalValue8GetValueEPPv
pdn:_Material_get_shaderKeywords_m1662488455
Yvt:__ZN6il2cpp2vm13MetadataCache14GetGenericInstEPKPK10Il2CppTypej
Uo:FUNCTION_TABLE_iiiiifiif
W$i:_SHA384Managed_Initialize_m712692291
Qe:_glUniform1uiv
vLj:_UIInput_set_value_m430904237
_Kj:_UILabel_set_text_m451064939
Usr:_TextEditor_MoveWordRight_m2225371862
JXc:__Z52Object_CUSTOM_GetOffsetOfInstanceIDInCPlusPlusObjectv
H6s:_Transform_get_right_m440863970
lRd:__ZN5physx6shdfnd4sortIPvNS0_4LessIS2_EENS0_19ReflectionAllocatorINS_2Cm5BlockIS2_Lj8EEEEEEEvPT_jRKT0_RKT1_j
x5d:__ZNK5physx9NpPhysics11getNbShapesEv
Ss:setThrew
Mtc:__ZL21BuildEmptyCubeTexturePKci11ColorRGBA3217TextureColorSpace
Dml:_XmlSerializationWriterInterpreter_WriteElementMembers_m720962082
xec:__ZN14SafeBinaryRead21TransferSTLStyleArrayINSt3__26vectorIN9ShaderLab20SerializedSubProgramENS1_9allocatorIS4_EEEEEEvRT_17TransferMetaFlags
XUj:_UISpriteData__ctor_m1322702642
h7s:_Transform_LookAt_m3392147815
Yaf:__ZN20TextRenderingPrivate19NativeTextGeneratorC2ERK11UTF16StringPNS_8FontImplE11ColorRGBA32ifRK8Vector2fbifiibffbbbP13dynamic_arrayIN2UI8UIVertexELj4EE
mek:_TweenFOV_Begin_m3928960339
xya:__ZN6prcoreL17RemapGenericFloatI17TexFormatRGBFloat15TexFormatRGHalfEEvPKNS_9InnerInfoE
mTp:_XmlAttribute_GetAttributeDefinition_m3287587367
k9a:__Z25DoForwardShaderRenderLoopR17RenderLoopContextR13dynamic_arrayI16RenderObjectDataLj4EERK11CullResultsbbbN6Camera10RenderFlagE
P3:__Z31AudioClip_Get_Custom_PropLengthP12Il2CppObject
I9e:_UNITY_FT_Render_Glyph_Internal
DIk:_UTF8Encoding_GetByteCount_m2372933408
K6k:_ObscuredSByte_SetNewCryptoKey_m2724786663
$ws:_Context_get_NeedsContextSink_m1907794755
nef:_UNITY_ft_service_list_lookup
BGn:_HttpWebResponse_System_IDisposable_Dispose_m3100301154
ajn:_ARC4Managed_GenerateKey_m716135508
f_c:__ZN5IMGUI21SelectReceivingWindowER8GUIStateb
PJr:_Selectable_FindSelectable_m2739582497
jGj:_UIDragDropRoot_OnDisable_m2277512289
Jps:_CharacterClass_GetWidth_m29975543
uAd:__ZN5physx2Gu20intersectTriangleBoxERKNS_6PxVec3ES3_S3_S3_S3_
AR:__ZNK26AnimatorControllerPlayable17ValidateGoToStateERiS0_
D4:__Z38AudioSource_Get_Custom_PropRolloffModeP12Il2CppObject
s4d:__ZN5physx10NpMaterial8setFlagsENS_7PxFlagsINS_14PxMaterialFlag4EnumEtEE
opb:__ZN13BaseAllocator13TryDeallocateEPv
Sri:_Array_CreateInstance_m1054139389
IPj:_UIPanel_Awake_m2782953536
fYl:_WorkerMenu_OnFailedToConnectToPhoton_m2511247198
Tyj:_LayoutGroup_GetAlignmentOnAxis_m1783063916
Nxb:__ZNSt3__26vectorIN12FlareManager10FlareEntryENS_9allocatorIS2_EEE21__push_back_slow_pathIKS2_EEvRT_
BXi:_SHA1_Create_m4086509717
T9q:_Enumerator_get_Current_m4198336486_AdjustorThunk
dYn:_MonoMethodInfo_GetMethodInfo_m3298558752
rX:__ZN13AudioListener17RemoveFromManagerEv
lf:_glAttachShader
Ivj:_Dropdown_SetAlpha_m2769981009
b1e:__ZN5physx6shdfnd8internal8HashBaseINS0_4PairIKtPKcEEtNS0_4HashItEENS1_11HashMapBaseItS6_S9_NS_7profile26WrapperReflectionAllocatorIS6_EEE6GetKeyESD_Lb1EE6createERS4_Rb
L0a:__ZNK6Camera19GetProjectionMatrixEv
f3s:_Predicate_1_BeginInvoke_m1856151290_gshared
Rpe:__ZNK5physx7NpScene24getWakeCounterResetValueEv
G3t:__ZN6il2cpp8metadataL7CompareEPK10Il2CppTypeS3_
Cam:_GoogleAnalytics_RandomString_m1288230098
sBq:_PricePointsAdapter_GetCount_m2876433726
rfo:__Z139RuntimeInvoker_Il2CppObject_Il2CppObject_Int32_t2071877448_SByte_t454417549_SByte_t454417549_SByte_t454417549_SByte_t454417549_Il2CppObjectPK10MethodInfoPvPS2_
xht:_U3CGetExtensionMethodsU3Ec__IteratorC_Dispose_m3630641862
V2t:__ZN6il2cpp6icalls8mscorlib6System7Convert27InternalFromBase64CharArrayEP11Il2CppArrayii
i0c:__Z33GUI_CUSTOM_INTERNAL_CALL_DoButtonRK5RectTIfEP12Il2CppObject13Il2Cpp_IntPtr
iHe:__ZN5physx2Gu32PCMConvexVsMeshContactGeneration20generateLastContactsEv
Qga:__Z38PreallocateObjectFromPersistentManagerib
BLi:_DateTime_System_IConvertible_ToSingle_m3927769066
Hku:__ZNSt3__211__money_getIwE13__gather_infoEbRKNS_6localeERNS_10money_base7patternERwS8_RNS_12basic_stringIcNS_11char_traitsIcEENS_9allocatorIcEEEERNS9_IwNSA_IwEENSC_IwEEEESJ_SJ_Ri
C4d:__ZThn12_N5physx10NpMaterialD0Ev
Zns:_Regex_Split_m2213626959
Xxn:_DeflateStream_get_Position_m100062355
$aa:__GLOBAL__sub_I_runtime_interfaces_lump_cpp
pDb:__ZNK9Texture2D20GetUnscaledTextureIDEv
Fbp:_IOSSharedApplication_add_OnUrlCheckResultAction_m3310147593
qjr:_Quaternion_Slerp_m1992855400
Iqu:dynCall_vfii
MWe:__ZN5physx6shdfnd4sortIjNS_19SortBoundsPredicateENS0_19ReflectionAllocatorIjEEEEvPT_jRKT0_RKT1_j
LXm:_AvatarTab_ShowAvatar_m3738503958
a7d:__ZN5physx7NpShape14onRefCountZeroEv
aKp:_Array_Sort_TisBoolean_t3825574718_m2555015387_gshared
H4c:__ZNK14ParticleSystem7GetLoopEv
ycj:_Array_InternalArray__IndexOf_TisContactPoint_t1376425630_m3651364246_gshared
Xsg:__ZL53InputField_t1631627530_CustomAttributesCacheGeneratorP21CustomAttributesCache
k$k:_WallHackDetector_DisposeInternal_m2585254825
Pcj:_Array_InternalArray__IndexOf_TisPart_t467884768_m1411316551_gshared
AOr:_Text_GetTextAnchorPivot_m2651969380
omq:_AN_GoogleAnalyticsProxy_ClearKey_m2250415726
jWe:__ZL15TestContainmentRKN5physx6PxVec3EPKfjPKNS_2Gu15HullPolygonDataE
F$o:_SocketUdp_ReceiveLoop_m4053468385
Abs:_AssetBundle_LoadAssetAsync_Internal_m97478989
Y0r:_List_1_System_Collections_IList_set_Item_m611384076_gshared
dAn:_Cookie_ToString_m4074255426
ekq:_AN_GMSGeneralProxy_submitScore_m1436027270
uDb:__ZNK9Texture2D26CanReuploadDataToGfxDeviceEv
kdc:__ZN18StreamedBinaryReadILb0EE21TransferSTLStyleArrayI13dynamic_arrayI4AABBLj4EEEEvRT_17TransferMetaFlags
COk:_UInt16_System_IConvertible_ToDouble_m4100549304_AdjustorThunk
HBa:__Z29ClearRepeatingLogMessageStatev
jZc:__ZN13TextRendering17TextMeshGenerator13GetTextOffsetERK5RectTIfE
k2t:__ZN6il2cpp2vm6String6NewLenEPKcj
mVs:_HashSet_1_OnDeserialization_m1222146673_gshared
XBc:__ZL35LoadMemoryBufferIntoTextureInternalR9Texture2DPKhj20LoadImageCompressionb
Wqp:_DragPanel_OnEndDrag_m3124563583
Ila:__ZN21EnlightenSceneMappingaSERKS_
C0r:_GenericGeneratorEnumerator_1_Reset_m4255715191_gshared
hAk:_Single_System_IConvertible_ToUInt32_m2447833283
Hgl:_XmlElementAttribute__ctor_m18315227
OWa:__ZN7ApiGLESD2Ev
gib:__ZN9Transform47ClearTransformHierarchyAndApplyToSerializedDataEv
JUq:_InternalEnumerator_1_get_Current_m4083613828_AdjustorThunk
Xme:__ZN5physx6shdfnd8PoolBaseINS_2Gu30LargePersistentContactManifoldENS0_19ReflectionAllocatorIS3_EEE12allocateSlabEv
Dlb:__ZN17PersistentManager9AddStreamEv
jtu:dynCall_fidi
pGt:__ZN15dense_hashtableINSt3__24pairIK10KeyWrapperINS1_IPK9FieldInfoP11Il2CppClassEEEjEES9_17ReflectionMapHashIS8_EN14dense_hash_mapIS9_jSD_NS9_14EqualsComparerINS0_8equal_toIS8_EEEENS0_9allocatorISB_EEE9SelectKeyESI_SK_E12resize_deltaEjj
m2c:__Z47Register_UnityEngine_GUIStyle_set_imagePositionv
mLe:__ZN5physx20getVertexEdgeIndicesERKNS_2Gu11HeightFieldEjjjPNS_8EdgeDataE
GSk:_BallEvents__cctor_m2489422506
O1c:__Z49GUIStyle_CUSTOM_INTERNAL_CALL_Internal_DrawCursor13Il2Cpp_IntPtrRK5RectTIfEP12Il2CppObjectiRK10ColorRGBAf
Whq:_AN_PoupsProxy_CallActivityFunction_m3180070345
cse:__ZN5physx6shdfnd5ArrayIPNS_2Sc8BodyCoreENS0_19ReflectionAllocatorIS4_EEE6resizeEjRKS4_
wJm:_AndroidInAppPurchaseManager_OnConsumeFinishedCallBack_m3696437980
SId:__ZN5physx3Cct26CharacterControllerManager16createControllerERNS_9PxPhysicsEPNS_7PxSceneERKNS_16PxControllerDescE
TK:__ZN14SafeBinaryRead19TransferSTLStyleMapINSt3__23mapIjN4core12basic_stringIcNS3_20StringStorageDefaultIcEEEENS1_4lessIjEENS1_9allocatorINS1_4pairIKjS7_EEEEEEEEvRT_17TransferMetaFlags
INj:_UILabel_get_lineWidth_m3072352628
Gyb:__ZN22RenderingCommandBufferC2ERKS_
C0e:__ZNK12PhysXRaycast12BatchOverlapER13dynamic_arrayI15BatchedOverlapsLj4EEPP8Colliderj
tkk:_DelegatePInvokeWrapper_GetKeyStateFunc_t1266514268
Gpq:_AndroidADBanner__ctor_m2859037708
rUb:__ZN14SubstanceInput8TransferI24GenerateTypeTreeTransferEEvRT_
_Gc:__ZNK13MonoBehaviour13GetScriptTypeEv
hpr:_ScriptableObject_CreateInstance_m3921674852
oki:_NetworkingPeer_LocalCleanPhotonView_m2859247895
wg:_SDL_FreeRW
jve:__ZN5physx6shdfnd8PoolBaseINS_2Cm5BlockIhLj128EEENS0_19ReflectionAllocatorIS4_EEE15disposeElementsEv
V8h:_Collection_1_ConvertItem_m246573059_gshared
nsf:__Z34CanvasRenderer_Get_Custom_PropCullP12Il2CppObject
mfe:__ZN5physx3Scb14ParticleSystem14setRestOffsetsEjRKNS_16PxStrideIteratorIKjEERKNS2_IKfEE
ovr:_Texture2D_Apply_m3543341930
N8p:_XsollaPaymentImpl_LogScreen_m312132697
F_e:__ZN12MeshCollider11CreateShapeEPvPK9RigidbodyRK8Vector3f
Y0:__ZN20SoundChannelInstance8getDelayE14FMOD_DELAYTYPEPjS1_
gtb:__ZN21AssetBundleFileSystemC2EPKc
qio:__Z113RuntimeInvoker_Int32_t2071877448_Vector2_t2243707579_Vector2_t2243707579_ContactFilter2D_t1672660996_Il2CppObjectPK10MethodInfoPvPS2_
gNm:_Parser_get_PeekChar_m3731580855
h1n:__Z61RuntimeInvoker_Void_t1841601450_Il2CppObject_Int64_t909078037PK10MethodInfoPvPS2_
IAj:_InputField_set_customCaretColor_m3534590098
xKr:_ScrollRect_set_viewport_m323693490
QFa:__ZN10UnitySceneD0Ev
gKn:_NumberFormatter_FormatExponential_m3975285307
u8e:__ZNSt3__26vectorIN20TextRenderingPrivate8FontImpl13CharacterInfoE13stl_allocatorIS3_L18MemLabelIdentifier1ELi16EEE8__appendEj
v:tempBigInt
ndr:_KeyCollection_System_Collections_Generic_ICollectionU3CTKeyU3E_Clear_m3185000447_gshared
Qvo:__Z80RuntimeInvoker_Vector2_t2243707579_Il2CppObject_Il2CppObject_Vector2_t2243707579PK10MethodInfoPvPS2_
kg:_emscripten_glVertexAttrib1fv
bdi:_OnLocalizeNotification_Invoke_m4074283148
Yec:__ZNSt3__26vectorIN9ShaderLab20SerializedSubProgram12UAVParameterENS_9allocatorIS3_EEE7reserveEj
SPp:_Array_InternalArray__get_Item_TisTypeTag_t141209596_m1747911007_gshared
Ovn:_NameObjectCollectionBase__ctor_m2433753948
Q8r:_AnimationCurve_Init_m1486386337
Vis:_Component_GetComponents_m3712441745
Rqe:__ZN5physx13NpVolumeCacheC2EPNS_2Sq17SceneQueryManagerEjj
hSd:__ZThn24_N5physx2Sc20ArticulationJointSimD1Ev
XJf:__ZL99Thread_t241561612_CustomAttributesCacheGenerator_Thread_t241561612____ExecutionContext_PropertyInfoP21CustomAttributesCache
KZ:__ZN12AudioManager14systemCallbackEP11FMOD_SYSTEM24FMOD_SYSTEM_CALLBACKTYPEPvS3_
LWt:__ZN6il2cpp2vm5Image9GetCorlibEv
GWs:_UnityAction_4_Invoke_m3312096275_gshared
dum:_Int16_System_IConvertible_ToDecimal_m2010889121_AdjustorThunk
sDo:__Z68RuntimeInvoker_Void_t1841601450_Int32_t2071877448_Double_t4078015681PK10MethodInfoPvPS2_
nfe:__ZN5physx2Sc18ParticleSystemCore14setRestOffsetsEjRKNS_16PxStrideIteratorIKjEERKNS2_IKfEE
LAd:__ZN5physx2Gu16testPolyDataAxisERKNS0_8CapsuleVERKNS0_13PolygonalDataEPNS0_12SupportLocalERKNS_6shdfnd3aos6FloatVERSB_RNSA_5Vec3VE
jnr:_RectTransformUtility_ScreenPointToRay_m1842507230
Ogb:__ZN16ReflectionProbes16UpdateSampleDataEv
ser:_ShimEnumerator_get_Current_m1193156443_gshared
mdd:__Z9UpdateTplIL27ParticleSystemCurveEvalMode1EEvRK11MinMaxCurveR23ParticleSystemParticlesjjPKN4math8floatNx3E
_Ud:__ZN5physx2Sc17ParticleSystemSimD0Ev
Dg:__MNP_ShowMessage
Rvp:_GoogleMobileAd_ShowInterstitialAd_m804632143
U5q:_Enumerator_VerifyState_m2118679243_gshared
D4r:_Action_1_Invoke_m1440002041_gshared
f1b:__ZN14SafeBinaryRead21TransferSTLStyleArrayI10vector_setI4PPtrI10MonoScriptENSt3__24lessIS4_EE13stl_allocatorIS4_L18MemLabelIdentifier76ELi16EEEEEvRT_17TransferMetaFlags
D5n:__Z103RuntimeInvoker_Il2CppObject_Il2CppObject_StreamingContext_t1417235061_ISurrogateSelectorU26_t2635255864PK10MethodInfoPvPS2_
ITb:__ZN18ProceduralMaterial23VirtualRedirectTransferER17RemapPPtrTransfer
LIg:__ZL103GPAchievement_t4279788054_CustomAttributesCacheGenerator_GPAchievement_t4279788054____type_PropertyInfoP21CustomAttributesCache
jvs:_SafeHandle_Finalize_m1839546519
iaq:_XsollaPaystation_StartPayment_m3164959649
Gxs:_Context_AllocateNamedDataSlot_m3200404053
tEa:__ZN14BatchAllocator6CommitE18MemLabelIdentifier
Ark:_X509EnhancedKeyUsageExtension_Decode_m3866320499
dKn:_NumberFormatter_AppendIntegerStringWithGroupSeparator_m1401773574
qqm:_CompareInfo_internal_index_switch_m3568425406
Kg:_JS_Sound_Play
Uzj:_Image_IsRaycastLocationValid_m864962354
afs:_Camera_INTERNAL_CALL_ViewportToWorldPoint_m3505854934
uIl:_UIWidget_RemoveFromPanel_m2657016785
OQp:_Object_FindObjectOfType_TisIl2CppObject_m483057723_gshared
_dc:__ZN9ShaderLab16SerializedShader8TransferI14SafeBinaryReadEEvRT_
FBp:_GooglePlayRTM_OpenInvitationBoxUI_m3136103353
ked:__Z15StartConeVolumeILN11ShapeModule14MultiModeValueE1ELb1EEvRS0_R23ParticleSystemParticlesRK19ParticleSystemStateRK27ParticleSystemEmissionStateRKN4math8float3x3EPKfjbj
np:FUNCTION_TABLE_viiiiiiffi
HC:__ZN7mecanim8skeleton13SkeletonAlignEPKNS0_8SkeletonERKN4math7_float4ES7_i
Duc:__ZN19ShaderPropertySheet16SetVectorIndexedEN9ShaderLab16FastPropertyNameEifRK8Vector4fNS_8SetFlagsE
eu:__ZN14SafeBinaryRead21TransferSTLStyleArrayIN4core12basic_stringIcNS1_20StringStorageDefaultIcEEEEEEvRT_17TransferMetaFlags
pXp:_XmlNode_AppendChildValues_m420033304
lJq:_RemotingConfiguration_RegisterWellKnownServiceType_m2491506630
DEf:__ZL55_TypeBuilder_t2783404358_CustomAttributesCacheGeneratorP21CustomAttributesCache
SLj:_UIInput_Submit_m162718125
dcu:___shgetc
kMh:_List_1_System_Collections_IList_IndexOf_m4061554721_gshared
H6c:__ZN15CollisionModule16CheckConsistencyEv
lAq:_PaymentFormController_GetCardViewWeb_m2675473598
zpi:_ObjectPoolController_Instantiate_m60636143
_ec:__ZNSt3__26vectorIN9ShaderLab20SerializedSubProgram12UAVParameterENS_9allocatorIS3_EEE8__appendEj
Odk:_TweenAlpha_Cache_m345322446
WBn:_EndPoint_NotImplemented_m972638115
hEt:__ZN6il2cpp2vm14TypeNameParser10SkipWhitesEv
YZc:__ZN5IMGUI9GUIWindow5OnGUIER8GUIState
iMl:_UM_AdManager_add_OnInterstitialLoadFail_m1099186948
BEc:__ZNK17AnimationCurveTplI11QuaternionfE8GetRangeEv
Uli:_NGUIDebug_OnGUI_m576615389
PXh:_Collection_1_System_Collections_IList_IndexOf_m1446323105_gshared
gta:__ZN17ScriptingGCHandle7AcquireE18ScriptingObjectPtr25ScriptingGCHandleWeakness
oMo:_PropertyReference_set_target_m967165771
Y0s:_Nullable_1_GetValueOrDefault_m1733678955_AdjustorThunk
Wqi:_Array_get_Length_m1498215565
T3g:__ZL59PickupItemSimple_t3043267201_CustomAttributesCacheGeneratorP21CustomAttributesCache
kcf:__ZN13ProduceHelperIN20TextRenderingPrivate8TextMeshELb0EE7ProduceE18MemLabelIdentifier18ObjectCreationMode
LXp:_XmlParserContext__ctor_m326700379
SYr:_CompareFunc_Invoke_m3590977841_gshared
B_i:_RNGCryptoServiceProvider_GetBytes_m167497991
g$d:__ZN5physx12NpConstraint8comShiftEPNS_12PxRigidActorE
$hp:_CubeLerp_OnPhotonSerializeView_m2434067940
OCo:__Z58RuntimeInvoker_Void_t1841601450_ContactPoint2D_t3659330976PK10MethodInfoPvPS2_
VHn:_SslStream_BeginRead_m1539657028
KFs:_ReadOnlyCollection_1_System_Collections_IList_Remove_m688362945_gshared
gDa:__Z21HasAlphaTextureFormat13TextureFormat
x2:__ZN12AudioManager6UpdateEv
eDa:__ZN14ImageReference9BlitImageERKS_NS_8BlitModeE
dB:__ZN8Animator12AddToManagerEv
EDc:__Z26ApplyBlendShapesToVerticesR12SkinMeshInfoRKN4math5_int4EPNS1_8floatNx3ES6_
Prl:_ValueCollection__ctor_m2339726199_gshared
Rnk:_WebConnection_CheckUnityWebSecurity_m119477774
Lzd:__ZNK5physx2Gu16SupportLocalImplINS0_11ConvexHullVEE9doSupportERKNS_6shdfnd3aos5Vec3VERNS5_6FloatVESA_
y0b:__ZN23CachedSerializationDataD2Ev
ogb:__ZNK25CameraStackRenderingState31CalculateStereoCameraTargetTypeEv
MAb:__ZN14RenderSettings23VirtualRedirectTransferER14SafeBinaryRead
zUp:_XmlConvert_ToBoolean_m1218506242
Ujd:__ZNK13b2CircleShape5CloneEP16b2BlockAllocator
p5l:_GK_Leaderboard_UpdateCurrentPlayerScore_m2150549637
Qij:_Array_InternalArray__set_Item_TisKeyValuePair_2_t614362368_m1380302544_gshared
mPc:__Z36Renderer_Set_Custom_PropSortingOrderP12Il2CppObjecti
DUc:__Z57Register_UnityEngine_Material_INTERNAL_CALL_SetVectorImplv
Kcs:_AudioSource_Play_m889724421
Kkr:_RaycastHit2D_get_point_m442317739
I9n:__Z72RuntimeInvoker_Il2CppObject_Il2CppObject_Decimal_t724701077_Il2CppObjectPK10MethodInfoPvPS2_
IJl:_UITweener_Sample_m1859435509
Bmf:_UNITY_tt_face_load_fpgm
gik:_UIButtonColor_SetState_m817287101
QUb:__ZN12InputManagerD0Ev
lGt:__ZN15dense_hashtableINSt3__24pairIK10KeyWrapperINS1_IPK9FieldInfoP11Il2CppClassEEEjEES9_17ReflectionMapHashIS8_EN14dense_hash_mapIS9_jSD_NS9_14EqualsComparerINS0_8equal_toIS8_EEEENS0_9allocatorISB_EEE9SelectKeyESI_SK_E4findERSA_
euj:_DefaultControls_CreateUIObject_m2810394112
c9m:_GUIStyle_get_overflow_m1125058093
S$m:_AnimatorControllerPlayable_Play_m4092315465
yHk:_UnicodeEncoding_GetBytes_m1337660232
E$d:__ZN5physx2Sc9RigidCore20removeShapeFromSceneERNS0_9ShapeCoreEb
Xbc:__Z18Transfer_BlittableI18StreamedBinaryReadILb0EELb1EtEvRK29SerializationCommandArgumentsR31RuntimeSerializationCommandInfo
led:__Z15StartConeVolumeILN11ShapeModule14MultiModeValueE2ELb1EEvRS0_R23ParticleSystemParticlesRK19ParticleSystemStateRK27ParticleSystemEmissionStateRKN4math8float3x3EPKfjbj
rfu:_posix_memalign
Uuc:__ZN13ProduceHelperI12MeshRendererLb0EE7ProduceE18MemLabelIdentifier18ObjectCreationMode
PVd:__ZN5physx6shdfnd5ArrayIPvNS0_15InlineAllocatorILj256ENS0_19ReflectionAllocatorINS_14NpArticulationEEEEEE15growAndPushBackERKS2_
r$q:_InternalEnumerator_1_get_Current_m747506907_AdjustorThunk
Hes:_Camera_get_eventMask_m4241372419
Wwp:_GooglePlayerTemplate__ctor_m1356420145
UHi:_Decimal_op_Implicit_m623319612
w$g:__ZL65OnClickRequestOwnership_t527990915_CustomAttributesCacheGeneratorP21CustomAttributesCache
JKl:_UIWidget_PanelCompareFunc_m4031376758
Tga:__ZNK15MonoScriptCache7ReleaseEv
zpt:__ZN6il2cpp2vm5Class13HasReferencesEP11Il2CppClass
OIe:__ZN5physx9PxTaskMgrC2EPNS_15PxCpuDispatcherEPNS_15PxGpuDispatcherEPNS_15PxSpuDispatcherE
ai:_glBindTexture
ELo:_Progress_Awake_m1390989615
yKk:_ThreadAbortException__ctor_m1623816114
pBj:_InputField_set_caretPosition_m888572237
gTn:_ILGenerator__cctor_m3943061018
kzi:_ArrayListWrapper_Clone_m1506311066
vAa:__Z36scripting_liveness_calculation_begin17ScriptingClassPtriPFvPP12Il2CppObjectiPvES3_PFvvES7_
o5:__Z45Register_UnityEngine_AudioSource_get_priorityv
JUa:__ZN16UniformCacheGLES6CreateERK20GpuProgramParameters
MIk:_UTF8Encoding_Fallback_m811555654
_L:__ZN7mecanim12statemachine13StateConstant8TransferI24GenerateTypeTreeTransferEEvRT_
nGk:_Encoding_GetString_m1894033578
YDs:_ReadOnlyCollection_1_System_Collections_IList_Clear_m1918003010_gshared
L1s:_Nullable_1_Equals_m3860982732_gshared
Uwu:_emscripten_glGetProgramInfoLog__wrapper
q2j:_PhotonView_Get_m3074363662
Dja:__ZN17PersistentManager23DestroyFromFileInternalEi
wus:_GCHandle_GetTarget_m2056570211
rur:_TextGenerator_ValidatedSettings_m1640214759
p_q:_InternalEnumerator_1_System_Collections_IEnumerator_get_Current_m2389982234_gshared
$Gq:_MonoMethodMessage_get_MethodName_m3580519713
BE:__ZN26AnimatorControllerPlayable18PrepareForPlaybackERN7mecanim6memory9AllocatorE
Wye:__ZN5physx19PxsMaterialCombiner24combineIsotropicFrictionERKNS_15PxsMaterialDataES3_
QQp:_Object_Instantiate_TisIl2CppObject_m1767088036_gshared
Q_p:_XmlParserInputSource_Close_m3324148421
N6j:_JSONLazyCreator_ToString_m2173505466
vQp:_Array_InternalArray__get_Item_TisUIVertex_t1204258818_m3450355955_gshared
xPt:__ZN6il2cpp6icalls8mscorlib6System9Threading6Thread11Thread_initEP12Il2CppThread
JLh:_List_1_IndexOf_m2418862432_gshared
_yn:_BindIPEndPoint_BeginInvoke_m801006666
aGm:_MemberAccessException__ctor_m111743236
Sbs:_AssetBundleRequest_get_allAssets_m3314852268
n1s:_Nullable_1_ToString_m3201666422_gshared
_ta:__ZN22CreateGpuProgramOutputC2Ev
nuk:_X509Chain__ctor_m2242540866
r$j:_PhotonNetwork_get_countOfRooms_m1146773990
T8s:_Vector3_GetHashCode_m1754570744
_Lq:_ObjectManager_GetObject_m2241027343
Uqq:_AndroidAdMobController_SetBirthday_m1416576045
Zv:__Z21GetAnimatableBindTypeRK16TypeTreeIterator
mFb:_UNITY_png_set_text_2
pPl:_UM_Result__ctor_m3513463757
rUm:_AudioController__GetPreviousMusicTrackShuffled_m1507560000
KGk:_Latin1Encoding_GetString_m2975627625
UHq:_SoapMethodAttribute_SetReflectionObject_m3431595769
PUe:__ZN5physx7Cooking16cookTriangleMeshERKNS_18PxTriangleMeshDescERNS_14PxOutputStreamE
Qes:_Camera_INTERNAL_set_rect_m610424166
H$s:_Nullable_1_get_Value_m691755378_AdjustorThunk
W4e:__ZN14CompletionTask4InitEPN5physx7PxSceneE
$Sd:__ZN5physx2Sc7ElementD0Ev
SZr:_BetterList_1_Pop_m2271928920_gshared
mXe:__ZN5physx6shdfnd10Foundation7releaseEv
rvu:b72
vg:_emscripten_glBindBuffer
Lci:_LagPosition_Awake_m3273061249
l8s:_Vector2_op_Subtraction_m1984215297
QDc:__ZNK15GUIEventManager15GetEventAtIndexEi
oqf:__ZN2UI14CanvasRenderer17SyncDirtyElementsER8JobFence
keu:_realpath
h7i:_ExecuteEvents_CanHandleEvent_TisIl2CppObject_m1201779629_gshared
eZt:__ZN6il2cpp5utils11StringUtils15StringDuplicateEPKc
iso:__Z79RuntimeInvoker_Single_t2076509932_Il2CppObject_Vector2_t2243707579_Il2CppObjectPK10MethodInfoPvPS2_
Gib:__Z15CanAddComponentR10GameObjectPKN5Unity4TypeE
Gyp:_GooglePlayManager_LoadToken_m2651770918
Q6i:_Array_InternalArray__ICollection_Remove_TisParticle_t250075699_m1728013825_gshared
tta:__ZNK9ShaderLab21ShaderRasterStateDesc16ToGfxRasterStateEPK19ShaderPropertySheetS3_R14GfxRasterState
PAj:_InputField_set_onValueChange_m1749304609
h_s:_U3CCreateConcatIteratorU3Ec__Iterator1_1_MoveNext_m3259743205_gshared
AWi:_CspParameters__ctor_m2480441577
b1k:_ObscuredDecimal_SetNewCryptoKey_m3306059921
lbu:__ZN6il2cpp2os9EventImplC2Ebb
Aed:__Z12RangedRandomR5RandNRKiS2_
qxn:_DeflateStream_UnmanagedWrite_m2053312812
G0s:_Nullable_1_GetHashCode_m3047479588_AdjustorThunk
wAo:__Z79RuntimeInvoker_Int32_t2071877448_SByte_t454417549_SByte_t454417549_Il2CppObjectPK10MethodInfoPvPS2_
m2j:_PhotonView_DeserializeComponent_m133010701
bat:_WWW_InitWWW_m1194933100
KTp:_XmlDocument_RemoveIdenticalAttribute_m3441209610
Lik:_UIButtonOffset__ctor_m3498279228
$sc:__ZN13HandleManagerC2Ev
vqb:__ZNK5Unity9Component26GetTypeInfoVirtualInternalEv
Oda:__Z20IsMatrixBuiltinParamPKcPi
M3h:_Collection_1_CheckWritable_m2467777750_gshared
luc:__ZN8Renderer19PostInitializeClassEv
glr:_Rect_get_center_m3049923624_AdjustorThunk
l_q:_InternalEnumerator_1_get_Current_m3180886734_AdjustorThunk
Dtp:_AppRequests_GetGui_m1295348440
b8t:__ZN6il2cpp5utils10MemoryPool6MallocEj
ibf:__ZN20TextRenderingPrivate15DynamicFontDataD2Ev
tOq:_InternalEnumerator_1_get_Current_m1943362081_AdjustorThunk
i9s:_Vector3_get_sqrMagnitude_m1814096310_AdjustorThunk
rci:_JSHelper_HandleOnAchievementsReset_m3417162214
Jiu:__ZNKSt3__28time_getIcNS_19istreambuf_iteratorIcNS_11char_traitsIcEEEEE10__get_yearERiRS4_S4_RjRKNS_5ctypeIcEE
adi:_Localization_SelectLanguage_m1876203060
cNn:_Default_check_type_m2363631305
L$b:__ZN18DelayedCallManager18CancelCallDelayed2E4PPtrI6ObjectEPF15CallObjectStatePS1_PvES7_
Iqk:_WebRequest_Abort_m1466873215
r_m:_AnimatorControllerPlayable_INTERNAL_CALL_GetLayerIndexInternal_m1847150746
Nni:_NGUITools_RandomRange_m1650339419
tpb:__ZN25ThreadsafeLinearAllocator10ReallocateEPvji
J1b:__Z18Transfer_BlittableI14SafeBinaryReadLb1E11QuaternionfEvRK29SerializationCommandArgumentsR31RuntimeSerializationCommandInfo
jZd:__ZNK5physx18PxArticulationLink8isKindOfEPKc
Mxr:_CanvasConstants_get_JSSDKBindings_m1559667013
xtu:dynCall_iiiifffiii
Bd:invoke_fiifffi
Ecj:_Array_InternalArray__IndexOf_TisRaycastHit2D_t4063908774_m3739817942_gshared
CYn:_MonoProperty_GetAccessors_m3704698731
z9k:_ObscuredULong_ToString_m1816985142_AdjustorThunk
l5e:__Z25CreatePxMeshFromUnityMeshP4MeshbbRK10Matrix4x4f13TransformTypef
Q6t:_GC_disable
ROb:__ZN10Matrix4x4f8TransferI14SafeBinaryReadEEvRT_
No:FUNCTION_TABLE_vifiiiiiiiiiiiiiiiiii
yFm:_UnmanagedMemoryStream_ReadByte_m2501145010
ovc:__ZN12LineRenderer26RendererCullingOutputReadyEPP12BaseRendererjPK6CameraRK10Matrix4x4f
t$k:_ObscuredBool__ctor_m3839226021_AdjustorThunk
rx:__ZN15SerializeTraitsI13dynamic_arrayIN11UnityEngine9Animation14GenericBindingELj4EEE19ResizeSTLStyleArrayERS4_i18MemLabelIdentifier
yE:__ZN14AvatarPlayback8StopTimeEv
J2t:__ZThn4_N6il2cpp2vm13ComObjectBase16MarshalInterfaceEP13Il2CppIStreamRK10Il2CppGuidPvjS7_j
Yja:__Z6AppendRKN4core12basic_stringIcNS_20StringStorageDefaultIcEEEEPKc
TWj:_OpenClosePopup_DisableAllObjects_m443970052
bor:_Rigidbody_get_velocity_m2022666970
s2r:_U3CConcatYieldU3Ed__63_1_System_Collections_IEnumerator_Reset_m291527398_gshared
GLl:_UltimateMobileSettings_RemoveProduct_m3365183952
Cqr:_SliderHandler_PageMovementValue_m1651578409_AdjustorThunk
t9b:__Z18Transfer_BlittableI18StreamedBinaryReadILb1EELb0E8Vector3fEvRK29SerializationCommandArgumentsR31RuntimeSerializationCommandInfo
qKi:_Convert_ToUInt32_m3085255294
Pfe:__ZN5physx3Scb14ParticleSystem12ForceUpdates7destroyEv
Dpf:__ZNSt3__218__insertion_sort_3IRNS_6__lessIN2UI14DepthSortEntryES3_EEPS3_EEvT0_S7_T_
KOl:_UM_GameServiceManager_get_FriendsList_m1842496465
ywj:_FontUpdateTracker_RebuildForFont_m650875994
KNa:__ZN7ApiGLES18ClearBufferSubDataEjN2gl12BufferTargetEll
YQ:__ZN8Animator7SetBoolEib
QLc:__Z37Camera_Get_Custom_PropAllCamerasCountv
WNb:__ZN14Texture2DArray8TransferI18StreamedBinaryReadILb0EEEEvRT_
vwm:_Int64_System_IConvertible_ToSingle_m1678482180
F0d:__ZN5physx15NpActorTemplateINS_18PxArticulationLinkEED2Ev
Yhd:__ZZN14ParticleSystem15InitializeClassEvEN29FunctorImpl_192kDidModifyMesh4CallEPviR11MessageData
Ldb:__Z18ApplyOcclusionMaskR19ProbeOcclusionCacheRK17LightProbeContextRK10RenderNodeb
iwu:b109
ZAm:_FileStreamAsyncResult__ctor_m1096228032
chf:_Split_Cubic
Xb:invoke_fiiii
Ypj:_StandaloneInputModule_ProcessMouseEvent_m3840335260
oOi:_DBNull_System_IConvertible_ToSByte_m1228193074
xlq:_AN_GMSRTMProxy_TBM_Rematch_m1939725039
_Ur:_XmlTextReader_ReadName_m3307626912
GEm:_TextReader_ReadLine_m4195715352
Ud:invoke_iiiifffiii
D1h:_Collection_1__ctor_m2818834331_gshared
tQp:_Array_InternalArray__get_Item_TisUICharInfo_t3056636800_m3872982785_gshared
Y4e:__Z19ExtractDataFromMeshR4MeshR13dynamic_arrayI8Vector3fLj4EERS1_ItLj2EES6_
PIp:_iAdBanner_add_AdViewFinishedAction_m106155754
ZWr:_DTDReader_ReadChar_m2015786776
H_t:__ZN6il2cpp2os10ThreadImpl22CreateForCurrentThreadEv
sCi:_Hashtable_PutImpl_m3318435614
yEi:_SortedList_CopyToArray_m1525595304
H2c:__Z64Register_UnityEngine_GUIStyle_GetFontInternalDuringLoadingThreadv
Qgf:_ft_black_render
Uol:_Transform_1_Invoke_m4206022800_gshared
CRp:_Enumerable_First_TisIl2CppObject_m3158850377_gshared
rtu:dynCall_viiifi
ARa:__ZN18GfxFramebufferGLES20ActiveContextChangedEPP17RenderSurfaceBaseS2_
ebb:__ZN19ShaderPropertySheet17UpdateTextureInfoEiN9ShaderLab16FastPropertyNameEPK10TextureRef
qki:_NetworkingPeer_ReadoutProperties_m1522950491
tEl:_Dictionary_2_Init_m3833221121_gshared
wRa:__Z19PluginsRenderMarkeri
gQ:__ZN10HumanTrait18InitializeBoneNameEv
Epk:_WebConnectionStream_get_Length_m2687402700
E1o:_iAdBannerController_GetBanner_m1525889695
YLs:_X509CertificateEnumerator_get_Current_m3129374511
fIr:_RawImage_get_mainTexture_m3865646934
CSi:_Enum_ToString_m662345249
RXt:__ZNSt3__214__split_bufferIN6il2cpp2vm5Image20EmbeddedResourceDataERNS_9allocatorIS4_EEEC2EjjS7_
O2a:__ZN5Image13ReformatImageERK14ImageReferenceii13TextureFormatNS0_8BlitModeE
MDf:__ZL57DispIdAttribute_t607560947_CustomAttributesCacheGeneratorP21CustomAttributesCache
dX:__ZN12AudioManager17RemoveAudioSourceEP11AudioSource
Gyu:_emscripten_glBindProgramARB__wrapper
GPc:__Z49Register_UnityEngine_Renderer_set_sharedMaterialsv
Yjp:_CvvValidator__ctor_m3162100350
pSo:_SearchOponentAnimation_ShowButtons_m695352371
Sjs:_CullingGroup_Finalize_m3172731580
Gbt:_JsonReader__ctor_m3842911810
_Pp:_Array_InternalArray__get_Item_TisUInt64_t2909196914_m2580870875_gshared
Mci:_LagPosition_OnEnable_m4270384330
nqe:__ZN5physx2Sc5Scene22setNbContactDataBlocksEj
qrc:__ZN13ProduceHelperI14SpriteRendererLb0EE7ProduceE18MemLabelIdentifier18ObjectCreationMode
E5:__ZN5physx14PxLightCpuTask12addReferenceEv
_rd:__Z10b2DistanceP16b2DistanceOutputP14b2SimplexCachePK15b2DistanceInput
YJb:__ZN21EnlightenSceneMapping8TransferI19StreamedBinaryWriteILb0EEEEvRT_
Yjq:_AN_GMSGeneralProxy_loadToken_m2617246801
h_q:_InternalEnumerator_1_System_Collections_IEnumerator_get_Current_m3349211177_AdjustorThunk
KZc:__ZN10GUIManager10DoGUIEventER10InputEventb
Mqi:_OnClickInstantiate_OnClick_m2734264061
S3t:_GC_bl_init_no_interiors
fmq:_AN_GoogleAnalyticsProxy_SetTrackerID_m504420109
Bea:__Z20CalculateSqrDistanceRK8Vector3fRK4AABB
Jcm:_GoogleAnalyticsSettings_AddProfile_m2605701780
F5e:__ZN14PhysicsManager15ProcessContactsEv
dZk:_ChatGui_Start_m568743892
pEd:__ZN21BoxTraceSegmentReport7onEventEjPj
SYd:__ZN5physx2Sc21ArticulationJointCore13setSwingLimitEff
a$:__Z32AudioMixerDuckingProcessCallbackP21UnityAudioEffectStatePfS1_jii
tfu:__ZNSt3__27__sort3IRNS_6__lessIiiEEPiEEjT0_S5_S5_T_
aAd:__ZL20HullProjectionCB_BoxRKN5physx2Gu13PolygonalDataERKNS_6PxVec3ERKNS_2Cm8Matrix34ERKNS7_23FastVertex2ShapeScalingERfSE_
RNn:_CustomAttributeTypedArgument_GetHashCode_m999147081_AdjustorThunk
rtc:__ZN26CustomRenderTextureManagerD2Ev
hQc:__Z32Input_Get_Custom_PropInputStringv
IAm:_FileStream_Read_m3880951166
Dbs:_AssetBundle_LoadAllAssets_m3233821749
OEe:__ZN5physx14PxsAABBManager21selfCollideAggregatesEPKNS_19AggregateSortedDataE
kAr:_EditorFacebook_get_SDKVersion_m3902464889
OTj:_UIScrollView_OnDisable_m2515488578
MX:__ZN12AudioManager8TransferI24GenerateTypeTreeTransferEEvRT_
CXq:_InternalEnumerator_1_get_Current_m4168733561_gshared
fgd:__ZN16CustomDataModuleD0Ev
chs:_CharacterInfo_get_uvTopLeftUnFlipped_m3843421786_AdjustorThunk
axa:__Z25GetBytesFromTextureFormat13TextureFormat
djo:__Z105RuntimeInvoker_Void_t1841601450_Int32_t2071877448_Single_t2076509932_Int32_t2071877448_Single_t2076509932PK10MethodInfoPvPS2_
WMe:__ZN5physx12_GLOBAL__N_112innerProductERKNS_14Px1DConstraintERS1_RKNS0_9MassPropsE
bwu:b102
M6i:_Array_InternalArray__ICollection_Remove_TisContactPoint_t1376425630_m2242111467_gshared
LCn:_FtpAsyncResult_get_IsCompleted_m4117381667
Lk:_emscripten_webgl_init_context_attributes
Rx:__Z14resize_trimmedINSt3__26vectorIN13AnimationClip9PPtrCurveE13stl_allocatorIS3_L18MemLabelIdentifier25ELi16EEEEEvRT_j
Pha:__Z32scripting_class_get_assemblyname17ScriptingClassPtr
dsd:__ZN9b2Simplex9ReadCacheEPK14b2SimplexCachePK15b2DistanceProxyRK11b2TransformS5_S8_
Pzl:_Dictionary_2_Resize_m2532139610_gshared
Err:_StackTraceUtility__cctor_m1132099289
O4j:_PlayServiceExample_Start_m1026670624
aBe:__ZN5physx26PxcFrictionPatchStreamPairC2ERNS_17PxcNpMemBlockPoolE
_Lk:_TimeSpan_Equals_m2029123271_AdjustorThunk
Cwt:__ZN6il2cpp2vm13MetadataCache23GetInvokerMethodPointerEPK10MethodInfoPK20Il2CppGenericContext
QVa:__ZN9GfxDevice21RegisterNativeTextureE9TextureIDi16TextureDimension
Mk:_SocketSend
YQm:_AS_ShortDemo_RegistrationAttempted_m624303852
I8t:__ZN6il2cpp6icalls8mscorlib6System10Reflection4Emit11TypeBuilder20create_generic_classEP27Il2CppReflectionTypeBuilder
PGp:_GPaymnetManagerExample_init_m116644627
vIl:_UITexture_get_material_m4212599041
wbq:_XsollaPaystationController_OpenPricepoints_m1389884572
Vno:__Z107RuntimeInvoker_Void_t1841601450_Double_t4078015681_Il2CppObject_Int32_t2071877448_Il2CppObject_Il2CppObjectPK10MethodInfoPvPS2_
Mqq:_AndroidAdMobBannerInterstitial_ShowBanner_m1187971780
zxh:_Enumerator_MoveNext_m2504790928_gshared
a8:__ZN3WWW20GetCachedErrorStringEv
Pic:__ZN12ScriptMapperD2Ev
sCs:_ReadOnlyCollection_1_System_Collections_IList_Remove_m1752507943_gshared
B$e:__ZN9Rigidbody13AwakeFromLoadE17AwakeFromLoadMode
K6c:__ZN9SubModule8TransferI14SafeBinaryReadEEvRT_
YKi:_CurrentSystemTimeZone_System_Runtime_Serialization_IDeserializationCallback_OnDeserialization_m489233422
b7k:_ObscuredSByte_ToString_m2911856844
Z3c:__ZN14ParticleSystem15AddCustomLightsERK27LocalLightCullingParametersRK11CullResultsR12ActiveLightsRi9LightType
e2m:_GUI_Label_m2231582000
x2d:__ZNK5physx14NpSceneQueries10multiQueryINS_12PxOverlapHitEEEbRKNS_15MultiQueryInputERNS_13PxHitCallbackIT_EENS_7PxFlagsINS_9PxHitFlag4EnumEtEEPKNS_12PxQueryCacheERKNS_17PxQueryFilterDataEPNS_21PxQueryFilterCallbackEPNS_20BatchQueryFilterDataE
RLs:_X509Certificate_PEM_m49854707
Z4e:__ZL21GetMeshLocationDetailR4Mesh
Drk:_X509BasicConstraintsExtension__ctor_m3320418592
$Ks:_ExtendedKeyUsageExtension_Decode_m901297139
dWc:__Z52Register_UnityEngine_RenderTexture_Internal_GetWidthv
A5t:_GC_check_leaked
xhc:__ZN9ShaderLab20SerializedSubProgram16TextureParameter8TransferI19StreamedBinaryWriteILb0EEEEvRT_
jWm:_AudioObject_get_volumeItem_m2313542648
wc:invoke_fiiiiiiiifiiiif
kij:_Array_InternalArray__Insert_TisVector4_t2243707581_m1643342708_gshared
M0k:_ObscuredChar_op_Increment_m265709458
KXm:_AvatarTab_ShowPage_m3135834524
ncf:__ZZN20TextRenderingPrivate8TextMesh15InitializeClassEvEN31FunctorImpl_299kDidAddComponent4CallEPviR11MessageData
d9p:_XsollaQuickPayments_Parse_m78740871
LUa:__Z4TrimRKN4core12basic_stringIcNS_20StringStorageDefaultIcEEEES5_
fOr:_Text_set_resizeTextMaxSize_m4034967714
syf:__ZL55GuidAttribute_t222072359_CustomAttributesCacheGeneratorP21CustomAttributesCache
R1m:_GUIStyle_SetDefaultFont_m2095841351
CNn:_CustomAttributeNamedArgument_Equals_m2691468532
UMb:__ZN10VertexData8TransferI14SafeBinaryReadEEvRT_
ZXd:__ZN5physx19NpArticulationJointD0Ev
Nuh:_Enumerator_VerifyState_m1105097172_AdjustorThunk
dZ:__ZN4FMOD8ChannelI8setDelayE14FMOD_DELAYTYPEjj
_Ei:_Stack__ctor_m2410583781
Nvi:_Byte_System_IConvertible_ToSByte_m2306605695
z3e:__ZN5physx9NpPhysics14createInstanceEjRNS_12PxFoundationERKNS_17PxTolerancesScaleEbPNS_20PxProfileZoneManagerE
Vgp:_ISN_SoomlaGrow_HandleOnFacebookPostResult_m3094284460
j7e:__Z59Register_UnityEngine_Physics_INTERNAL_CALL_Internal_Raycastv
aNn:_Default_GetBetterMethod_m4255740863
gS:__Z93Register_UnityEngine_Experimental_Director_AnimationClipPlayable_INTERNAL_CALL_SetApplyFootIKv
Idd:__Z9UpdateTplIL27ParticleSystemCurveEvalMode0EEvRK11MinMaxCurveS3_S3_R23ParticleSystemParticlesjjbRKN4math8float3x3E
Poe:__ZNK5physx7NpScene17getFilterCallbackEv
wJo:__Z48RuntimeInvoker_UIVertex_t1204258818_Il2CppObjectPK10MethodInfoPvPS2_
TXt:__ZNSt3__214__split_bufferIN6il2cpp2vm5Image20EmbeddedResourceDataERNS_9allocatorIS4_EEED2Ev
Wfa:__ZL20SortItemByInstanceIDRKN18AwakeFromLoadQueue4ItemES2_
f3e:__ZN5physx6shdfnd5ArrayIPvNS0_15InlineAllocatorILj256ENS0_19ReflectionAllocatorINS_24NpPtrTableStorageManager8PtrBlockILi16EEEEEEEE15growAndPushBackERKS2_
Icn:_Material_get_shader_m2320486867
A_i:_RNGCryptoServiceProvider_RngClose_m2921734810
kE:__ZNK34AnimationStateMachineMixerPlayable26GetInterruptedPosePlayableEv
hC:__ZN34BlobWriteTransferSTLStyleArrayImplI22OffsetPtrArrayTransferIbEEclERS1_17TransferMetaFlagsR9BlobWrite
bln:_EncryptedData_get_EncryptedContent_m3832882582
qfm:_SimpleCollator_IsHalfKana_m4255579023
$jq:_AN_GMSGeneralProxy_showAchievementsUI_m667164863
U6d:__ZN5physx7NpShape13setRestOffsetEf
F_a:__Z16FlaggedAsSkippedIN4core12basic_stringIcNS0_20StringStorageDefaultIcEEEEEbRK13FileEntryInfoRKT_19FileEnumerationFlag
oWo:_Protocol_GetCodeOfType_m1959578745
yla:__ZL31InitializeRendererUpdateManagerPv
wS:__Z26Animation_CUSTOM_CrossFadeP12Il2CppObjectP12Il2CppStringfN9Animation8PlayModeE
u7d:__ZN5physxL11getTriangleERKNS_2Gu12TriangleMeshEjPNS_6PxVec3EPKS4_PKvRKNS_2Cm8Matrix34Eb
GJn:_NumberFormatter_GetInstance_m2421260460
y_c:__ZN8GUIState12GetControlIDEi9FocusTypeRK5RectTIfE
Vgi:_MNUseExample__ctor_m2336077651
krn:_RecordProtocol_decryptRecordFragment_m2510859489
QTr:_XmlTextReader__ctor_m3002885293
A8d:__ZNK5physx7NpCloth16lockParticleDataEv
hsb:__Z28GetAbsoluteAssetBundlePrefixRKN4core12basic_stringIcNS_20StringStorageDefaultIcEEEE
vYk:_ByteReader__ctor_m2429270034
EZs:_ScreenBaseConroller_1_GetErrorByString_m1571766013_gshared
FVb:__ZN11TimeManager8TransferI19StreamedBinaryWriteILb0EEEEvRT_
bif:_compare_uni_maps
pMt:__ZN6il2cpp2vm10Reflection18CustomAttrsHasAttrEP24CustomAttributeTypeCacheP11Il2CppClass
PNj:_UILabel_get_drawingDimensions_m3026032934
Imi:_NGUIMath_MoveWidget_m390587443
PUa:__ZN18GlslGpuProgramGLES25LoadFromBinaryShaderCacheERKN4core12basic_stringIcNS0_20StringStorageDefaultIcEEEER17ShaderChannelMaskPKc
$te:__ZN5physx13NpRigidStatic9visualizeERNS_2Cm12RenderOutputEPNS_7NpSceneE
f9b:__ZN12NativeBufferI16Converter_StringE15SetupForWritingER9ArrayInfo
VQb:__ZThn32_N19SkinnedMeshRendererD1Ev
kVo:_NetworkSimulationSet__ctor_m3879676453
kl:_emscripten_glVertexAttrib3fv
vwe:__ZN5physx6shdfnd8PoolBaseINS_2Sc35ParticleElementRbElementInteractionENS0_19ReflectionAllocatorIS3_EEE15disposeElementsEv
aOj:_UILabel_OnDisable_m3667477560
ttl:_ValueCollection_System_Collections_Generic_ICollectionU3CTValueU3E_Clear_m231380274_gshared
Tmj:_Entry__ctor_m1176697586
aIm:_MonoType_get_Module_m3769241394
A6j:_JSONLazyCreator_Set_m4078789623
gNj:_UILabel_set_ambigiousFont_m1719372253
Ctk:_X509Chain_IsSignedWith_m292245392
Aib:__ZN13MonoBehaviour22DoScriptRebuildWarningEv
r2s:_Nullable_1_Equals_m1233761477_AdjustorThunk
SLc:__Z38Camera_CUSTOM_INTERNAL_CALL_RaycastTryP12Il2CppObjectRK3Rayfi
h1r:_List_1_set_Item_m2985722127_gshared
oOr:_Text_get_verticalOverflow_m3134063496
arm:_DateTimeFormatInfo_set_Calendar_m3919319357
cwc:__ZZL23RegisterLightPropertiesR22GenericPropertyBindingEN22Wrapper_LightSpotAngle13GetFloatValueEPv
F7i:_Enumerable_ToDictionary_TisKeyValuePair_2_t38854645_TisIl2CppObject_TisIl2CppObject_m1832687755_gshared
uek:_TweenHeight_get_value_m3952044497
tbq:_XsollaTranslations_Get_m1493766008
Dnf:__Z38TextGenerator_Get_Custom_PropLineCountP12Il2CppObject
qpu:_llvm_cttz_i32
_rk:_PublicKey_DecodeDSA_m1169363495
Wss:_ResourceReader_ReadValueVer2_m252146049
f$c:__ZN11IMGUIModule25GetGUIStyleScriptingClassEv
$kf:_tt_get_interface
LYr:_CompareFunc_BeginInvoke_m180221190_gshared
q7e:__Z46Register_UnityEngine_Rigidbody_set_isKinematicv
YEe:__ZN5physx14PxsAABBManager16processBPResultsERKNS_20PxsComputeAABBParamsE
dDe:__ZN5physx23PxsBroadPhaseContextSapD2Ev
WFt:__ZN15dense_hashtableINSt3__24pairIK10KeyWrapperINS1_IPK14Il2CppAssemblyP11Il2CppClassEEEjEES9_17ReflectionMapHashIS8_EN14dense_hash_mapIS9_jSD_NS9_14EqualsComparerINS0_8equal_toIS8_EEEENS0_9allocatorISB_EEE9SelectKeyESI_SK_E9copy_fromERKSN_j
LBr:_FacebookScheduler_DelayEvent_m3491670402
OWe:__ZN5physx12SubSortQuickC2EPjPKNS_10PxBounds3VEjf
U6o:_IOSImagePickResult__ctor_m2811778119
Olu:__ZNSt3__2L13utf8_to_utf16EPKhS1_RS1_PtS3_RS3_mNS_12codecvt_modeE
zca:__Z18ConvertUTF16toUTF8PPKtS0_PPhS2_15ConversionFlags
xur:_TextGenerator_GetVertices_m4090838925
Zek:_TweenPosition_SetCurrentValueToStart_m2145179582
mlk:_NetworkStream_EndRead_m914762628
Cht:__ZL16my_g_bit_nth_msfj
VXl:_WorkerInGame_OnFailedToConnectToPhoton_m3789442160
hRb:__Z20DeformSkinnedMeshJobP12SkinMeshInfo
IWi:_KeySizes__ctor_m3526899007
Y7k:_ObscuredString_GetString_m3131099286
jum:_Int16_System_IConvertible_ToInt32_m191782913_AdjustorThunk
kP:__ZN9Animation12CleanupClassEv
Mgg:__ZL69ArgumentCache_t4810721_CustomAttributesCacheGenerator_m_FloatArgumentP21CustomAttributesCache
LDu:_emscripten_glSampleCoverage__wrapper
KFk:_EncoderReplacementFallback__ctor_m2208438262
dDh:_List_1_RemoveAll_m1032180025_gshared
r6a:__Z23SetupStereoFlareElementP11FlareVertexRK8Vector2fS3_S3_RK11ColorRGBA32RK10Matrix4x4fRK8Vector3fb
j9s:_Vector3_Min_m4249067335
d6i:_Array_InternalArray__ICollection_Remove_TisDateTime_t693205669_m1275668216_gshared
O_i:_RSACryptoServiceProvider__ctor_m2716420409
N3n:__Z127RuntimeInvoker_Void_t1841601450_IntPtr_t_Int32_t2071877448_SByte_t454417549_Int32_t2071877448_SByte_t454417549_SByte_t454417549PK10MethodInfoPvPS2_
Db:invoke_iiiifiiii
mDs:_ReadOnlyCollection_1_System_Collections_Generic_ICollectionU3CTU3E_Remove_m3751131234_gshared
y2k:_ObscuredFloat__ctor_m1396028645_AdjustorThunk
_ae:__ZNK5physx2Sc9ClothCore16getRestPositionsEPNS_6PxVec4E
Mze:__ZN5physx20PxcSweepConvexConvexERKNS_11PxsCCDShapeES2_PKNS_12PxsRigidBodyES5_RKNS_11PxTransformES8_S8_S8_fRNS_6PxVec3ESA_RNS_10PxcNpCacheERNS_18PxcNpThreadContextEf
dzm:_Directory_GetFiles_m4036267478
ASi:_Enum_System_IConvertible_ToType_m2669300536
fee:__ZN5physx15PxsParticleDataD0Ev
bSa:__ZL19BlitFramebufferImplRN4gles23BlitFramebufferDrawQuadER9GfxDevice9TextureIDRK8Vector4f
q8l:_Serializer_SerializeValue_m750148316
FUe:__ZN5physx6shdfnd5ArrayIPvNS0_19ReflectionAllocatorIN17PxcPoolMallocData9PoolData8EEEE15growAndPushBackERKS2_
kdn:_Material_get_renderQueue_m2184625106
SOj:_UIPanel_set_alpha_m2862667873
hBs:_ReadOnlyCollection_1_System_Collections_IList_Add_m2333231354_gshared
maf:_UNITY_FT_List_Add
eNm:_Parser_get_NextWord_m1145529838
wUn:_OpCodes__cctor_m939885911
Otc:__ZN14Texture2DArray11InitTextureEiii13TextureFormatb
a3p:_XsollaPaymentImpl_POST_m3884667100
xtq:_WP8AdMobController_GetBanner_m2982368133
HYe:__ZN5physx15PxGeometryQuery14getWorldBoundsERKNS_10PxGeometryERKNS_11PxTransformEf
cGn:_HttpWebRequest_DoContinueDelegate_m22231078
nce:__ZN5physx2Sc9ClothCore18setSolverFrequencyEf
$rs:_UriParser_InitializeAndValidate_m251943319
N0i:_SymmetricAlgorithm_set_Padding_m3081984460
Rvs:_ChannelServices__cctor_m3534779830
N3j:_PingMonoEditor__ctor_m1858175257
_Ec:__Z5SlerpRK8Vector3fS1_f
oVb:__ZN9InputAxis8TransferI18StreamedBinaryReadILb0EEEEvRT_
X2l:_GameCenterManager_add_OnPlayerSignatureRetrieveResult_m3329344817
$0j:_PhotonRigidbodyView_Awake_m1963974528
C0k:_ObscuredChar_InternalDecrypt_m3679656630
Vho:__Z113RuntimeInvoker_Boolean_t3825574718_Ray_t2469606224_RaycastHitU26_t1969197280_Single_t2076509932_Int32_t2071877448PK10MethodInfoPvPS2_
Hzd:__ZN5physx2Gu16buildPartialHullERKNS0_13PolygonalDataEPNS0_12SupportLocalERNS0_14SeparatingAxesERKNS_6shdfnd3aos5Vec3VESC_
xyi:_ArrayList_RemoveAt_m2578928333
k2b:__Z18Transfer_BlittableI14SafeBinaryReadLb0EaEvRK29SerializationCommandArgumentsR31RuntimeSerializationCommandInfo
edd:__Z9UpdateTplIL27ParticleSystemCurveEvalMode0EEvRK11MinMaxCurveS3_S3_R23ParticleSystemParticlesjjbRKN4math8float3x3ERKNS6_7_float4E
B1i:_X509Certificate_GetName_m2354987368
nAs:_ReadOnlyCollection_1_System_Collections_IList_set_Item_m1233322304_gshared
gLs:_GeneralNames_get_DNSNames_m2721668874
zdd:__ZN11NoiseModule17CalculateNoiseJobILi3ELb1ELb1EEEvP12NoiseJobData
qSi:_Enum_System_IConvertible_ToByte_m38374586
Xzs:_ReadOnlyCollection_1_System_Collections_Generic_IListU3CTU3E_RemoveAt_m1592158292_gshared
evu:_emscripten_glFrustum__wrapper
keq:_XsollaSDK_U3CCreatePaymentFormU3Em__5_m721086001
lXd:__ZNK5physx2Sc16ArticulationCore17releaseDriveCacheERNS_9PxcFsDataE
rPi:_Decimal_Equals_m1798565377
auo:__Z114RuntimeInvoker_Il2CppObject_Il2CppObject_Vector3_t2243707580_Quaternion_t4030073918_Int32_t2071877448_Il2CppObjectPK10MethodInfoPvPS2_
wO:__ZN24GenerateTypeTreeTransfer8TransferIN7mecanim8skeleton8SkeletonEEEvRT_PKc17TransferMetaFlags
xLd:__ZN5physx11NpAggregate7releaseEv
BOp:_ArrayHelper_AddArrayElement_TisIl2CppObject_m2660607357_gshared
CA:__ZN19StreamedBinaryWriteILb0EE8TransferIKN4math7_float3EEEvRT_PKc17TransferMetaFlags
b3a:__Z20SyncFenceCullResultsR11CullResults
CTa:__ZN15TextureTFMethod20IsBoneCountSupportedEi
DR:__ZN26AnimatorControllerPlayable9GotoStateEiifff
b8m:_GUISkin_set_horizontalScrollbarThumb_m2119687595
oVm:_AudioController_DetachAllAudios_m930032662
b2j:_PhotonView_get_owner_m1119604144
ALi:_DateTime_System_IConvertible_ToSByte_m2575078084_AdjustorThunk
Xtl:_ValueCollection_System_Collections_Generic_ICollectionU3CTValueU3E_Remove_m2910793619_gshared
J5b:__Z22TransferField_NonArrayI17RemapPPtrTransfer27Converter_SimpleNativeClassI8GUIStyleEEvRK23StaticTransferFieldInfoR31RuntimeSerializationCommandInfoRT0_
tas:_AnimatorStateInfo_IsTag_m1529621725_AdjustorThunk
O6d:__ZN5physx7NpShape12setMaterialsEPKPNS_10PxMaterialEt
Jqc:__ZNK17AnimationCurveTplIfE20EvaluateWithoutCacheEfRf
P0t:__ZN6il2cpp2os6Thread12QueueUserAPCEPFvPvES2_
AFk:_EncoderExceptionFallback_Equals_m762170768
gWo:_TrafficStats_CountUnreliableOpCommand_m4191730955
kan:_GUIStyleState__ctor_m3611888666
k2h:_Collection_1_IsValidItem_m1304951912_gshared
OIn:_SocketAddress_GetHashCode_m862086304
xSs:_EqualityComparer_1__cctor_m2666196678_gshared
fBc:__ZN4Mesh10SetNormalsEPK8Vector3fj
lwd:__Z66Register_UnityEngine_Physics2D_INTERNAL_CALL_GetRayIntersectionAllv
uHi:_Convert_ToDateTime_m4161927553
O1k:_ObscuredDouble_SetNewCryptoKey_m3363768519
adn:_Material_SetTextureScale_m1622979841
gRn:_TypeBuilder_GetConstructors_m774120094
BBj:_InputField_SelectAll_m1843270844
l8p:_XsollaPaymentImpl_OnPaymentMethodsRecieved_m2846070695
fy:__ZN17AnimationCurveTplIfE8TransferI14SafeBinaryReadEEvRT_
cqi:_ObscuredIntTest_UseRegular_m1828789072
z8l:_GetDpi_Start_m1085642706
$id:__ZN22ParticleSystemRenderer15InitializeClassEv
yvr:_Time_get_unscaledDeltaTime_m4281640537
Ell:_XmlSerializationWriter_CreateUnknownTypeException_m2812151732
amb:__Z29StdTemplateConversionFunctionIybEbPvR14SafeBinaryRead
mMb:__ZNSt3__26vectorIN15QualitySettings14QualitySettingENS_9allocatorIS2_EEE6assignIPS2_EENS_9enable_ifIXaasr21__is_forward_iteratorIT_EE5valuesr16is_constructibleIS2_NS_15iterator_traitsIS9_E9referenceEEE5valueEvE4typeES9_S9_
e5j:_PlayServiceExample_ResetAllAchievements_m1088054512
h$k:_WallHackDetector_StopControllerModule_m1149340067
jHd:__Z15raycast_capsuleRKN5physx10PxGeometryERKNS_11PxTransformERKNS_6PxVec3ES8_fNS_7PxFlagsINS_9PxHitFlag4EnumEtEEjPNS_12PxRaycastHitEbPFbRSD_PvESG_
I0i:_SymmetricAlgorithm_set_Key_m2973350820
jNi:_DateTime_ToLongDateString_m4037461875_AdjustorThunk
lLi:_DateTime_System_IConvertible_ToByte_m2670443498_AdjustorThunk
_4t:_GC_push_roots
$ia:__Z16AsyncReadRequestP16AsyncReadCommand
Ldo:__Z100RuntimeInvoker_Void_t1841601450_Il2CppObject_Il2CppObject_Il2CppObject_SByte_t454417549_Il2CppObjectPK10MethodInfoPvPS2_
Mio:__Z101RuntimeInvoker_Void_t1841601450_Il2CppObject_Single_t2076509932_Single_t2076509932_Single_t2076509932PK10MethodInfoPvPS2_
PNe:__ZNK5physx34PxsSolverConstraintPostProcessTask7getNameEv
Mtg:__ZL77MaskableGraphic_t540192618_CustomAttributesCacheGenerator_m_ShouldRecalculateP21CustomAttributesCache
poo:__Z110RuntimeInvoker_Boolean_t3825574718_Vector2_t2243707579_Vector2_t2243707579_Single_t2076509932_SByte_t454417549PK10MethodInfoPvPS2_
pUp:_XmlComment_CloneNode_m3633446433
RAd:__ZN5physx2Gu23distancePointBoxSquaredERKNS_6PxVec3ES3_S3_RKNS_7PxMat33EPS1_
q3e:__ZN5physx9NpPhysics20MeshDeletionListener28onGuMeshFactoryBufferReleaseEPKNS_6PxBaseEtb
JRn:_EnumBuilder_CreateNotSupportedException_m62763134
W1j:_PhotonView_get_prefix_m723691679
jtk:_X509Chain_CheckRevocation_m2480313486
NZi:_RijndaelManagedTransform_TransformBlock_m2558865851
$be:__ZNK5physx2Sc9ClothCore24getLinearDragCoefficientEv
fVb:__ZN9InputAxis8TransferI14SafeBinaryReadEEvRT_
jga:__ZNK21ExecutionOrderManager30GetCustomAwakeFromLoadQueueForEPKN5Unity4TypeE
ioe:__ZNK5physx7NpScene9getActorsENS_7PxFlagsINS_15PxActorTypeFlag4EnumEtEEPPNS_7PxActorEjj
A4t:_GC_hblk_fl_from_blocks
H3o:_InputToEvent_Press_m124478341
$ve:__ZN5physx11NodeManagerD0Ev
i5k:_ObscuredPrefs_EncryptDoubleValue_m2562157088
CPj:_UIPanel_IsVisible_m2318422237
Pau:__ZN6il2cpp2os20ThreadLocalValueImpl8SetValueEPv
Nnq:_AN_PlusShareBuilder__ctor_m879615039
UKk:_Scheduler_Remove_m1930366072
n3k:_ObscuredInt_Encrypt_m186413016
fBu:_emscripten_glGetProgramiv__wrapper
pfn:_Mesh_GetIndices_m3085881884
Lds:_Bounds_get_size_m1728027642_AdjustorThunk
NIq:_RealProxy__ctor_m3041043303
Ybp:_IOSSocialManager_add_OnInstagramPostStart_m1315261440
hJn:_NumberFormatter_Init_m2654758994
uYi:_HMACSHA1__ctor_m1168389339
cuh:_LinkedList_1_OnDeserialization_m264209791_gshared
rnu:__ZNSt3__214__split_bufferIPNS_6locale5facetERNS_15__sso_allocatorIS3_Lj28EEEEC2EjjS6_
c7s:_Transform_Rotate_m2449860094
Kxu:_glBindRenderbuffer__wrapper
S5k:_ObscuredPrefs_EncryptColorValue_m2212218272
W0s:_Nullable_1_GetHashCode_m1859855859_AdjustorThunk
z_:__ZN10ObjectPoolIN4FMOD12ChannelGroupENS0_13ChannelGroupIEE7SetSizeEi
jou:__ZNSt3__212basic_stringIwNS_11char_traitsIwEENS_9allocatorIwEEED2Ev
CVp:_XmlNameEntryCache__ctor_m1259255839
jim:_PrimalityTest_BeginInvoke_m966469054
GIl:_UITexture_get_fixedAspect_m525979187
Cat:_WWW_get_bytes_m420718112
xQk:_UInt64_System_IConvertible_ToInt16_m2797150165_AdjustorThunk
CSo:_ServerSettings_UseCloud_m157779495
LPp:_Array_InternalArray__get_Item_TisLabelData_t3712112744_m863115768_gshared
Pvm:_Int32_Parse_m753946802
Oqd:__ZN19CollisionListener2D15ProcessContactsEP10Collider2Db
Dnc:__ZN9Polygon2D7SetPathEiRK13dynamic_arrayI8Vector2fLj4EE
kZr:_CompareFunc_Invoke_m904967272_gshared
z6o:_IOSInAppPurchaseManager_remove_OnStoreKitInitComplete_m856715212
Lim:_BitConverterLE_GetULongBytes_m337364860
$K:__ZN15SerializeTraitsINSt3__24pairI8StateKey10StateRangeEEE8TransferI14SafeBinaryReadEEvRS4_RT_
Ggn:_Object_DoesObjectWithInstanceIDExist_m2570795274
wVn:_UnmanagedMarshal_ToMarshalAsAttribute_m3695569337
i9d:__ZNK5physx7NpCloth25getMotionConstraintConfigEv
E3b:__Z14resize_trimmedINSt3__26vectorI17AnimationCurveTplIfE13stl_allocatorIS3_L18MemLabelIdentifier1ELi16EEEEEvRT_j
ngb:__ZN25CameraStackRenderingState19SetupLastEyeCamerasERK11CameraStack
Sub:__Z12GUIDToStringRK9UnityGUID
rZt:__ZN6il2cpp6icalls8mscorlib6System4Enum12get_hashcodeEP12Il2CppObject
EW:__ZN11SoundHandleC2ERKS_
DZs:_ScreenBaseConroller_1_GetTwoTextPlate_m3992418260_gshared
Kfs:_Canvas_get_targetDisplay_m316548313
CK:__ZN18AnimatorController23VirtualRedirectTransferER18StreamedBinaryReadILb0EE
Qhm:_BigInteger_op_Addition_m1196561843
QSg:__ZL65ExampleDragDropSurface_t2585250672_CustomAttributesCacheGeneratorP21CustomAttributesCache
LLt:__ZN13Il2CppHashMapINSt3__24pairIPK9EventInfoP11Il2CppClassEEj17ReflectionMapHashIS7_ENS0_8equal_toIS7_EENS0_9allocatorINS1_IK10KeyWrapperIS7_EjEEEEEC2EjRKS9_RKSB_
eEq:_FormatterData__ctor_m3974986124
LDr:_GameroomFacebookGameObject_WaitForResponse_m304313699
vq:FUNCTION_TABLE_vifiiiiiii
MZi:_RijndaelManagedTransform_get_CanReuseTransform_m3735256596
g9p:_XsollaStatusData__ctor_m3408711553
$Id:__ZN5physx3Cct26CharacterControllerManager24setOverlapRecoveryModuleEb
BJ:__ZN8Animator22OnGraphTopologyChangedEP8Playablei
_ym:_MonoIO_ExistsFile_m1421941572
ANi:_DateTime_op_GreaterThanOrEqual_m3818963848
AH:__ZN17AnimationPlayable18DeallocateBindingsEv
lvh:_Enumerator_get_Current_m2477539897_AdjustorThunk
huj:_DefaultControls_SetDefaultTextValues_m1707718380
hqj:_TouchInputModule_UseFakeInput_m2112019004
jmj:_EventSystem_get_baseEventDataCache_m4294741599
oMr:_Selectable_IsInteractable_m3245596965
RAb:__ZN14RenderSettings18TransferDeprecatedI14SafeBinaryReadEEvRT_
fdd:__Z9UpdateTplIL27ParticleSystemCurveEvalMode3EEvRK11MinMaxCurveS3_S3_R23ParticleSystemParticlesjjbRKN4math8float3x3ERKNS6_7_float4E
kal:_ObscuredVector2__ctor_m1524988385_AdjustorThunk
DQo:_SA_DataConverter_ParseArray_m3684597589
Pjr:_Quaternion_op_Multiply_m1483423721
omr:_RectOffset_get_top_m3629049358
xhl:_XmlReflectionImporter_ImportEnumMapping_m1135438990
ZTo:_JSONClass__ctor_m2824783081
bTr:_XsdHexBinary__ctor_m2246926173
daa:__ZN12TLSAllocatorI14StackAllocatorE8AllocateEji
hha:__ZN16ScriptingManager18GetMonoScriptCacheEi
g7m:_GUIStyle_get_stretchHeight_m3396762700
Mcu:_wcslen
qut:__ZN13dynamic_arrayIPK10Il2CppTypeLj4EEC2ERKS3_
Urt:__ZN15dense_hashtableINSt3__24pairIK10KeyWrapperIPK11Il2CppClassEPKcEES6_N6il2cpp5utils11PointerHashIS3_EEN14dense_hash_mapIS6_S9_SE_NS6_14EqualsComparerINS0_8equal_toIS5_EEEENS0_9allocatorISA_EEE9SelectKeyESJ_SL_E15set_deleted_keyERKSA_
nyj:_GridLayoutGroup_CalculateLayoutInputHorizontal_m2355123124
kbd:__Z19UpdateProceduralTplIL27ParticleSystemCurveEvalMode0EEvRK22DualMinMax3DPolyCurvesRK11MinMaxCurveS6_S6_R23ParticleSystemParticlesRKN4math8float3x3Eb
p2b:__Z18Transfer_BlittableI14SafeBinaryReadLb1EyEvRK29SerializationCommandArgumentsR31RuntimeSerializationCommandInfo
icd:__ZNSt3__27__sort5IR31SortCollisionEventsByGameObjectP22ParticleCollisionEventEEjT0_S5_S5_S5_S5_T_
L2k:_ObscuredFloat_SetEncrypted_m3501686155
Zfk:_TypedLobby__ctor_m1561567405
ils:_Event_get_shift_m1229469022
X3q:_Enumerator_System_Collections_IEnumerator_Reset_m3690677723_AdjustorThunk
Wnu:__ZNSt3__212basic_stringIcNS_11char_traitsIcEENS_9allocatorIcEEE6appendEPKcj
QBf:__ZL54TypeBuilder_t3308873219_CustomAttributesCacheGeneratorP21CustomAttributesCache
V9d:__ZN5physx7NpCloth25setSelfCollisionStiffnessEf
y4h:_Collection_1_CheckWritable_m691269733_gshared
OAq:_PaymentListScreenController_SetCountries_m2088861234
WFn:_ServicePoint_GetConnectionGroup_m2232740970
lSn:_GenericTypeParameterBuilder_GetAttributeFlagsImpl_m3338182267
a6:__ZN13Simd4iFactoryIN6detail9FourTupleEEC2Eiiii
dEm:_SynchronizedReader__ctor_m1408327515
wlc:_int_downsample
iGs:_ReadOnlyCollection_1_System_Collections_IList_Clear_m1858417639_gshared
J5j:_PlayServicFridnsLoadExample_New_OnFriendListLoaded_m1731558852
_$a:__ZZ23InitPlayerLoopCallbacksvEN38PostLateUpdateShaderHandleErrorsstruct7ForwardEv
Dzr:_Constants_get_DebugMode_m550911271
wJb:__ZN15SerializeTraitsI33EnlightenTerrainChunksInformationE8TransferI14SafeBinaryReadEEvRS0_RT_
gtd:__ZN6b2Body12SetTransformERK6b2Vec2f
Auc:__ZNK32RendererMaterialAnimationBinding9BindValueER6ObjectRKN11UnityEngine9Animation14GenericBindingERNS3_10BoundCurveE
RGt:__ZN15dense_hashtableINSt3__24pairIK10KeyWrapperIPK10Il2CppTypeEjEES6_N6il2cpp8metadata14Il2CppTypeHashEN14dense_hash_mapIS6_jSB_NS6_14EqualsComparerINSA_26Il2CppTypeEqualityComparerEEENS0_9allocatorIS8_EEE9SelectKeyESF_SH_E4findERS7_
R2n:__Z112RuntimeInvoker_Int32_t2071877448_Il2CppObject_Int32_t2071877448_Int32_t2071877448_Il2CppObject_Int32_t2071877448PK10MethodInfoPvPS2_
KRb:__Z13GetIAnimationv
xDa:__ZL18stbir__support_onef
_Mm:_Parser_get_NextToken_m1870177949
aYl:_WorkerMenu_OnPhotonCreateRoomFailed_m3549972061
UHh:_List_1_System_Collections_IList_Remove_m2040310137_gshared
Z4q:_Enumerator_System_Collections_IDictionaryEnumerator_get_Entry_m2429064364_AdjustorThunk
VBg:__ZL127GoogleProductTemplate_t1112616324_CustomAttributesCacheGenerator_GoogleProductTemplate_t1112616324____originalJson_PropertyInfoP21CustomAttributesCache
Mfd:__ZN14VelocityModuleD2Ev
uva:__ZNSt3__26vectorIN4core12basic_stringIcNS1_20StringStorageDefaultIcEEEE13stl_allocatorIS5_L18MemLabelIdentifier1ELi16EEE6assignINS_11__wrap_iterIPS5_EEEENS_9enable_ifIXaasr21__is_forward_iteratorIT_EE5valuesr16is_constructibleIS5_NS_15iterator_traitsISF_E9referenceEEE5valueEvE4typeESF_SF_
xsu:dynCall_iiiifii
CPk:_UInt32_System_IConvertible_ToInt16_m2251335934_AdjustorThunk
Cpf:__ZNSt3__27__sort5IRNS_6__lessIN2UI14DepthSortEntryES3_EEPS3_EEjT0_S7_S7_S7_S7_T_
pst:__ZN14dense_hash_mapI10KeyWrapperIPKcEP11Il2CppClassN6il2cpp5utils11StringUtils12StringHasherIS2_EENS3_14EqualsComparerINS8_21CaseSensitiveComparerEEENSt3__29allocatorINSE_4pairIKS3_S5_EEEEE13set_empty_keyERSH_
nZn:__Z31RuntimeInvoker_Void_t1841601450PK10MethodInfoPvPS2_
$1t:_WriteZStream
T9e:_UNITY_FT_DivFix
j0s:_Nullable_1_get_Value_m764562218_gshared
Yas:_Application_ObjectToJSString_m602192936
$a:invoke_vdd
lq:FUNCTION_TABLE_fiii
lO:__ZN14SafeBinaryRead21TransferSTLStyleArrayI19StaticArrayTransferIiLi15EEEEvRT_17TransferMetaFlags
Wus:_Marshal_WriteByte_m2971909611
pq:FUNCTION_TABLE_fiif
zjt:__ZL24UnresolvedVirtualCall_79P12Il2CppObjectPK10MethodInfo
qwr:_Utilities_ToStringNullOk_m839901937
Grc:__ZNK30SpriteRendererAnimationBinding12GetPPtrValueERKN11UnityEngine9Animation10BoundCurveE
riu:__ZNKSt3__220__time_get_c_storageIcE7__am_pmEv
RKk:_Scheduler_Add_m376749205
G9t:__ZN6il2cpp6icalls8mscorlib4Mono8Security12Cryptography18KeyPairPersistence19_IsMachineProtectedEP12Il2CppString
$Wt:__ZN15dense_hashtableINSt3__24pairIK10KeyWrapperINS1_IPKcS4_EEEiEES6_24NamespaceAndNamePairHashN14dense_hash_mapIS6_iS9_NS6_14EqualsComparerI26NamespaceAndNamePairEqualsEENS0_9allocatorIS8_EEE9SelectKeyESD_SF_E12resize_deltaEjj
tNm:_ANNativeEventsExample_OnStop_m1728690319
SZg:__ZL87UIFont_t389944949_CustomAttributesCacheGenerator_UIFont_t389944949____size_PropertyInfoP21CustomAttributesCache
Ctc:__Z14RandomRotationP9Texture2DPhiiii
a2e:__ZThn132_N5physx7profile8ZoneImplINS_28PxProfileNameProviderForwardEED1Ev
xhk:_Sprite__ctor_m1706986046
I$s:_Nullable_1_Equals_m4083728267_gshared
FYp:_XmlInputStream__ctor_m1121285645
vOh:_List_1_System_Collections_IList_Insert_m2036969360_gshared
NBj:_InputField_GetUnclampedCharacterLineFromPosition_m1912794077
QHp:_GUIView__ctor_m1107820165
Wqr:_SpaceAttribute__ctor_m1444406696
a3l:_GameCenterManager_ResetStoredProgress_m1048458878
Hoe:__ZN5physx7NpScene27setCCDContactModifyCallbackEPNS_26PxCCDContactModifyCallbackE
_hk:_UIButton_OnEnable_m1180961805
Q8t:__ZN6il2cpp2os12Cryptography23GetCryptographyProviderEv
LZm:_AnimatorControllerPlayable_GetInteger_m3742708739
KFr:_MobileFacebookGameObject_OnAppInviteComplete_m1896164414
qVe:__ZNK5physx17ConvexHullBuilder17ComputeGeomCenterERNS_6PxVec3E
Azs:_ReadOnlyCollection_1_System_Collections_IList_Clear_m409987920_gshared
KZs:_ScreenBaseConroller_1_GetHelp_m3504579572_gshared
ani:_NGUIText_GetGlyphWidth_m3445447203
GNt:__ZNSt3__214__split_bufferIN6il2cpp8metadata18GenericArrayMethodERNS_9allocatorIS3_EEED2Ev
FDe:__ZN3MBPD0Ev
mNa:__ZN4gles14UseGLSLProgramER15DeviceStateGLESjbij
_4m:_GUI_set_enabled_m1897336325
ahu:__ZNKSt3__27num_getIcNS_19istreambuf_iteratorIcNS_11char_traitsIcEEEEE15__do_get_signedIlEES4_S4_S4_RNS_8ios_baseERjRT_
oMc:__Z50Register_UnityEngine_Camera_INTERNAL_get_pixelRectv
b0l:_GameCenter_RTM_OnMatchFailed_m2154238369
Qrs:_Uri_GetInt_m1220038581
jis:_Color_GetHashCode_m3182525367
cya:__ZN6prcoreL18BlitFloatToIntegerERK14ImageReferenceRS0_
wFn:_HttpWebRequest_get_InternalAllowBuffering_m4029180298
Tnm:_X509CertificateCollection_get_Item_m410866272
Sbo:__Z115RuntimeInvoker_Il2CppObject_Il2CppObject_Il2CppObject_Int32_t2071877448_Int32_t2071877448_Il2CppObject_Il2CppObjectPK10MethodInfoPvPS2_
Cyp:_GooglePlayManager_Awake_m2665671540
hPo:_Room_SetCustomProperties_m2887338922
Ore:__ZNK5physx10PxsContext18getBounceThresholdEv
Hyj:_LayoutGroup_SetChildAlongAxis_m1615929339
Lxc:__ZNK6Camera18ViewportPointToRayERK8Vector2f
OBj:_InputField_GetCharacterIndexFromPosition_m4182915465
B0t:__ZN6il2cpp2os6ThreadC2Ev
Qme:__ZN5physx6shdfnd5ArrayIPvNS0_15InlineAllocatorILj256ENS0_19ReflectionAllocatorINS_2Gu31SpherePersistentContactManifoldEEEEEE15growAndPushBackERKS2_
XPe:__ZN5physx2Cm18DelegateFanoutTaskINS_2Sc5SceneEXadL_ZNS3_17finalizationPhaseEPNS_10PxBaseTaskEEEE11runInternalEv
YN:__ZN6Avatar8TransferI14SafeBinaryReadEEvRT_
OB:__ZN11UnityEngine9Animation40SetFlattenedSkeletonTransformsMainThreadER9TransformRKNS0_21AvatarBindingConstantEb
vda:__ZNSt3__26vectorI20ProcessCallbackGroupNS_9allocatorIS1_EEEC2ERKS4_
rJ:__ZN17AnimationPlayable28UpdateInternalStateRecursiveILi1ELb0EEEvPK35AnimationPlayableEvaluationConstant
Fb:invoke_vifff
AOc:__Z41Register_UnityEngine_GameObject_set_layerv
Btr:_TextEditor_FindStartOfNextWord_m2609021395
Gvi:_Byte_System_IConvertible_ToInt16_m1575115635_AdjustorThunk
C$d:__ZN5physx6shdfnd15atomicDecrementEPVi
Jg:_emscripten_request_fullscreen
$Uj:_UISpriteData_CopyFrom_m457733752
j9:__ZN20LocalFileSystemWebGL6DeleteER13FileEntryDatab
cPi:_Decimal_System_IConvertible_ToUInt16_m1621568250
Lg:_emscripten_glDisableVertexAttribArray
fq:FUNCTION_TABLE_iiiifiiii
ZSc:__Z23PlayerPrefs_CUSTOM_Savev
PLk:_TimeSpan_get_TotalMinutes_m1645177229_AdjustorThunk
kcl:_XmlSchemaDatatype__ctor_m1277848188
q3k:_ObscuredInt_ApplyNewCryptoKey_m1735472469_AdjustorThunk
zd:invoke_fifffi
Pmi:_NGUIMath_AdjustByDPI_m2342209442
mOa:__ZN4gles23ClearCurrentFramebufferEP7ApiGLESbbbRK10ColorRGBAffi
lI:__ZN7mecanim12statemachine20CreateStateWorkspaceEjjjRNS_6memory9AllocatorE
Gsf:__Z64Register_UnityEngine_CanvasRenderer_SplitIndiciesStreamsInternalv
YUe:__ZN5physx2Gu11HeightField13releaseMemoryEb
Xg:_emscripten_glDeleteObjectARB
$Pa:__Z14DecompressDXT3iiiPKjPj
oHb:_decode_mcu_AC_refine
gFm:_UnexceptionalStreamReader_Read_m3839775235
Idt:_ChatClient__ctor_m1227964248
Vad:__ZN12LightsModule5StartER23ParticleSystemParticlesjj
BRo:_SavedGamesExample_ActionNewGameSaveRequest_m2583634435
dza:__ZN6prcoreL17RemapGenericFloatI17TexFormatRGBAHalf18TexFormatARGBFloatEEvPKNS_9InnerInfoE
wSi:_Enum_System_IConvertible_ToInt32_m2459904362
F_c:__ZNK8GUIStyle21DrawWithTextSelectionER8GUIStateRK5RectTIfER10GUIContentbbbbbiiRK10ColorRGBAfSA_
T_c:__Z14GetBuiltinSkini
vFk:_DecoderReplacementFallbackBuffer_Reset_m2576819665
LCi:_Enumerator__cctor_m298562758
Ono:__Z213RuntimeInvoker_Void_t1841601450_Il2CppObject_Il2CppObject_Il2CppObject_Il2CppObject_Il2CppObject_Il2CppObject_Il2CppObject_Il2CppObject_Il2CppObject_Il2CppObject_Il2CppObject_Il2CppObject_Il2CppObject_Il2CppObjectPK10MethodInfoPvPS2_
dUs:_Enumerator_System_Collections_IEnumerator_Reset_m2573763156_gshared
qHm:_MonoType_GetConstructors_internal_m2709619723
en:_JS_SystemInfo_GetBrowserVersionString
zjc:__ZN2UI13RectTransform23VirtualRedirectTransferER14SafeBinaryRead
D4s:_InvokableCall_1__ctor_m54675381_gshared
qpe:__ZN5physx7NpScene17flushQueryUpdatesEv
bni:_NGUIText_GetGlyph_m2650405327
C2:__ZZL31InitializeAudioManagerCallbacksvEN33FixedUpdateAudioFixedUpdatestruct7ForwardEv
egc:__ZNSt3__26vectorIN9ShaderLab20SerializedSubProgramENS_9allocatorIS2_EEE6assignIPS2_EENS_9enable_ifIXaasr21__is_forward_iteratorIT_EE5valuesr16is_constructibleIS2_NS_15iterator_traitsIS9_E9referenceEEE5valueEvE4typeES9_S9_
tMp:_Dictionary_2_Do_ICollectionCopyTo_TisConnectionProtocol_t3211808698_m569794940_gshared
iKp:_Array_Sort_TisKeyValuePair_2_t38854645_TisKeyValuePair_2_t38854645_m2600216497_gshared
wlb:__ZN17PersistentManagerC2Eii
_hd:__ZZN14ParticleSystem15InitializeClassEvEN46PostLateUpdateParticleSystemEndUpdateAllstruct7ForwardEv
H0c:__Z46Register_UnityEngine_GUI_get_usePageScrollbarsv
xfl:_XmlArrayAttribute_AddKeyHash_m4117966429
cSp:_XmlTypeSerializationSource_Equals_m855266782
hac:__ZL17Transfer_GUIStyleI18StreamedBinaryReadILb1EELb0EEvRK29SerializationCommandArgumentsR31RuntimeSerializationCommandInfo
mji:_NetworkingPeer_RebuildPlayerListCopies_m1770856082
Rwq:_ActivePurchase_U3CGetMergedMapU3Em__1_m1253362235
fMl:_UM_AdManager_GoogleMobileAdInterstitialSubscribe_m1597750590
yoc:__ZN11TypeManager20RegisterNonClassTypeEiP4RTTIPKcS3_
yIn:_ServicePointManager_get_SecurityProtocol_m1763625218
Ipe:__ZN5physx7NpScene10unlockReadEv
Eni:_NGUIText__cctor_m3924362552
tec:__ZN9ShaderLab14SerializedPass8TransferI14SafeBinaryReadEEvRT_
P0c:__Z71Register_UnityEngine_GUILayoutUtility_INTERNAL_CALL_Internal_MoveWindowv
u2:__ZN12AudioManager16SetListenerPauseEb
TBu:_glDisable__wrapper
epd:__ZNSt3__26__sortIRN10ClipperLib12LocMinSorterEPNS1_12LocalMinimumEEEvT0_S6_T_
tPl:_UM_GameServiceManager__cctor_m2286105003
rQt:__ZN6il2cpp2vm9Exception25RaiseOutOfMemoryExceptionERKNS_5utils10StringViewIDsEE
zju:__ZNKSt3__28time_putIwNS_19ostreambuf_iteratorIwNS_11char_traitsIwEEEEE6do_putES4_RNS_8ios_baseEwPK2tmcc
kVp:_XmlDeclaration_set_Encoding_m3669560264
y1h:_Collection_1_IsValidItem_m2254106115_gshared
pRn:_TypeBuilder_GetEvent_m3876348075
ins:_Parser_ParseDecimal_m4127410766
vNr:_Slider_OnMove_m641164662
xc:invoke_viiiiiiiiiii
Rbu:___syscall_ret
VKk:_Scheduler__ctor_m3716265742
Ukm:_MACAlgorithm_Final_m4076939925
Ebm:_GoogleAnalyticsClient_SetTransactionRevenue_m3794014842
G1l:_GameCenter_TBM_OnLoadMatchResultFailed_m2442080152
aut:__ZN15dense_hashtableI10KeyWrapperIPK17Il2CppGenericInstES4_N6il2cpp8metadata21Il2CppGenericInstHashEN14dense_hash_setIS4_S7_NS4_14EqualsComparerINS6_24Il2CppGenericInstCompareEEENSt3__29allocatorIS4_EEE8IdentityESB_SE_E6insertERKS4_
Pq:FUNCTION_TABLE_iiifffi
Jnc:__ZN14qsort_internal30FindAndMovePivotToLastPositionIP8Vector2fi26PointDistanceSortPredicateEEvT_S4_T0_T1_
rgs:_CanvasRenderer_SetTexture_m2394798173
rNb:__ZN11ChannelInfo8TransferI19StreamedBinaryWriteILb0EEEEvRT_
HOq:_InternalEnumerator_1_System_Collections_IEnumerator_get_Current_m3583252352_gshared
YJi:_Convert_ToString_m3058299767
cUn:_ModuleBuilder_getToken_m972612049
_Zb:__ZN23ArchiveStorageConverter24ReadHeaderFromMemoryFileEv
KPj:_UIPanel_ParentHasChanged_m3769646157
W0r:_List_1_System_Collections_IList_Contains_m2033159042_gshared
SQn:_EnumBuilder_get_FullName_m2818393911
kbe:__ZN5physx2Sc9ClothCore22setFrictionCoefficientEf
_yu:_emscripten_glLineWidth__wrapper
m7a:__ZN14qsort_internal13Partition3WayIP17RODataReplacementi19ROSorterReplacementEENSt3__24pairIT_S6_EES6_S6_T0_T1_
i5d:__ZNK5physx9NpPhysics17getNbConvexMeshesEv
K3o:_InRoomChat_Start_m1889460037
dpe:__ZNK5physx7NpScene29getContactCorrelationDistanceEv
ZOc:__Z34Register_UnityEngine_Gradient_Initv
QGq:_DictionaryEnumerator_get_Entry_m1597857786
JCl:_Dictionary_2_ContainsKey_m3321918434_gshared
R7c:__ZN13InitialModule8TransferI17RemapPPtrTransferEEvRT_
Jlj:_BaseInputModule_GetAxisEventData_m3903709281
iEf:__ZL53_Activator_t3825585294_CustomAttributesCacheGeneratorP21CustomAttributesCache
Rfm:_SimpleCollator_CompareQuick_m619038530
xKp:_Array_Sort_TisIl2CppObject_m1954851512_gshared
cSm:_AudioObject__ApplyVolumeBoth_m4049634952
Xgn:_BigInteger__ctor_m3239748086
G8:__ZN13ScreenManager23SetIsOrientationEnabledE18EnabledOrientationb
e$l:_GameDataExample_get_coins_m3126471336
zu:__ZN9Animation13AwakeFromLoadE17AwakeFromLoadMode
OUj:_UISpriteAnimation_RebuildSpriteList_m2955318352
pKb:__ZN12LineRenderer23VirtualRedirectTransferER24GenerateTypeTreeTransfer
UD:__ZN7mecanim5human25HumanPoseAddOverrideLayerERNS0_9HumanPoseERKS1_fRKNS_6bitsetILj70EEE
Eme:__ZN5physx16PxsIslandManager16clearEdgeRigidCMERKNS_20PxsIslandManagerHookIjLj4294967295EEE
Whl:_XmlTextAttribute_get_DataType_m3998979069
wqc:__ZN13ProduceHelperI9TransformLb0EE7ProduceE18MemLabelIdentifier18ObjectCreationMode
uLo:_ProfileScene_OnImageSaved_m2188980857
I2c:__Z45Register_UnityEngine_GUIStyle_GetFontInternalv
saq:_XsollaPaystation_ChooseItem_m2243285032
FKd:__ZN5physx6shdfnd8SyncImpl4waitEj
rGn:_HttpWebRequest_CheckAuthorization_m350356356
g0j:_PhotonNetwork_Destroy_m2254045600
P$o:_TPeer_InitPeerBase_m979720733
pRt:__ZN6il2cpp6icalls8mscorlib6System4Type29GetGenericTypeDefinition_implEP20Il2CppReflectionType
wDq:_ShopViewController_SetTitle_m4120372973
d2p:_StringUtil_Format_m2161804738
Fkm:_SmallXmlParser_IsNameChar_m1561000202
Sej:_Array_InternalArray__ICollection_Add_TisHitInfo_t1761367055_m2956071622_gshared
_4c:__ZN33SizeBySpeedModulePropertyBindings13GetFloatValueERK14ParticleSystemi
$ib:__ZN10GameObject23VirtualRedirectTransferER18StreamedBinaryReadILb0EE
HHm:_MonoType_HasElementTypeImpl_m1040892148
oi:_glFrontFace
Nvt:__ZNK15dense_hashtableINSt3__24pairIK10KeyWrapperIPK11Il2CppClassEPKcEES6_N6il2cpp5utils11PointerHashIS3_EEN14dense_hash_mapIS6_S9_SE_NS6_14EqualsComparerINS0_8equal_toIS5_EEEENS0_9allocatorISA_EEE9SelectKeyESJ_SL_E13find_positionERS7_
Elc:_rgb_rgb_convert
XLq:_ObjectRecord_get_IsUnsolvedObjectReference_m2202692850
QKc:__Z46Register_UnityEngine_SystemInfo_get_deviceNamev
gwk:_FactoryCache_Cleanup_m4130035987
M1k:_ObscuredDouble__ctor_m735315912
sAq:_PaymentFormController_RemoveLinkButtonWebGL_m687476519
xds:_Behaviour_set_enabled_m1796096907
O7c:__ZN14ParticleSystem8TransferI17RemapPPtrTransferEEvRT_
rrp:_EventDelegate_set_methodName_m192248011
kR:__ZN26AnimatorControllerPlayable14SetLayerWeightEif
ypc:__ZN13ProduceHelperI19LowerResBlitTextureLb0EE7ProduceE18MemLabelIdentifier18ObjectCreationMode
Fsl:_ValueCollection_System_Collections_Generic_ICollectionU3CTValueU3E_Clear_m4184581491_gshared
Xqe:__ZN5physx13NpVolumeCache17getNbCachedShapesEv
zcb:__ZNSt3__26vectorI16ShadowCasterData13stl_allocatorIS1_L18MemLabelIdentifier2ELi16EEE21__push_back_slow_pathIKS1_EEvRT_
dAt:__ZN6il2cpp6icalls8mscorlib6SystemL16GetFieldFromTypeINS_5utils10functional6FilterINSt3__212basic_stringIcNS7_11char_traitsIcEENS7_9allocatorIcEEEENS4_11StringUtils23CaseInsensitiveComparerEEEEEP21Il2CppReflectionFieldP11Il2CppClassSK_iRKT_
Cbp:_IOSRateUsPopUp_onPopUpCallBack_m3239341610
_Dt:__ZN6il2cpp2os4File4OpenERKNSt3__212basic_stringIcNS2_11char_traitsIcEENS2_9allocatorIcEEEEiiiiPi
gQk:_UInt32_ToString_m1783596809
Yjj:_Array_qsort_TisBoolean_t3825574718_m34222095_gshared
aof:__Z51Register_UnityEngine_TextGenerator_GetLinesInternalv
_Us:_HashSet_1_Init_m1258286688_gshared
Vnm:_X509CertificateEnumerator_System_Collections_IEnumerator_get_Current_m1643583406
INs:_X509ExtensionCollection_get_Item_m4212651995
mad:__Z8EvaluateRK11MinMaxCurveRKN4math7_float4ES5_
Fi:_strftime_l
uya:__ZN6prcoreL17RemapGenericFloatI17TexFormatRGBFloat18TexFormatRGBAFloatEEvPKNS_9InnerInfoE
nGn:_HttpWebRequest_HandleNtlmAuth_m3359114285
f4k:_ObscuredLong_op_Implicit_m755385481
zse:__ZN5physx2Sc5Scene15getRenderBufferEv
Bki:_NetworkingPeer_OpCleanRpcBuffer_m3357762889
WMo:_QuestAndEventsExample_OnPlayerConnected_m1439912480
zmm:_StrongName_get_PublicKeyToken_m1968460885
YNk:_Type_get_IsGenericTypeDefinition_m2147901038
Vpm:_GregorianCalendar__ctor_m3794576475
dtq:_WP8AdMobController_Awake_m849052930
GEi:_ListKeys_get_Count_m1709580350
bQk:_UInt32_TryParse_m4283512434
N0h:_Collection_1_ConvertItem_m1521356246_gshared
n$b:__ZN13MonoBehaviour23VirtualRedirectTransferER19StreamedBinaryWriteILb0EE
vW:__ZN9AudioClip11CreateSoundEv
M$j:_PhotonNetwork_JoinRoom_m3148783871
Jer:_ShimEnumerator_MoveNext_m3313047792_gshared
pTo:_ShowBoostBtns__cctor_m1895958433
l2h:_Collection_1_ConvertItem_m2185647560_gshared
xMk:_TimeSpan_op_Inequality_m257547441
AJk:_ExecutionContext_GetObjectData_m1456913356
aMt:__ZN14dense_hash_mapI10KeyWrapperINSt3__24pairIPK9FieldInfoP11Il2CppClassEEEj17ReflectionMapHashIS8_ENS9_14EqualsComparerINS1_8equal_toIS8_EEEENS1_9allocatorINS2_IKS9_jEEEEEC2EjRKSB_RKSF_
$ar:_Enumerator_System_Collections_IEnumerator_get_Current_m2495013178_AdjustorThunk
Zfn:_Object_set_hideFlags_m2204253440
Gvq:_WP8SocialManager_TwitterPost_m72831509
$lc:__Z10tesvertLeqP10TESSvertexS0_
P7b:__Z18Transfer_BlittableI19StreamedBinaryWriteILb0EELb0E8Vector2fEvRK29SerializationCommandArgumentsR31RuntimeSerializationCommandInfo
Lrm:_DateTimeFormatInfo_get_RoundtripPattern_m562440017
h0e:__ZN14SphereCollider22FetchPoseFromTransformEv
V_a:__ZN20ArchiveStorageReader31TryToReadDirectoryFromBlockDataEyPKvj
qRi:_Double_System_IConvertible_ToByte_m3004284950_AdjustorThunk
N5t:_clear_marks_for_block
iLe:__ZNK5physx2Gu11HeightField17getHeightInternalEff
u$k:_ObscuredBool_SetNewCryptoKey_m2562305899
mTt:__ZN6il2cpp2vmL11GetIdentityEP14Il2CppIUnknown
ukm:_SmallXmlParser_ReadCDATASection_m2558307107
j5t:_GC_push_gc_structures
xoe:__ZNK5physx7NpScene22getClientBehaviorFlagsEh
CDr:_GameroomFacebook_OnLoginComplete_m1019982249
OAn:_ServicePointManager_get_ServerCertificateValidationCallback_m1409951209
P5d:__ZN5physx9NpFactory14createMaterialEfff
EEi:_Enumerator_get_Current_m1271212567
d6:__ZN5physx5cloth11PhaseConfigC2Et
U5e:__ZN13PhysicsModule21OverlapBoxUserCollectERK8Vector3fS2_RK11Quaternionfi23QueryTriggerInteractionRN8IPhysics12IUserCollectE
Ibn:_Input_set_compositionCursorPos_m1615567306
Pxm:_BinaryReader_Dispose_m4249456877
ewd:__Z41Rigidbody2D_CUSTOM_INTERNAL_CALL_AddForceP12Il2CppObjectRK13Vector2fIcallN11Rigidbody2D9ForceModeE
iid:__ZN22ParticleSystemRenderer23UpdateVertexInputLayoutEv
BBn:_IPAddress_ParseIPV6_m2209709575
hne:__ZThn8_N5physx2Sc19ShapeInstancePairLLD0Ev
iGe:__ZN5physx19PxcContactSphereBoxERKNS_2Gu13GeometryUnionES3_RKNS_11PxTransformES6_RKfRNS_10PxcNpCacheERNS0_13ContactBufferE
CVo:_EnetPeer_Disconnect_m3207520808
oss:_StrongNameKeyPair__ctor_m1022407102
QOr:_Toggle_set_group_m3833595685
cEj:_LayoutRebuilder_ForceRebuildLayoutImmediate_m566681977
Loe:__ZNK5physx7NpScene21getBroadPhaseCallbackEh
iQd:__ZN5physx6shdfnd5ArrayIPNS_12PxConstraintENS0_19ReflectionAllocatorIS3_EEE15growAndPushBackERKS3_
x_s:_U3CCreateOfTypeIteratorU3Ec__IteratorC_1_MoveNext_m2883054397_gshared
wHk:_UnicodeEncoding_GetByteCount_m2761661599
Reu:_ftell
pXd:__ZNK5physx2Sc15ArticulationSim11checkResizeEv
_ej:_Array_InternalArray__ICollection_Add_TisVector4_t2243707581_m698578249_gshared
uYr:_U3CGetEnumeratorU3Ec__Iterator0_Reset_m2560639258_gshared
JYj:_PhotonStream_SendNext_m4179565666
pso:__Z93RuntimeInvoker_Vector3_t2243707580_Vector3_t2243707580_Il2CppObject_Il2CppObject_Il2CppObjectPK10MethodInfoPvPS2_
Ldu:___strchrnul
Sea:__ZN8keywords6CreateEPKc
mBd:__ZN5physx2Gu11gjkRelativeINS0_8CapsuleVENS0_11ConvexHullVEEEjRKT_RKT0_RKNS_6shdfnd3aos15PsMatTransformVERNSB_5Vec3VESG_SG_RNSB_6FloatVE
RCl:_Dictionary_2_ToTKey_m4209561517_gshared
Qht:__ZL7log2_32j
PDq:_StatusViewController__ctor_m1440966913
l7b:__ZN24GenerateTypeTreeTransfer8TransferINSt3__26vectorI17AnimationCurveTplIfE13stl_allocatorIS4_L18MemLabelIdentifier1ELi16EEEEEEvRT_PKc17TransferMetaFlags
S:Math_imul
O8m:_GUIStyle_set_active_m2896743432
obe:__ZNK5physx2Sc9ClothCore21getNbVirtualParticlesEv
xTb:__ZN14SpriteRenderer15SetupPropertiesEv
AMb:__ZN11PlayerPrefs6GetIntERKN4core12basic_stringIcNS0_20StringStorageDefaultIcEEEEi
Mhr:_Physics_Raycast_m2036777053
IQm:_U3CTryToUploadU3Ec__AnonStorey5_U3CU3Em__0_m2344115187
znf:__Z45TextGenerator_CUSTOM_INTERNAL_get_rectExtentsP12Il2CppObjectP5RectTIfE
b0m:_PlayableHandle_Equals_m1435096530
_An:_DigestSession_HA2_m3561412987
m7i:_SetPropertyUtility_SetStruct_TisChar_t3454481338_m2333420724_gshared
kJc:__Z45Register_UnityEngine_Application_get_dataPathv
BCi:_Hashtable_ContainsKey_m2716576664
Qem:_MSCompatUnicodeTable_UInt32FromBytePtr_m340276309
s3:__ZN11AudioSource12SetAudioClipEP9AudioClip
bSc:__Z37Register_UnityEngine_Mesh_MarkDynamicv
M3k:_ObscuredInt_ToString_m3102032210
gTl:_GetFriendOnlineStatus_get_url_m3727095235
Zyk:_PatternCompiler_EmitCategory_m1696942454
vxr:_ResultContainer__ctor_m2936987629
n5c:__ZN30VelocityModulePropertyBindings13GetFloatValueERK14ParticleSystemi
oPi:_Decimal_decimalFloorAndTrunc_m3655683429
Mfj:_Array_InternalArray__ICollection_CopyTo_TisInt32_t2071877448_m984622488_gshared
oca:__ZN18ScriptingArguments9AddObjectE18ScriptingObjectPtr
Mrf:__Z39CanvasGroup_Get_Custom_PropInteractableP12Il2CppObject
J6m:_GUILayout_BeginScrollView_m3658586336
hxu:_emscripten_glStencilOpSeparate__wrapper
Yjf:_cf2_getLanguageGroup
Meq:_XsollaStatusText_GetPurchsaeValue_m3725052387
zOa:__ZN17GenericDynamicVBOC2ER9GfxDevice13GfxBufferModejj
nxs:_Context_get_HasDynamicSinks_m1998518649
$Om:_AS_Credentials_get_databaseUsername_m2286887265
$sd:__Z28GetPhysics2DScriptingClassesv
$bs:_AsyncOperation_set_priority_m3581020444
aht:_RuntimeServices_FindImplicitConversionOperator_m2511316423
Oke:__ZNK5physx2Sc5Scene7isValidEv
cPr:_Toggle_OnDidApplyAnimationProperties_m325835214
a3q:_Comparer_1_System_Collections_IComparer_Compare_m2615431023_gshared
Oqe:__ZN5physx2Sq17SceneQueryManager29setDynamicTreeRebuildRateHintEj
Ahb:__ZN6Camera16StandaloneRenderENS_10RenderFlagEP6ShaderRKN4core12basic_stringIcNS3_20StringStorageDefaultIcEEEE
GQb:__ZN19SkinnedMeshRenderer13AwakeFromLoadE17AwakeFromLoadMode
Vqi:_Array_System_Collections_IList_get_Item_m2088124007
nri:_Array_GetLength_m2083296647
W4s:_SymmetricTransform_OFB_m397918932
eMm:_AndroidRateUsPopUp_onPopUpCallBack_m1390345496
I9b:__Z18Transfer_BlittableI18StreamedBinaryReadILb1EELb1EtEvRK29SerializationCommandArgumentsR31RuntimeSerializationCommandInfo
Hdi:_LobyUI_AddCoin_m24407021
wJa:__ZN9GfxDevice20DeallocRenderSurfaceEP17RenderSurfaceBase
eWd:__ZN5physx6shdfnd5ArrayIPvNS0_19ReflectionAllocatorINS_18NpArticulationLinkEEEE4copyINS0_15InlineAllocatorILj256ES5_EEEEvRKNS1_IS2_T_EE
bSk:_ValueType_ToString_m3796301715
txd:__ZNK5physx3Cct10Controller12getKineShapeEv
rcj:_Array_InternalArray__IndexOf_TisNsScope_t2513625351_m4018836074_gshared
oRc:__Z53Register_UnityEngine_Quaternion_INTERNAL_CALL_Inversev
Saj:_Array_IndexOf_TisInt32_t2071877448_m1686802248_gshared
yOd:__ZN5physx6shdfnd4sortIPvNS0_4LessIS2_EENS0_19ReflectionAllocatorINS_2Sc18TriggerInteractionEEEEEvPT_jRKT0_RKT1_j
R4m:_GUILayoutGroup__ctor_m992523271
u0k:_ObscuredByte__cctor_m1388875331
Pwb:__ZN12BaseRenderer23RendererBecameInvisibleEv
U7i:_Enumerable_Concat_TisJsonPosition_t687338249_m490167429_gshared
Zie:__ZNK5physx2Sc8BodyCore14getMaxAngVelSqEv
D8e:__ZN20TextRenderingPrivate8FontImpl13CharacterInfo8TransferI18StreamedBinaryReadILb0EEEEvRT_
SOs:_EqualityComparer_1__cctor_m2970548167_gshared
C7b:__Z29Transfer_Blittable_ArrayFieldI24GenerateTypeTreeTransferfEvRT_R9ArrayInfoRK23StaticTransferFieldInfo
jzk:_PatternCompiler_EmitReference_m1381860071
b8n:__Z51RuntimeInvoker_Single_t2076509932_Int16_t4041245914PK10MethodInfoPvPS2_
T8k:_ObscuredUInt__cctor_m2439262123
skb:__ZN19CustomRenderTexture9AddParentE4PPtrIS_E
CLb:__ZN8Gradient8TransferI14SafeBinaryReadEEvRT_
wXs:_UnityEvent_1_Invoke_m1533100983_gshared
c8s:_Vector2_GetHashCode_m2353429373_AdjustorThunk
Z1t:_Flush
tva:__ZNSt3__26vectorIN4core12basic_stringIcNS1_20StringStorageDefaultIcEEEE13stl_allocatorIS5_L18MemLabelIdentifier1ELi16EEE7reserveEj
MPc:__Z59Register_UnityEngine_LineRenderer_INTERNAL_CALL_SetPositionv
_Bn:_FileWebRequest__ctor_m4003648606
M5l:_GameCenterManager_OnFriendListLoadedEvent_m1484716057
yxj:_Graphic_PixelAdjustPoint_m451653269
$Em:_NullTextWriter_get_Encoding_m2296593605
kVm:_AudioController_RemoveAudioItem_m2292229448
yxr:_ResultContainer_GetWebFormattedResponseDictionary_m2127455407
OLq:_ObjectIDGenerator__cctor_m3537626169
ySi:_Enum_System_IConvertible_ToSByte_m3488526280
pJr:_Selectable_OnEnable_m3825327683
yet:_ChatClient_SendAcksOnly_m3926776844
Ghl:_XmlReflectionImporter_RegisterDerivedMap_m3720593953
eSo:_ScreenScaler_Update_m4012890906
iJm:_AndroidInAppPurchaseManager_loadStore_m3475776663
Mfn:_MonoBehaviour_StopAllCoroutines_m1675795839
T1n:__Z85RuntimeInvoker_Void_t1841601450_Int32_t2071877448_Int32_t2071877448_Int32_t2071877448PK10MethodInfoPvPS2_
vbl:_ObscuredVector3_InternalDecrypt_m3861828072
hHe:__ZN5physx2Gu32PCMConvexVsMeshContactGeneration15processTriangleEPKNS_6PxVec3EjhPKj
Qwo:__Z61RuntimeInvoker_Vector2_t2243707579_ObscuredVector2_t544383870PK10MethodInfoPvPS2_
FSf:__ZL58XmlEnumAttribute_t919400678_CustomAttributesCacheGeneratorP21CustomAttributesCache
d4t:_GC_new_free_list_inner
cFl:_DefaultComparer_Equals_m85211180_gshared
c6t:_GC_exclude_static_roots_inner
WHp:_HelloPackage__ctor_m1449788523
sHm:_MonoType_InternalGetEvent_m532443236
Z4h:_Collection_1_IndexOf_m2700825189_gshared
LKe:__ZN5physx6shdfnd5ArrayINS_2Cm8Matrix34ENS0_19ReflectionAllocatorIS3_EEE15growAndPushBackERKS3_
oHe:__ZN5physx2Gu32PCMConvexVsMeshContactGeneration31generatePolyDataContactManifoldERNS0_9TriangleVEjjhPNS0_21MeshPersistentContactERjRKNS_6shdfnd3aos6FloatVERNS8_5Vec3VE
LUp:_XmlConvert_ToInt16_m1630299202
TWe:__ZN5physx10SubSortSAH5splitEPjj
M7o:_IOSInAppPurchaseManager_loadStore_m2301575177
jVr:_XmlTextReader_Expect_m3140851689
SRj:_UIPopupList_AnimatePosition_m3828712831
OCd:__ZN5physx2Gu3EPA8addFacetEjjjRKNS_6shdfnd3aos6FloatVES6_
clq:_AN_GMSRTMProxy_sendDataToAll_m214479189
sZ:__ZN12SoundManager20RegisterModifiedClipEP10SampleClip
sik:_UIButtonColor_OnEnable_m2337931700
vQb:__ZN12MeshRenderer15AddAsRenderNodeER15RenderNodeQueueRK20DeprecatedSourceData
p1n:__Z108RuntimeInvoker_Void_t1841601450_Il2CppObject_Int64_t909078037_Il2CppObject_Int64_t909078037_Int64_t909078037PK10MethodInfoPvPS2_
S$:__ZN11AudioSource4PlayEd
dYt:__ZN6il2cpp2vm6Object16GetVirtualMethodEP12Il2CppObjectPK10MethodInfo
e8j:_U3CU3Ec__Iterator1_System_Collections_IEnumerable_GetEnumerator_m3699629327
vir:_Physics2D_GetRayIntersectionAll_m2808325432
wH:__ZN22AnimationMixerPlayable11DerivesFromE17ScriptingClassPtr
wKd:__ZN5physx3Cct9CCTParamsC2Ev
E3q:_Enumerator_System_Collections_IDictionaryEnumerator_get_Value_m3722096055_AdjustorThunk
mtt:__ZN15dense_hashtableI10KeyWrapperIPK17Il2CppGenericInstES4_N6il2cpp8metadata21Il2CppGenericInstHashEN14dense_hash_setIS4_S7_NS4_14EqualsComparerINS6_24Il2CppGenericInstCompareEEENSt3__29allocatorIS4_EEE8IdentityESB_SE_E13set_empty_keyERKS4_
C$l:_GameCenter_RTM_Awake_m3488117959
L8d:__ZN5physx7NpCloth21setStiffnessFrequencyEf
OWc:__Z37Transform_CUSTOM_INTERNAL_CALL_LookAtP12Il2CppObjectRK8Vector3fS3_
tc:invoke_viidffi
dTe:__ZThn8_N5physx2Gu11HeightField14onRefCountZeroEv
Fms:_UnityEvent_Invoke_m4163344491
Qpp:_DefaultPreviewButton_Awake_m917988529
SNd:__ZN5physx2Sc5Actor9setActiveEbj
pvb:__ZNSt3__26vectorINS_4pairIiN19AssetBundleManifest15AssetBundleInfoEEENS_9allocatorIS4_EEE8__appendEj
bBd:__ZN12_GLOBAL__N_127SphereMeshContactGeneration15processTriangleEjRKN5physx6PxVec3ES4_S4_PKj
OWg:__ZL86NGUITools_t2004302824_CustomAttributesCacheGenerator_NGUITools_EncodeColor_m2793768169P21CustomAttributesCache
kRh:_List_1_CheckCollection_m2220107869_gshared
kDb:__ZN7Cubemap23VirtualRedirectTransferER18StreamedBinaryReadILb0EE
Enn:_RecordProtocol_EncodeRecord_m3884270352
O_m:_AnimatorControllerPlayable_GetNextAnimatorClipInfo_m2439552509
eRc:__ZNSt3__27__sort4IRNS_6__lessI11KeyframeTplIfES3_EEPS3_EEjT0_S7_S7_S7_T_
Flf:_Read_CVT
mOd:__ZN5physx2Sc10NPhaseCore28reserveContactReportPairDataEjjRj
_vn:_NameObjectCollectionBase_OnDeserialization_m3478980442
uKi:_Convert_ToUInt32_m776714429
sBd:__ZN5physx2Gu22barycentricCoordinatesERKNS_6shdfnd3aos5Vec3VES5_S5_RNS2_6FloatVE
PXa:__ZN12FileAccessor4SeekEx10FileOrigin
C6b:__ZL26Transfer_SimpleNativeClassI24GenerateTypeTreeTransfer17AnimationCurveTplIfELb0EEvRK29SerializationCommandArgumentsR31RuntimeSerializationCommandInfo
t5o:_IOSAdMobController_Awake_m898488174
eEt:__ZN6il2cpp2os4File5WriteEPNS0_10FileHandleEPKciPi
ecm:_GoogleAnalyticsClient_SetSocialActionTarget_m1441376237
FSo:_ServerSettings_ToString_m657578220
lVe:__ZL18TestUnifiedNormalsjPKN5physx6PxVec3EjPNS_2Gu9TriangleTIjEEb
uQo:_SA_BackButton__ctor_m1800514331
Gla:__ZN16LightmapSettings20DidChangeActiveSceneEP10UnitySceneS1_
jpk:_WebConnectionStream_EndRead_m2677870820
HNc:__Z33GUITexture_Get_Custom_PropTextureP12Il2CppObject
Uxg:__ZL59g_AssemblyU2DCSharp_Assembly_CustomAttributesCacheGeneratorP21CustomAttributesCache
vzb:__ZNK17InstancedPropInfo15RenderInstancesERK15RenderNodeQueuePK17BatchInstanceDataj17ShaderChannelMask
cVr:_XmlTextReader_SkipWhitespace_m4256246928
L_:__ZN10AudioMixer11SetupGroupsEv
vLl:_UIWrapContent_OnMove_m664260418
J$c:__Z35Register_UnityEngine_Event_get_typev
J3:__ZN20SoundChannelInstance13GetPositionMSEPj
jnn:_TlsClientFinished__ctor_m3019203717
slm:_PrivateKeyInfo_DecodeRSA_m1427048948
SLn:_Assembly_FillName_m1934025015
t1a:_UNITY_png_free
QAn:_DigestClient_get_Cache_m409674515
Yik:_UIButtonRotation_OnSelect_m2595274611
gCk:_String_IndexOf_m2126171214
$wm:_Int64_ToString_m1544341651_AdjustorThunk
ORe:__ZNK5physx13GuMeshFactory17getNbConvexMeshesEv
$sm:_Guid_CheckNull_m2903986431
Thd:__ZN14ParticleSystem15InitializeClassEv
_fa:__Z63ThreadAndSerializationSafeCheckGetMonoBehaviourBeingTransferredv
Bhi:_MobileNativeMessage_OnCompleteListener_m2504489021
udn:_Material_SetVector_m1395004512
WEj:_UIScrollView_get_canMoveVertically_m3839155970
zpn:_TlsClientCertificateVerify_ProcessAsSsl3_m3377063356
Ugr:_Transform_1_BeginInvoke_m2179239469_gshared
_qc:__ZN14LineParametersD2Ev
Bpj:_StandaloneInputModule_set_repeatDelay_m2820945738
V0r:_List_1_System_Collections_IList_IndexOf_m3492045770_gshared
pEr:_AndroidFacebook__ctor_m1813033893
uQc:__Z37Register_UnityEngine_Input_GetAxisRawv
FSj:_UIProgressBar_ScreenToValue_m2426312213
oqi:_ObscuredVector3Test_Start_m2035525626
_7r:_InternalEnumerator_1_get_Current_m2001776303_gshared
FSi:_Enum_GetName_m1226611481
Efg:__ZL100TextEditor_t3975561390_CustomAttributesCacheGenerator_TextEditor_t3975561390____content_PropertyInfoP21CustomAttributesCache
S6k:_ObscuredSByte_SetEncrypted_m2877632313_AdjustorThunk
F$:__ZN11AudioSource5ResetEv
dfu:_wmemmove
I4l:_GameCenterManager_ReportScore_m2115373823
qSo:_SearchOponentAnimation_StartReverseAnimation_m741685026
whq:_ActTesterGUI_OnGUI_m3590424713
rls:_Event_get_isMouse_m569219555
FNb:__ZN14Texture2DArray23VirtualRedirectTransferER18StreamedBinaryReadILb0EE
qjc:__ZN2UI13RectTransform13AwakeFromLoadE17AwakeFromLoadMode
YCn:_FtpDataStream_get_CanWrite_m2192632440
fWp:_XmlDocumentType_ImportFromDTD_m358818970
Xbb:__ZN14qsort_internal30FindAndMovePivotToLastPositionIP20ShadowCasterSortDatai26ShadowCasterSortDataSorterEEvT_S4_T0_T1_
x1b:__Z18Transfer_BlittableI14SafeBinaryReadLb1EiEvRK29SerializationCommandArgumentsR31RuntimeSerializationCommandInfo
quj:_DefaultControls_CreateSlider_m3525165396
__j:_PhotonNetwork_FindGameObjectsWithComponent_m3396879395
Sgj:_Array_InternalArray__Insert_TisJsonPosition_t687338249_m2756250512_gshared
iFa:__ZN17PersistentManager13GetAllFileIDsERKN4core12basic_stringIcNS0_20StringStorageDefaultIcEEEER13dynamic_arrayIxLj8EE
Cko:__Z187RuntimeInvoker_Single_t2076509932_Rect_t3681755626_Single_t2076509932_Single_t2076509932_Single_t2076509932_Single_t2076509932_Il2CppObject_Il2CppObject_SByte_t454417549_Int32_t2071877448PK10MethodInfoPvPS2_
Hsc:__Z13TransformAABBRK4AABBRK8Vector3fRK11QuaternionfRS_
cju:__ZNKSt3__28time_getIwNS_19istreambuf_iteratorIwNS_11char_traitsIwEEEEE15__get_monthnameERiRS4_S4_RjRKNS_5ctypeIwEE
qet:_ChatClient_SendPrivateMessage_m2644329431
hQj:_UIPanel_Find_m2413452129
nsi:_Array_LastIndexOf_m4096535198
T2d:__ZN18MultiQueryCallbackIN5physx12PxOverlapHitEE6invokeERfPKNS0_2Sq13PrunerPayloadEj
jtp:_Extensions_Contains_m4150929930
Hdu:_uname
GRi:_Double_System_IConvertible_ToSByte_m1653690240_AdjustorThunk
aFd:__ZN5physx2Gu18gjkRelativeRayCastINS0_4BoxVES2_NS0_10ShrunkBoxVES3_EEbRT_RT0_RKNS_6shdfnd3aos15PsMatTransformVERKNS9_6FloatVERKNS9_5Vec3VESI_RSD_RSG_SK_fb
Bm:_glGetStringi
xQo:_SA_BackButton_OnClick_m1386455614
bSm:_AudioCategory__IsCategoryParentOf_m792975637
cMq:_ObjectManager_AddFixup_m4148241867
kZg:__ZL50UIAnchor_t624210015_CustomAttributesCacheGeneratorP21CustomAttributesCache
cOb:__ZN18StreamedBinaryReadILb0EE21TransferSTLStyleArrayI13dynamic_arrayI8Vector4fLj4EEEEvRT_17TransferMetaFlags
uSe:__ZThn8_N5physx2Gu10ConvexMeshD0Ev
Jtk:_X509Chain_get_CertificateCollection_m324631835
pal:_ObscuredVector2_InternalEncryptField_m2111519946
Vnr:_ResourceRequest__ctor_m3340010930
Twe:__ZNK5physx2Sq12BucketPruner7raycastERKNS_6PxVec3ES4_RfRNS0_14PrunerCallbackE
sbj:_Array_InternalArray__IndexOf_TisClientCertificateType_t4001384466_m1168139450_gshared
Ebk:_TopBarUI_Start_m4259705289
i5j:_PlayServiceExample_FixedUpdate_m2966736117
yUj:_UISprite_get_pixelSize_m3211725138
Ezs:_ReadOnlyCollection_1_System_Collections_IList_Remove_m2995795075_gshared
uSg:__ZL53EquipItems_t3211185488_CustomAttributesCacheGeneratorP21CustomAttributesCache
S5a:__ZN9Coroutine16SetCurrentMethodE18ScriptingMethodPtr
GB:__ZN8Animator9WriteStepEv
CMb:__ZNSt3__23mapIN4core12basic_stringIcNS1_20StringStorageDefaultIcEEEE9PrefValueNS_4lessIS5_EENS_9allocatorINS_4pairIKS5_S6_EEEEEixERSB_
whp:_ConnectAndJoinRandom_Update_m3695644230
OYc:__ZN15DirectorManager22ConstructPlayableGraphEv
$3j:_Player_CheckPocketedBalls_m3665612749
_mc:__ZN11PlayerPrefs8GetFloatERKN4core12basic_stringIcNS0_20StringStorageDefaultIcEEEEf
kct:_JsonTextReader_ParseDateMicrosoft_m1920976676
SCn:_FtpAsyncResult_DoCallback_m1497652311
G0i:_SymmetricAlgorithm_set_IV_m4262655606
QNr:_StencilMaterial__cctor_m2963056855
e7q:_Enumerator_get_CurrentValue_m2645962456_gshared
Y0k:_ObscuredDecimal_t3299336390_marshal_pinvoke
nyt:_scan_tree
ptr:_TextEditor_SelectGraphicalLineStart_m171383526
JDl:_Dictionary_2_OnDeserialization_m2691688467_gshared
LNn:_CustomAttributeNamedArgument_GetHashCode_m3715408876_AdjustorThunk
Onf:__Z38Register_UnityEngine_Font_HasCharacterv
ZHn:_SslStream_Dispose_m2889656292
Ufb:__Z35IntersectSpherePlaneBoundsOptimizedRKN4math7_float4EPS1_i
Uqm:_CultureInfo_get_IsNeutralCulture_m3874876470
gQi:_Delegate_CreateDelegate_m3813023227
Ihu:__ZNKSt3__27num_putIcNS_19ostreambuf_iteratorIcNS_11char_traitsIcEEEEE6do_putES4_RNS_8ios_baseEcx
pVr:_XmlTextReader_ReadInternalSubset_m3213716603
iMd:__ZN5physx2Sc8ShapeSim20createLowLevelVolumeEjRKNS_9PxBounds3EjNS_9AABBMgrIdE
hHm:_ShortComparer_Compare_m706101794
jrs:_Uri_get_AbsoluteUri_m2120317928
Hhu:__ZNKSt3__27num_putIcNS_19ostreambuf_iteratorIcNS_11char_traitsIcEEEEE6do_putES4_RNS_8ios_baseEcl
z4c:__ZN37InheritVelocityModulePropertyBindings13GetFloatValueERK14ParticleSystemi
K3:__ZN11AudioSource14SetSecPositionEf
Q8d:__ZNK5physx7NpCloth22getAngularInertiaScaleEv
PGd:__ZN26IntersectAnyVsMeshCallbackILi1ELb1EE10processHitERKN5physx12PxRaycastHitERKNS1_6PxVec3ES7_S7_RfPKj
Ghu:__ZNKSt3__27num_putIcNS_19ostreambuf_iteratorIcNS_11char_traitsIcEEEEE6do_putES4_RNS_8ios_baseEcb
jdj:_MethodArguments_AddList_TisIl2CppObject_m2442390214_gshared
jla:__Z22CleanupLODGroupManagerPv
Uej:_Array_InternalArray__ICollection_Add_TisContentType_t1028629049_m2984242302_gshared
hse:__ZN5physx6shdfnd5ArrayINS_2Sc5Scene14SimpleBodyPairENS0_19ReflectionAllocatorIS4_EEE8recreateEj
zUt:__ZN6il2cpp8metadata15GenericMetadata20RegisterGenericClassEP18Il2CppGenericClass
ln:_glUniform3fv
Pxl:_Dictionary_2_InitArrays_m1348972157_gshared
lXb:__ZNSt3__218__insertion_sort_3IRN15ResourceManager10Dependency6SorterEPS2_EEvT0_S6_T_
$xh:_Enumerator_System_Collections_IEnumerator_Reset_m3796537546_AdjustorThunk
Qmf:_UNITY_FT_Init_Class_tt_service_gx_multi_masters
YYo:_BigInteger_op_Implicit_m3173055646
LEc:__ZNK8Gradient19InitializeOptimizedER17OptimizedGradient
FCn:_FileWebResponse_GetResponseStream_m3207033384
bHm:_IntComparer_Compare_m3057931085
Eab:__ZNK16LightmapSettings31GetRealtimeLightmapDecodeValuesEv
g$:__ZN5audio5mixer12SetSuspendedERNS0_16AudioMixerMemoryEb
_Aa:__ZN17PersistentManager21UnloadNonDirtyStreamsEv
GSm:_AudioController_set_musicEnabled_m3031531159
Q0j:_PhotonPlayer_Find_m980280912
USp:_XmlEntityReference_get_Entity_m1154089299
s8r:_Animation_INTERNAL_CALL_Sample_m3455476881
f9p:_XsollaPricepoint_Parse_m3254372026
Oxu:_glDeleteFramebuffers__wrapper
Rlq:_AN_GoogleAdProxy_PauseAd_m3805913821
oIq:_ObjRef__cctor_m2226086515
Vbi:_ReadOnlyCollection_1_System_Collections_IList_Clear_m2150507648_gshared
ULt:__ZN14dense_hash_mapI10KeyWrapperINSt3__24pairIPK12PropertyInfoP11Il2CppClassEEEj17ReflectionMapHashIS8_ENS9_14EqualsComparerINS1_8equal_toIS8_EEEENS1_9allocatorINS2_IKS9_jEEEEEC2EjRKSB_RKSF_
xsg:__ZL61Graphic_t2426225576_CustomAttributesCacheGenerator_m_MaterialP21CustomAttributesCache
$qk:_Oid__ctor_m1936781897
i3e:__ZN5physx6shdfnd8PoolBaseINS_24NpPtrTableStorageManager8PtrBlockILi4EEENS0_19ReflectionAllocatorIS4_EEE12allocateSlabEv
Hhq:_AddressBookController_havePhoto_m808456522
qgn:_Object_INTERNAL_CALL_Internal_InstantiateSingleWithParent_m1401308849
uts:_ResourceSet__ctor_m1222864106
vPe:__ZN5physx2Sc5Scene13ccdBroadPhaseEPNS_10PxBaseTaskE
Hn:_emscripten_glDepthMask
iNc:__Z33Debug_Get_Custom_PropIsDebugBuildv
jHe:__ZN5physx2Gu24PCMMeshContactGeneration15processContactsEhb
B1h:_Collection_1_IsSynchronized_m2601980439_gshared
ifj:_Array_InternalArray__ICollection_CopyTo_TisTableRange_t2011406615_m2322141712_gshared
EPa:__ZN4crnd25static_huffman_data_model22prepare_decoder_tablesEv
lwl:_Dictionary_2_ToTValue_m122681404_gshared
vtc:__ZN16ReflectionProbesD2Ev
qKp:_Array_Sort_TisIl2CppObject_TisIl2CppObject_m1915706600_gshared
Bhn:_ModulusRing_Difference_m662924064
dsj:_CanvasUpdateRegistry_ObjectValidForUpdate_m855695984
rba:__ZL22CleanupUnityWebStreamsPv
dos:_Regex_get_RightToLeft_m529734879
Obc:__Z18Transfer_BlittableI18StreamedBinaryReadILb0EELb0E10ColorRGBAfEvRK29SerializationCommandArgumentsR31RuntimeSerializationCommandInfo
wvn:_ListDictionary_Add_m4276262662
nBp:_GooglePlayResult__ctor_m1709556668
Lla:__Znaj
m_i:_RIPEMD160Managed_GGG_m1639995340
Eba:__ZN17MessageIdentifierC2EPKcNS_7OptionsEPKN5Unity4TypeES1_
OIl:_UIWidget_CheckLayer_m2160812004
cU:__Z76AnimatorControllerPlayable_CUSTOM_INTERNAL_CALL_CrossFadeInFixedTimeInternalR9HPlayableifif
DUm:_AudioController_PlayAfter_m1574538708
f7i:_Enumerable_Any_TisIl2CppObject_m2208185096_gshared
yBe:__ZN5physxL26solveFriction4_StaticBlockEPKNS_23PxcSolverConstraintDescERNS_16PxcSolverContextE
Ouh:_Enumerator_MoveNext_m431537867_gshared
Xmk:_SocketAsyncResult_Complete_m3680801433
gri:_Array_System_Collections_IList_Remove_m2438892375
Szm:_TextWriter__ctor_m2225796097
brb:__ZN14SafeBinaryRead8TransferI14ConstantStringEEvRT_PKc17TransferMetaFlags
bAk:_Single_System_IConvertible_ToSingle_m2540530435
cGe:__ZN5physx30PxcGetMaterialShapeHeightFieldEPKNS_12PxsShapeCoreES2_RNS_18PxcNpThreadContextEPNS_15PxsMaterialInfoE
Asa:__ZNK6Camera16GetStereoEnabledEv
rEn:_FtpWebRequest_BeginGetResponse_m780341269
r2k:_ObscuredDouble_GetHashCode_m582704690
by:__ZN13AnimationClip9PPtrCurveaSERKS0_
cuc:__ZN12LightManager15InitializeClassEv
JQb:__ZN19SkinnedMeshRenderer23VirtualRedirectTransferER19StreamedBinaryWriteILb0EE
Ata:__ZN9ShaderLab11shaderprops16GetComputeBufferEPK19ShaderPropertySheetS3_NS_16FastPropertyNameE
i2r:_U3CConcatYieldU3Ed__63_1_System_Collections_IEnumerator_Reset_m4276444054_gshared
Eha:__ZN23ManagedAttributeManager35CallManagedGetDefaultExecutionOrderE17ScriptingClassPtr
dUm:_AudioController_SetMusicPlaylist_m2139462534
bHc:__ZN18ScriptingArgumentsC2Ev
yys:_ReadOnlyCollection_1_System_Collections_IList_Remove_m3609400243_gshared
qWm:_AudioObject_set_audioTime_m775890871
FMk:_TimeZone_IsDaylightSavingTime_m875882154
tko:__Z93RuntimeInvoker_Int32_t2071877448_Rect_t3681755626_Int32_t2071877448_Il2CppObject_Il2CppObjectPK10MethodInfoPvPS2_
JRp:_XmlTypeMapping_get_TypeFullName_m3524839170
fxu:_emscripten_glBlendFuncSeparate__wrapper
F2j:_Physics0_ball_ball_interaction_m874778438
hdk:_TournamentLobby_PlayButton_m2520588784
Vqu:dynCall_iiiiiiiiii
Ayq:_DropDownController__ctor_m2258341899
nel:_ListMap_FindElement_m2442110850
Jkc:_process_data_simple_main
hh:_JS_FileSystem_HasIndexedDB
y5a:__ZNK25CameraStackRenderingState27GetStereoImageEffectTextureEb
o$i:_SHA1CryptoServiceProvider__ctor_m3127563759
fFc:__ZN13BuildSettings13GetSceneIndexERKN4core12basic_stringIcNS0_20StringStorageDefaultIcEEEE
Twg:__ZL103BaseVertexEffect_t2504093552_CustomAttributesCacheGenerator_BaseVertexEffect_ModifyVertices_m3446986347P21CustomAttributesCache
Tr:FUNCTION_TABLE_ii
n6:__ZNSt3__26__treeINS_12__value_typeIN4core12basic_stringIcNS2_20StringStorageDefaultIcEEEES6_EENS_19__map_value_compareIS6_S7_NS_4lessIS6_EELb1EEENS_9allocatorIS7_EEE16__construct_nodeERKNS_4pairIKS6_S6_EE
_tp:_DialogShare__ctor_m3852229291
Xjr:_Quaternion_ToString_m2638853272
Fbf:__ZN20TextRenderingPrivate8TextMesh13AwakeFromLoadE17AwakeFromLoadMode
fQk:_UInt32_ToString_m3894907091_AdjustorThunk
bek:_TweenColor_SetStartToCurrentValue_m3761684582
Nep:_ISN_MediaController_remove_ActionPlaybackStateChanged_m1197236862
Nuu:b44
Bc:invoke_diiii
Gni:_NGUITools_get_soundVolume_m854852221
aod:__ZNK13BoxCollider2D26GetTypeInfoVirtualInternalEv
zEn:_FtpWebRequest_ProcessMethod_m869416203
Ybl:_ObscuredVector3_op_Equality_m2403050824
K5j:_PlayServicFridnsLoadExample_New_OnPlayerDisconnected_m892791281
UFd:__ZL17sweepVolumeVsMeshPKN5physx3Cct9SweepTestEPKNS0_11TouchedMeshERNS0_12SweptContactERKNS_6PxVec3ERKNS_10PxGeometryERKNS_11PxTransformEjPKNS_10PxTriangleEj
doo:__Z80RuntimeInvoker_Int32_t2071877448_RaycastResult_t21186376_RaycastResult_t21186376PK10MethodInfoPvPS2_
Qjk:_UICamera_ProcessMouse_m936784574
xKe:__ZN5physx2Gu31checkOverlapOBB_heightFieldGeomERKNS_10PxGeometryERKNS_11PxTransformERKNS0_3BoxE
snb:__Z24CreateDirectoryRecursiveRKN4core12basic_stringIcNS_20StringStorageDefaultIcEEEE
$gc:__ZN9ShaderLab20SerializedSubProgram8TransferI18StreamedBinaryReadILb0EEEEvRT_
UCm:_StreamAsyncResult_get_AsyncWaitHandle_m4218169359
oKh:_List_1_AddEnumerable_m3541747636_gshared
CZc:__Z22MonoGUIContentToNative18ScriptingObjectPtrR10GUIContent
Kyd:__ZN5physx2Gu23findRotationMatrixFromZERKNS_6PxVec3E
mup:_U3CTakeScreenshotU3Ec__Iterator0_Reset_m136064961
NAe:__ZNK5physx2Gu29EPASupportMapPairRelativeImplINS0_8CapsuleVENS0_11ConvexHullVEE18doWarmStartSupportEiiRNS_6shdfnd3aos5Vec3VES8_S8_
tof:__ZN2UI13CanvasManager9AddCanvasEPNS_6CanvasE
XDa:__ZN9Texture3D8TransferI19StreamedBinaryWriteILb0EEEEvRT_
P6a:__ZNK6Camera22CalculateRenderingPathEv
crq:_AndroidAdMobController_GetBanner_m3635368301
V3q:_Enumerator_System_Collections_IEnumerator_Reset_m3690677723_gshared
Vqe:__ZN5physx13NpVolumeCache10invalidateEv
rD:__ZN11UnityEngine9Animation37SetGenericRootTransformPropertyValuesERKNS0_30AnimatorGenericBindingConstantERKN7mecanim10ValueArrayER9Transformbb
Anj:_ExecuteEvents_GetEventChain_m713190182
J_m:_AnimatorControllerPlayable_INTERNAL_CALL_GetCurrentAnimatorClipInfoInternal_m3542665271
jhl:_XmlNodeEventArgs__ctor_m852689902
w5b:__ZL12InvokeMethodI17RemapPPtrTransferEvRK29SerializationCommandArgumentsR31RuntimeSerializationCommandInfo
Egk:_UIBasicSprite_SlicedFill_m72805126
Knm:_X509Certificate_get_PublicKey_m714501701
hff:_tt_sbit_decoder_load_image
wCk:_String_LastIndexOf_m290475879
H4k:_ObscuredPrefs_EncryptData_m1588203927
Abq:_XsollaPaystationController_UpdateGoods_m1690042175
SDi:_SortedList__ctor_m3874385060
hUm:_AudioController__PlayNextMusicOnPlaylist_m620822814
uhk:_UIAtlas_GetListOfSprites_m2274312931
TZc:__ZNSt3__24listIN10GUIManager12SortedScriptE11memory_poolIS2_EE6__sortI13OldSortScriptEENS_15__list_iteratorIS2_PvEESA_SA_jRT_
JMd:__ZN5physx6shdfnd5ArrayIPvNS0_19ReflectionAllocatorINS_2Sc10NPhaseCore16ClothListElementEEEE15growAndPushBackERKS2_
pQk:_UInt64_System_IConvertible_ToChar_m1930853313_AdjustorThunk
upn:_TlsClientCertificate_SendCertificates_m1096074091
nDi:_SyncHashtable_get_Item_m408601391
gIl:_UITextList_Clear_m1605232637
QCs:_ReadOnlyCollection_1_System_Collections_IEnumerable_GetEnumerator_m1401363518_gshared
Hqb:__ZNK9Behaviour26GetTypeInfoVirtualInternalEv
zXh:_Stack_1_System_Collections_ICollection_CopyTo_m2104527616_gshared
qHk:_StringBuilder_AppendFormat_m1666670800
RLb:__ZN12LineRenderer8TransferI18StreamedBinaryReadILb0EEEEvRT_
Wcb:__ZN18DeferredRenderLoop13RenderGBufferEP13RenderTexturePS1_b8JobFencePK25DeferredRenderLoopScratchRi
mwr:_AccessToken_get_LastRefresh_m3718279402
N2o:_iCloudManager__cctor_m3378771047
bOm:_AppEventHandlerExample_OnApplicationDidReceiveMemoryWarning_m3356273708
Hz:__ZN13AnimationClip8TransferI17RemapPPtrTransferEEvRT_
E_h:_Collection_1_CheckWritable_m9604409_gshared
PCq:_ScreenStatusController_OnStatusRecivied_m4202040114
zPt:__ZN6il2cpp6icalls8mscorlib6System9ThreadingL11ThreadStartEPv
Ida:__ZN15DirectorManager12OnSampleTimeEv
gFs:_ReadOnlyCollection_1_System_Collections_IList_Remove_m3878418841_gshared
gDq:_ShopItemViewAdapter_Awake_m1823023226
VAj:_InputField_EnforceContentType_m1902926812
WDm:_StringWriter_get_Encoding_m140088475
pJ:__ZN8Animator13ClearBindingsEv
T8o:_IOSStoreKitRestoreResult__ctor_m2944630037
csa:__ZN12CachedReader10Align4ReadEv
qrd:__ZN15b2WorldManifold10InitializeEPK10b2ManifoldRK11b2TransformfS5_f
YKj:_UIInput_SetPivotToLeft_m3955081423
pio:__Z154RuntimeInvoker_RaycastHit2D_t4063908774_Vector2_t2243707579_Vector2_t2243707579_Single_t2076509932_Int32_t2071877448_Single_t2076509932_Single_t2076509932PK10MethodInfoPvPS2_
jki:_NetworkingPeer_LeftRoomCleanup_m3225674791
aRt:__ZN6il2cpp2vm9Exception28GetMarshalDirectiveExceptionEPKc
kIm:_MulticastDelegate_GetObjectData_m3187757658
E9r:_Animator_GetFloat_m3697451862
QFs:_ReadOnlyCollection_1_System_Collections_IList_get_Item_m887129009_gshared
z3d:__ZN5physx2Sc14ConstraintCore13setBreakForceEff
$tn:_TlsStream_set_Position_m378064217
olc:_fullsize_downsample
b8a:__Z21GetScriptingArraySize17ScriptingArrayPtr
W7e:__ZN20TextRenderingPrivate8FontImpl8TransferI14SafeBinaryReadEEvRT_
BBk:_String_IndexOf_m1887352430
did:__ZNSt3__27__sort4IRN10vector_mapIi22ParticleModulePropertyNS_4lessIiEENS_9allocatorINS_4pairIiS2_EEEEE13value_compareEPS7_EEjT0_SD_SD_SD_T_
p3p:_XsollaSubscription_GetPriceString_m220593653
foe:__ZN5physx7NpScene15removeAggregateERNS_11PxAggregateEb
h_j:_PhotonNetwork_get_ServerAddress_m3348553152
q4m:_GUIStyle_Draw_m4006459684
Hyt:__ZN6il2cpp2vm21ThreadPoolCompartment12DetachThreadEP12Il2CppThread
$4r:_Action_1_Invoke_m2333964672_gshared
Lvo:__Z59RuntimeInvoker_Il2CppObject_Il2CppObject_Double_t4078015681PK10MethodInfoPvPS2_
jBb:__ZNK10GUIElement26GetTypeInfoVirtualInternalEv
oKa:__ZN9GfxDevice17ImmediateTexCoordEifff
Oer:_ShimEnumerator_Reset_m98005789_gshared
kds:_AudioSource_get_spread_m1365941506
pHq:__ZN21InterfaceFuncInvoker3IP12Il2CppObjectP6Type_t28StreamingContext_t1417235061PS1_E6InvokeEjP11Il2CppClassS1_S3_S4_S5_
Kpd:__ZN10ClipperLib7Clipper13AppendPolygonEPNS_5TEdgeES2_
Fgi:_MNIOSNative_showDialog_m2152415911
uht:_U3CGetExtensionMethodsU3Ec__IteratorC_System_Collections_Generic_IEnumerableU3CSystem_Reflection_MethodInfoU3E_GetEnumerator_m1856848753
xJh:_List_1_ForEach_m3741441729_gshared
Afj:_Array_InternalArray__ICollection_CopyTo_TisKeyValuePair_2_t1174980068_m1818152223_gshared
n2i:_Hash__ctor_m2554411450
Kuh:_Enumerator_System_Collections_IEnumerator_get_Current_m769843674_AdjustorThunk
y0i:_SHAConstants__cctor_m2781430679
Jcn:_Material_set_shader_m743681806
Qzk:_Single_System_IConvertible_ToDateTime_m2510003459_AdjustorThunk
zQi:_Delegate_RemoveImpl_m3666700529
W$s:_Nullable_1_get_Value_m1809768199_gshared
Guu:_emscripten_glUniform4f__wrapper
MYc:__Z40Register_UnityEngine_WWW_get_assetBundlev
rzj:_Image_get_mainTexture_m1027716278
jDp:_GooglePlaySavedGamesManager_CreateNewSnapshot_m2959442043
wLl:_UIWrapContent_SortAlphabetically_m747851437
HAj:_InputField_set_caretColor_m2252440840
yNe:__ZN5physx6shdfnd5ArrayINS_25PxcThresholdStreamElementENS0_19ReflectionAllocatorIS2_EEE8recreateEj
adt:_StringBuffer_Clear_m207320349
PJp:_Array_Resize_TisVector2_t2243707579_m1117258774_gshared
x9a:__ZNK6Camera16GetProjectionFarEv
Jhb:__Z24InverseTransformRotationRK23TransformAccessReadOnlyRKN4math7_float4E
Dlq:_AN_GMSRTMProxy_TBM_SetVariant_m797803429
M$:__ZN11AudioSource6UpdateEv
zlk:_Socket_Receive_nochecks_m4078780693
aEa:__ZN7Texture34CreateFileTextureUploadInstructionE18TextureUploadFlagsj
V3a:__ZN13ComputeShader14SetBufferParamEjRKN9ShaderLab16FastPropertyNameE15ComputeBufferID
R9d:__ZN5physx7NpCloth21setCollisionMassScaleEf
MKe:__ZN5physx6shdfnd5ArrayINS_7PxPlaneENS0_19ReflectionAllocatorIS2_EEE8recreateEj
Y5e:__ZN13PhysicsModule17GetRigidBodyStateERK9RigidbodyPN8IPhysics14RigidBodyStateE
jKo:_PreviewSceneController_Awake_m1385247152
sRe:__ZN5physx2Sc15ClothFabricCoreD2Ev
VEs:_ReadOnlyCollection_1_System_Collections_Generic_IListU3CTU3E_Insert_m3054305464_gshared
k5o:_IOSADBanner_OnBannerAdOpened_m1879014994
_J:__ZN8Animator8TransferI14SafeBinaryReadEEvRT_
Pee:__ZN5physx2Sc17ParticleSystemSim7releaseEb
gcj:_Array_InternalArray__IndexOf_TisTypeTag_t141209596_m2882894956_gshared
knk:_SocketException__ctor_m3168076933
aNr:_Slider_get_value_m4182660424
Bjd:__ZNK14b2CapsuleShape5CloneEP16b2BlockAllocator
oG:__ZN17AnimationPlayable34CollectAnimatorControllerPlayablesER13dynamic_arrayIP26AnimatorControllerPlayableLj4EE
b3:__ZN16BaseVideoTexture19UpdateVideoTexturesEv
o4:__Z36AudioSource_Set_Custom_PropPanStereoP12Il2CppObjectf
yzb:__Z28BuildSingleStreamChannelInfo17ShaderChannelMaskRK20VertexChannelsLayoutS_S2_P11ChannelInfo
S0s:_Nullable_1_Equals_m1118562548_gshared
oio:__Z79RuntimeInvoker_RaycastHit2D_t4063908774_Vector2_t2243707579_Vector2_t2243707579PK10MethodInfoPvPS2_
Tvl:_Dictionary_2_set_Item_m4180911718_gshared
HQn:_DynamicMethod_AddRef_m1495651475
FCa:__ZNK16LightmapSettings23HasLightProbeTetrahedraEv
A4e:__ZN13ProduceHelperI15CapsuleColliderLb0EE7ProduceE18MemLabelIdentifier18ObjectCreationMode
Hon:_Context_get_WriteSequenceNumber_m243492531
KMb:__ZN6Sprite23VirtualRedirectTransferER19StreamedBinaryWriteILb0EE
aCf:__ZL51Assembly_t4268412390_CustomAttributesCacheGeneratorP21CustomAttributesCache
oCk:_String_LastIndexOfAny_m1473637802
AWc:__Z38Transform_CUSTOM_INTERNAL_set_positionP12Il2CppObjectRK8Vector3f
N0p:_XmlTextReader_get_LocalName_m1651208486
cnl:_XmlSerializer__cctor_m1220494619
oSk:_Version_CompareTo_m596235198
YR:__Z51AnimationClipPlayable_CUSTOM_INTERNAL_CALL_GetSpeedR9HPlayable
FGt:__ZNK15dense_hashtableINSt3__24pairIK10KeyWrapperINS1_IPK9FieldInfoP11Il2CppClassEEEjEES9_17ReflectionMapHashIS8_EN14dense_hash_mapIS9_jSD_NS9_14EqualsComparerINS0_8equal_toIS8_EEEENS0_9allocatorISB_EEE9SelectKeyESI_SK_E5beginEv
Sta:__ZNK9ShaderLab7Program19HasMatchingVariantsERK13dynamic_arrayI16ShaderKeywordSetLj4EE
yJt:__ZN15dense_hashtableINSt3__24pairIK10KeyWrapperINS1_IPK9EventInfoP11Il2CppClassEEEjEES9_17ReflectionMapHashIS8_EN14dense_hash_mapIS9_jSD_NS9_14EqualsComparerINS0_8equal_toIS8_EEEENS0_9allocatorISB_EEE9SelectKeyESI_SK_E12maybe_shrinkEv
yC:__ZN15SerializeTraitsIN4math4trsXEE8TransferI8BlobSizeEEvRS1_RT_
DNa:__ZN14DataBufferGLES11CopySubDataEPKS_jjj
_f:_emscripten_glVertexPointer
TWa:__ZNSt3__26__treeI20DeviceDepthStateGLES11memcmp_lessIS1_S1_ENS_9allocatorIS1_EEE7destroyEPNS_11__tree_nodeIS1_PvEE
hqf:__ZN2UI13PrepareOutputERNS_7BatchesEjjNS_30AdditionalCanvasShaderChannelsE
thl:_XmlReflectionImporter_ImportClassMapping_m1864999285
$fp:_ISN_Security__ctor_m1051699456
Dcb:__Z17GetFrustumPortionPK8Vector3fffPS_
xPd:__ZNK5physx2Gu22SupportMapRelativeImplINS0_4BoxVEE18doWarmStartSupportEiRNS_6shdfnd3aos5Vec3VE
UFn:_HttpWebRequest_get_Aborted_m837349671
KSt:__ZN15dense_hashtableINSt3__24pairIK10KeyWrapperIP14Il2CppIUnknownEjEES5_N6il2cpp5utils11PointerHashIS3_EEN14dense_hash_mapIS5_jSB_NS5_14EqualsComparerINS0_8equal_toIS4_EEEENS0_9allocatorIS7_EEE9SelectKeyESG_SI_E14squash_deletedEv
Qzb:__ZN5Light13AwakeFromLoadE17AwakeFromLoadMode
zss:_TargetParameterCountException__ctor_m1256521036
UU:__Z96Register_UnityEngine_Experimental_Director_AnimatorControllerPlayable_INTERNAL_CALL_PlayInternalv
xuj:_DefaultControls_CreateDropdown_m1384069408
f4m:_GUI_HorizontalScrollbar_m3352213210
PKi:_CultureAwareComparer_Compare_m2587353351
EKn:_NumberFormatter_NumberToString_m3855209845
cem:_GoogleCloudMessageService__cctor_m183470216
ySm:_AudioController_set_DisableAudio_m2829971933
SXo:_NetworkSimulationSet_set_IsSimulationEnabled_m329502295
A4c:__ZN37InheritVelocityModulePropertyBindings13SetFloatValueER14ParticleSystemif
TFo:__Z97RuntimeInvoker_Il2CppObject_DepthEntry_t974746545_DepthEntry_t974746545_Il2CppObject_Il2CppObjectPK10MethodInfoPvPS2_
fUi:_CCGregorianCalendar_is_leap_year_m567513478
lti:_Attribute_IsDefined_m2118467641
l4a:__ZN14GraphicsHelper8DrawQuadER9GfxDevice17ShaderChannelMaskbRK5RectTIfE
anj:_ExecuteEvents_Execute_m898902863
UNi:_DateTimeOffset_GetHashCode_m3312197462
QDp:_GooglePlayTBM_DismissInvitation_m4188412308
R6h:_Collection_1_System_Collections_IList_Add_m2091889616_gshared
Uyc:__ZN16StreamedResource8TransferI24GenerateTypeTreeTransferEEvRT_
qld:__ZN11b2GearJoint4DumpEv
Tvj:_DropdownItem_OnPointerEnter_m761897861
jTg:__ZL58UIButtonMessage_t3791537815_CustomAttributesCacheGeneratorP21CustomAttributesCache
fJd:__ZN5physx3Cct10Controller13onOriginShiftERKNS_6PxVec3E
TAp:_GooglePlayQuests_Awake_m1344011138
ZVr:_DTDReader_ReadContentSpec_m1005798624
vLt:__ZN13Il2CppHashMapINSt3__24pairIPK10MethodInfoP11Il2CppClassEEj17ReflectionMapHashIS7_ENS0_8equal_toIS7_EENS0_9allocatorINS1_IK10KeyWrapperIS7_EjEEEEEC2EjRKS9_RKSB_
YTa:__ZN10Matrix3x3f15InvertTransposeEv
rHp:_GPScore_get_TimeScore_m3761055041
tcp:_IOSSocialManager_OnFacebookPostFailed_m1890299548
c6p:_XsollaForm_IsValidPaymentSystem_m3812520330
a9c:__ZN14EmissionModule8TransferI19StreamedBinaryWriteILb0EEEEvRT_
X5i:_Array_InternalArray__ICollection_Remove_TisKeyValuePair_2_t1174980068_m2768765894_gshared
dyq:_CCPayment_remove_PaymentSuccessRecieved_m2354665631
u4h:_Collection_1_set_Item_m2199807215_gshared
gAe:__ZN5physx2Gu19_gjkRelativeRayCastINS0_9TriangleVENS0_11ConvexHullVEEEbRT_RT0_RKNS_6shdfnd3aos15PsMatTransformVERKNS9_6FloatVERKNS9_5Vec3VESI_RSD_RSG_SK_f
o4b:__Z29Transfer_Blittable_ArrayFieldI14SafeBinaryRead8Vector3fEvRT_R9ArrayInfoRK23StaticTransferFieldInfo
dOj:_UILabel_UpgradeFrom265_m1623108732
Gti:_BitConverter_GetBytes_m3019845415
pPk:_UInt32_System_IConvertible_ToBoolean_m91295134
Hp:FUNCTION_TABLE_vfii
Xhs:_Collision2D_get_otherCollider_m4079883492
GJk:_Monitor_Monitor_test_synchronised_m1542589500
bgg:__ZL68RuntimePlatform_t1869584967_CustomAttributesCacheGenerator_WP8PlayerP21CustomAttributesCache
Q8e:__ZN20TextRenderingPrivate8FontImpl18ResetCachedTextureEv
Bbq:_XsollaPaystationController_ShowPaymentForm_m2424042413
Zdk:_TweenColor_set_color_m1296090733
tFe:__ZNK5physx19ActorAABBUpdateTask7getNameEv
z2m:_GUI_Button_m2919274209
Y5s:_TouchScreenKeyboard_Open_m913506328
hQq:_InternalEnumerator_1_System_Collections_IEnumerator_get_Current_m1125095150_AdjustorThunk
$Ri:_Double_TryParse_m3252018994
PQl:_UM_Location_HandleOnLocaleLoaded_IOS_m1045488314
rtl:_ValueCollection__ctor_m927733289_gshared
jxq:_BaseWWWRequest_GetDomain_m4223524707
Lmd:__ZNK12b2WheelJoint10GetAnchorBEv
uup:_MainMenu_CallFBLoginForPublish_m3686831997
uMi:_DateTime_IsDaylightSavingTime_m3893318119
dLc:__Z53Register_UnityEngine_Behaviour_get_isActiveAndEnabledv
j$b:__ZNK13MonoBehaviour26GetTypeInfoVirtualInternalEv
J_t:__ZN6il2cpp2osL23CleanupThreadIfCanceledEPv
cu:__ZNSt3__26vectorIN4core12basic_stringIcNS1_20StringStorageDefaultIcEEEENS_9allocatorIS5_EEE8__appendEj
ujr:_Quaternion_Lerp_m3623055223
oai:_Collection_1_IsValidItem_m2533814046_gshared
KWb:__ZN26PlayerSettingsSplashScreen8TransferI17RemapPPtrTransferEEvRT_
A8e:__ZN20TextRenderingPrivate8FontImpl8TransferI17RemapPPtrTransferEEvRT_
vWm:_AudioObject_set_pitch_m1924062474
STq:_InternalEnumerator_1_get_Current_m3922357178_gshared
QQj:_UIPlaySound_OnSelect_m1106627108
Hrg:__ZL72ColorBlock_t2652774230_CustomAttributesCacheGenerator_m_HighlightedColorP21CustomAttributesCache
Oki:_NetworkingPeer_DebugReturn_m773411933
ZPd:__ZN5physx3Scb5Scene20addArticulationJointERNS0_17ArticulationJointE
Ezp:_GooglePlayManager_AcceptRequests_m1674026219
XMk:_Type_get_IsValueType_m1733572463
Roe:__ZN5physx7NpScene14resetFilteringERNS_12PxRigidActorEPKPNS_7PxShapeEj
snc:__Z13GetTagManagerv
etr:_TextEditor_SelectUp_m3826611706
b8k:_ObscuredString_op_Implicit_m3566173901
IJt:__ZNK15dense_hashtableINSt3__24pairIK10KeyWrapperINS1_IPK9EventInfoP11Il2CppClassEEEjEES9_17ReflectionMapHashIS8_EN14dense_hash_mapIS9_jSD_NS9_14EqualsComparerINS0_8equal_toIS8_EEEENS0_9allocatorISB_EEE9SelectKeyESI_SK_E3endEv
U2p:_XmlWriter_WriteNode_m1949395905
b$j:_PhotonNetwork_get_automaticallySyncScene_m3875811090
A6i:_Array_InternalArray__ICollection_Remove_TisUInt16_t986882611_m65494986_gshared
JDs:_ReadOnlyCollection_1_IndexOf_m3054637117_gshared
qD:__ZN11UnityEngine9Animation37HasGenericRootTransformPropertyValuesERKNS0_30AnimatorGenericBindingConstantEb
SAk:_String_System_IConvertible_ToBoolean_m2696751322
tZe:__ZN15CapsuleCollider23VirtualRedirectTransferER14SafeBinaryRead
hBa:__ZN18LoadSceneOperation7PerformEv
sue:__ZN5physx2Sc5Scene26setSimulationEventCallbackEPNS_25PxSimulationEventCallbackEh
aFp:_GoogleProductTemplate__ctor_m1016967897
Wzc:__Z18CalculateWorldAABBR10GameObject
jAu:b162
e0s:_Nullable_1_ToString_m1104328003_gshared
lyd:__ZL30GeomMTDCallback_CapsuleCapsuleRN5physx6PxVec3ERfRKNS_10PxGeometryERKNS_11PxTransformES5_S8_
vpe:__ZN5physx7NpScene23forceDynamicTreeRebuildEbb
Ipd:__ZN10ClipperLib7Clipper14IntersectEdgesEPNS_5TEdgeES2_RNS_8IntPointE
CGd:__ZL18intersectAnyVsMeshILi0EEbPKN5physx2Gu6SphereEPKNS1_7CapsuleEPKNS1_3BoxERKNS1_13RTreeMidphaseERKNS0_11PxTransformERKNS0_11PxMeshScaleEP14LimitedResults
zU:__Z113Register_UnityEngine_Experimental_Director_AnimatorControllerPlayable_INTERNAL_CALL_GetAnimatorControllerInternalv
wOm:_U3CTryToUploadAccountInfoToDbU3Ec__Iterator0_MoveNext_m159574103
TJi:_Convert_ToString_m3884855475
uLk:_TimeSpan__ctor_m1888018443_AdjustorThunk
hCq:_Resizer_U3CDestroyChildsU3Em__0_m2688066376
C5p:_FinanceItem_Parse_m2778945437
NTm:_AudioObject_SwitchAudioSources_m4257235498
iDi:_SyncHashtable_get_Count_m3694444082
PWd:__ZN5physx14NpArticulation6wakeUpEv
R7o:_IOSInAppPurchaseManager_BuyProduct_m3886518023
Rfq:_XsollaSummaryItem_GetBonus_m2697720134
rwq:_WWWTextureLoader_LoadCoroutin_m3068864101
rVa:__ZN22VertexDeclarationCache5ClearEv
EVm:_AudioController_get_isSingletonObject_m2748340194
uTp:_XmlNamedNodeMap_get_Nodes_m3895346457
cJc:__Z47Application_Get_Custom_PropInternetReachabilityv
qlb:__ZN17PersistentManager12SetPathRemapERKN4core12basic_stringIcNS0_20StringStorageDefaultIcEEEES6_
GYk:_CashUI_Start_m828482468
J7k:_ObscuredShort_ToString_m1804705525_AdjustorThunk
heb:__ZN6Camera24PrepareCullingParametersERK23CameraCullingParameters13RenderingPathR11CullResults
m3j:_PickupDemoGui_OnGUI_m3445640437
pWm:_AudioObject_get__startClipAtTime_m1686921092
tBa:__ZN19RuntimeSceneManager22EndIntegrateMainThreadEP10UnitySceneNS_11LoadingModeE
Vct:_JsonTextReader_MatchValue_m2613089335
y5b:__Z26Transfer_UnityEngineObjectI17RemapPPtrTransferLb0EEvRK29SerializationCommandArgumentsR31RuntimeSerializationCommandInfo
fBp:_GooglePlayQuests_UpdateQuestInfo_m1667680958
V2m:_GUI_HandleTextFieldEventForDesktop_m3573214059
mwi:_Byte_Parse_m1442736478
Nwm:_Int64_Parse_m3258022240
hCk:_String_IndexOfOrdinal_m3591623977
tyh:_Enumerator_System_Collections_IEnumerator_Reset_m2024977459_gshared
zsp:_LoadbalancingPeer_OpSetPropertyOfRoom_m809860143
tWi:_CryptoConfig_EncodeLongNumber_m2352037787
ENk:_Type_GetMethod_m475234662
v7b:__Z29Transfer_Blittable_ArrayFieldI24GenerateTypeTreeTransfer4AABBEvRT_R9ArrayInfoRK23StaticTransferFieldInfo
gKf:__ZL52Activator_t1850728717_CustomAttributesCacheGeneratorP21CustomAttributesCache
P5t:_GC_adj_bytes_allocd
Nej:_Array_InternalArray__ICollection_Add_TisKeyframe_t1449471340_m887263954_gshared
tTe:__ZN5physx20InternalTriangleMesh16allocateVerticesEj
I7s:_UIVertex__cctor_m803910084
nhj:_Array_InternalArray__Insert_TisDateTime_t693205669_m1484996356_gshared
hLh:_List_1_System_Collections_IList_Remove_m3933652540_gshared
bCm:_MonoIO_get_ConsoleInput_m2976499023
ngi:_MNIOSNative__MNP_ShowDialog_m2732136618
NTl:_GetUserInfo_get_url_m3471841441
FAi:_BitArrayEnumerator_checkVersion_m3839504595
Bri:_Array_GetUpperBound_m1352329707
e0a:__ZZ23InitPlayerLoopCallbacksvEN36UpdateScriptRunBehaviourUpdatestruct7ForwardEv
BDe:__ZN5physx6shdfnd5ArrayINS_17PxcBroadPhasePairENS0_19ReflectionAllocatorIS2_EEE8recreateEj
Aoq:_AN_SoomlaGrow_add_ActionInitialized_m3795144996
kos:_Regex_Matches_m3834294444
ab:invoke_fiiifii
OBk:_String_TrimEnd_m3153143011
RNi:_DateTimeOffset_Equals_m3728302791_AdjustorThunk
OEd:__ZThn4_N16RayRTreeCallbackILi1ELb0EED1Ev
ocb:__ZN20SphericalHarmonicsL219AddDirectionalLightERKN4math7_float3ERKNS0_7_float4E
bSe:__ZN5physx13BigConvexDataD2Ev
dOs:_X509Extension_Equals_m1304125015
wMk:_TimeSpan_op_GreaterThanOrEqual_m3997050520
xda:__Z26ScheduleJobForEachInternalR8JobFencePFvPvjES1_iPFvS1_E11JobPriority
Trk:_OidEnumerator_MoveNext_m1889267785
Wnq:_AN_PlusShareListener__ctor_m1945690782
uFc:__ZN9Scripting18RaiseMonoExceptionEPKcz
scm:_GoogleAnalyticsClient_SetPromotionPosition_m1930678390
$Db:__ZN9Texture2D8TransferI19StreamedBinaryWriteILb0EEEEvRT_
nvl:_Dictionary_2_ToTValue_m1022888692_gshared
uYs:_TweenRunner_1_StartTween_m3792842064_gshared
Buc:__ZN9ShaderLab16FastPropertyName15InitBy28BitHashEj
Yzk:_Single_System_IConvertible_ToInt32_m3269519527_AdjustorThunk
Ter:_ShimEnumerator_get_Value_m1396288849_gshared
zid:__ZL24GenerateParticleGeometryIL24ParticleSystemRenderMode3ELb1ELb0ELb0EEvPfRK22ParticleSystemTempDataRK26ParticleSystemRendererDataRK21ParticleSystemModulesRK23ParticleSystemParticlesRK31ParticleSystemParticlesTempData
ANm:_AnOtherFeaturesPreview_GetImageFromGallery_m3240775378
z7t:__ZN6il2cpp6icalls8mscorlib6System10Reflection14MonoMethodInfo15get_method_infoE12Il2CppIntPtrP16Il2CppMethodInfo
Wij:_Array_InternalArray__set_Item_TisDouble_t4078015681_m24756265_gshared
GVj:_OneSignal_Init_m572524173
xIq:_ObjRef_GetObjectData_m3081609242
EFe:__ZN5physx20updateBodyShapeAABBsEPKjjS1_PKNS_17PxcAABBDataStaticEPNS_11IntegerAABBEj
PTk:_U3CLoadLevelU3Ec__Iterator3_Reset_m771601837
gqc:__ZN13ProduceHelperIN2UI13RectTransformELb0EE7ProduceE18MemLabelIdentifier18ObjectCreationMode
LOb:__ZN17PackedFloatVector12UnpackFloatsEPfiiii
uAs:_ReadOnlyCollection_1__ctor_m3671019970_gshared
QE:__ZN17AnimationPlayable28UpdateInternalStateRecursiveILi3ELb0EEEvPK35AnimationPlayableEvaluationConstant
SEb:_UNITY_png_handle_IHDR
hLa:__ZN13GfxDeviceGLES21DestroyComputeProgramER12ObjectHandleI18ComputeProgram_TagPvE
ZTm:_AudioController_UnpauseMusic_m369001350
sVr:_XmlTextReader_AddAttributeWithValue_m1417377746
Mfp:_ISN_ReplayKit_OnRecorStopFailed_m3112074280
MHi:_Convert_ToDecimal_m2007036836
Iyr:_ShareResult_get_PostIDKey_m793682691
XTp:_XmlChar_IsWhitespace_m2267719926
mla:__ZN17UniqueIDGenerator16DestroyPureIndexEj
xip:_GetPlayingStatusDelegate_Invoke_m2722553202
Qha:__ZL21AppendNestedClassName17ScriptingClassPtrRN4core17string_with_labelILi1EEE
Vec:__ZN14SafeBinaryRead21TransferSTLStyleArrayINSt3__26vectorIN9ShaderLab20SerializedSubProgram12UAVParameterENS1_9allocatorIS5_EEEEEEvRT_17TransferMetaFlags
g2p:_StringUtil_IndexOf_m724448013
ifm:_MSCompatUnicodeTableUtil__cctor_m1479836795
mvk:_X509SubjectKeyIdentifierExtension__ctor_m2959112706
w9d:__ZN5physx7NpCloth22removeCollisionCapsuleEj
Tkl:_XmlSerializationReaderInterpreter_ReadListString_m3098553746
A2s:_Predicate_1_Invoke_m617703487_gshared
d3p:_TransactionHelper_DictToString_m606247462
inn:_TlsClientCertificateVerify__ctor_m110646389
xza:__ZN6prcoreL26RemapGenericIntegerToFloatI17TexFormatARGB888815TexFormatRFloatEEvPKNS_9InnerInfoE
Zyt:__ZN6il2cpp2vm10ThreadPool10InitializeEv
Dsq:_AndroidGoogleAdsExample_B2Show_m3872656338
vxs:_Context_GetServerContextSinkChain_m390126977
GEt:__ZN6il2cpp2vm17TypeNameParseInfoD2Ev
gnf:__ZN20TextRenderingPrivate8TextMesh16SetCharacterSizeEf
FNe:__ZN5physx18PxsSolverStartTask16articulationTaskEv
wKp:_Array_Sort_TisIl2CppObject_m143182644_gshared
PDm:_StringReader_Read_m513112775
AKb:__ZNK8Renderer8GetLayerEv
hRd:__ZN5physx6shdfnd4sortIPvNS0_4LessIS2_EENS0_19ReflectionAllocatorINS_2Cm5BlockIS2_Lj16EEEEEEEvPT_jRKT0_RKT1_j
QOl:_UM_GameServiceManager_GetAchievementProgress_m858177200
fSl:_UM_SocialExample_OnGUI_m1893234829
MYj:_PhotonStream_PeekNext_m1232570768
wyb:__ZN12FlareManager11DeleteFlareEi
K8a:__ZNK6Camera20GetReplacementShaderEv
Y2d:__ZN18MultiQueryCallbackIN5physx12PxRaycastHitEE6invokeERfPKNS0_2Sq13PrunerPayloadEj
BOi:_Decimal__ctor_m569480123_AdjustorThunk
tFn:_HttpWebRequest__cctor_m3013631978
$8t:__ZNSt3__26__treeINS_12__value_typeINS_12basic_stringIcNS_11char_traitsIcEENS_9allocatorIcEEEEPFvvEEENS_19__map_value_compareIS7_SA_NS_4lessIS7_EELb1EEENS5_ISA_EEE4findIS7_EENS_15__tree_iteratorISA_PNS_11__tree_nodeISA_PvEEiEERKT_
bfc:__ZNSt3__26vectorIN9ShaderLab20SerializedSubProgram14ConstantBufferENS_9allocatorIS3_EEE7reserveEj
VLs:_PKCS12_GetExistingParameters_m3532830249
nDa:__ZL23stbir__calculate_memoryP11stbir__info
k8k:_ObscuredString__cctor_m3954117104
Ico:__Z90RuntimeInvoker_Boolean_t3825574718_Int32_t2071877448_Int32U26_t455636984_Int32_t2071877448PK10MethodInfoPvPS2_
cFb:_UNITY_png_handle_sRGB
ELl:_UltimateMobileSettings_get_Instance_m3792916066
kDp:_GooglePlaySavedGamesManager_GetBytes_m2804634744
LXb:__ZNK30RuntimeInitializeOnLoadManager26GetTypeInfoVirtualInternalEv
$Il:_UIToggle_Start_m1696078429
RHt:__ZNK15dense_hashtableINSt3__24pairIK10KeyWrapperINS1_IPK10MethodInfoP11Il2CppClassEEEjEES9_17ReflectionMapHashIS8_EN14dense_hash_mapIS9_jSD_NS9_14EqualsComparerINS0_8equal_toIS8_EEEENS0_9allocatorISB_EEE9SelectKeyESI_SK_E3endEv
HXm:_AuthenticationValues_ToString_m1866283008
M7l:_GamePlayUI_OnMasseBtn0_m631880297
W_p:_XmlParserInput_get_BaseURI_m2885964388
puj:_DefaultControls_CreateRawImage_m2572997170
UDm:_StringWriter__ctor_m2262370389
Zol:_Transform_1_BeginInvoke_m2548651544_gshared
GBg:__ZL112AndroidInventory_t701010211_CustomAttributesCacheGenerator_AndroidInventory_t701010211____purchases_PropertyInfoP21CustomAttributesCache
Egj:_Array_InternalArray__ICollection_CopyTo_TisVector3_t2243707580_m509487340_gshared
xU:__Z82AnimatorControllerPlayable_CUSTOM_INTERNAL_CALL_IsParameterControlledByCurveStringR9HPlayableP12Il2CppString
O5k:_ObscuredPrefs_GetQuaternion_m3210145646
Yrf:__Z44CanvasRenderer_CUSTOM_INTERNAL_CALL_SetColorP12Il2CppObjectRK10ColorRGBAf
iNo:_QuestAndEventsExample_OnQuestsAccepted_m3409306211
fii:_MultiplayerManagerExample_HandleActionDataReceived_m2342909832
Afu:__ZNSt3__28ios_base16__call_callbacksENS0_5eventE
vNn:_CustomAttributeData_GetCustomAttributes_m119332220
gWe:__ZN5physx2Gu27computeBoundsAroundVerticesERNS_9PxBounds3EjPKNS_6PxVec3E
Fvs:_UrlAttribute_Equals_m1587451932
Apd:__ZN10ClipperLib8JoinHorzEPNS_5OutPtES1_S1_S1_NS_8IntPointEb
Xne:__ZNK5physx7NpScene9getLimitsEv
bvm:_Int16_ToString_m4099416068_AdjustorThunk
xXi:_DSAParameters_t1872138834_marshal_pinvoke_cleanup
wTi:_Environment_internalGetHome_m264525465
eIc:__ZN9Transform16SetLocalRotationERK11Quaternionf
h6m:_GUILayoutUtility_GetRect_m1611020398
CAe:__ZNK5physx2Gu29EPASupportMapPairRelativeImplINS0_9TriangleVENS0_8CapsuleVEE9doSupportERKNS_6shdfnd3aos5Vec3VERS7_SA_SA_
SSg:__ZL59LoadLevelOnClick_t1630964649_CustomAttributesCacheGeneratorP21CustomAttributesCache
GGi:_DateTime_Parse_m1628430317
Wgq:_YearValidator__ctor_m2610090220
tTq:_InternalEnumerator_1_get_Current_m3206960238_AdjustorThunk
$w:__ZN13AnimationClip16DecompressCurvesERNSt3__26vectorI24CompressedAnimationCurve13stl_allocatorIS2_L18MemLabelIdentifier25ELi16EEEE
P2a:__ZN13RenderManager37RenderCamerasWithScriptableRenderLoopEi
uEe:__ZN3MBP12updateObjectEjRK5IAABB
YWc:__Z40Transform_CUSTOM_INTERNAL_get_lossyScaleP12Il2CppObjectP8Vector3f
H9l:_GlobalInfo__cctor_m2172188421
Vaa:__GLOBAL__sub_I_runtime_graphics5_lump_cpp
jUd:__ZN5physx6shdfnd5ArrayINS_6PxVec3ENS0_19ReflectionAllocatorIS2_EEE15growAndPushBackERKS2_
Ama:__ZN23InstancedPropInfoStaticL16RegisterCallbackEPv
IC:__ZN7mecanim8skeleton25SkeletonPoseComputeLocalQEPKNS0_8SkeletonEPKNS0_13SkeletonPoseTIN4math4trsXEEEPS7_ii
KIm:_AndroidInAppPurchaseManager_remove_ActionProductPurchased_m326076669
IJj:_UIFont_set_dynamicFont_m244592551
dVn:_TypeBuilder_GetPropertyImpl_m1854119335
b4m:_GUI_Slider_m1242616654
nRt:__ZN6il2cpp6icalls8mscorlib6System4Type17get_IsGenericTypeEP20Il2CppReflectionType
Vre:__ZN5physx2Sc5Scene20fireTriggerCallbacksEv
qPn:_TypeBuilder_get_next_table_index_m1415870184
cpu:___cxa_can_catch
min:_SequentialSearchPrimeGeneratorBase_GenerateNewPrime_m296245934
sxi:_Char_GetUnicodeCategory_m4273361321
Ull:_XmlSerializationWriter_WriteStartElement_m1929224386
Uku:__ZNSt3__211__money_putIwE8__formatEPwRS2_S3_jPKwS5_RKNS_5ctypeIwEEbRKNS_10money_base7patternEwwRKNS_12basic_stringIcNS_11char_traitsIcEENS_9allocatorIcEEEERKNSE_IwNSF_IwEENSH_IwEEEESQ_i
tbd:__ZN14ParticleSystem4EmitEPS_RK21SubEmitterEmitCommand
Iol:_Transform_1_Invoke_m1019050223_gshared
Uof:__ZN2UI11CanvasGroup23VirtualRedirectTransferER19StreamedBinaryWriteILb0EE
Rze:__ZN5physx2Gu18GJKRelativeRayCastERNS0_8CapsuleVERNS0_4BoxVERKNS_6shdfnd3aos15PsMatTransformVERKNS6_6FloatVERKNS6_5Vec3VESF_RSA_RSD_SH_fb
x0c:__Z36Register_UnityEngine_GUI_set_enabledv
eSa:__ZNK13TranslateGLES23VertexArraySizeBitfieldEi
lmi:_NGUIMath_MakePixelPerfect_m3530781236
mEq:_Identity_get_ClientDynamicProperties_m767245959
C_j:_U3CWaitJoinOrCreateRoomU3Ec__Iterator0_MoveNext_m1277497771
NZb:__Z23AppendPathNameExtensionRKN4core12basic_stringIcNS_20StringStorageDefaultIcEEEES5_
ued:__Z11StartCircleILN11ShapeModule14MultiModeValueE3ELb1EEvRS0_R23ParticleSystemParticlesRK19ParticleSystemStateRK27ParticleSystemEmissionStateRKN4math8float3x3EPKfjbj
Qvi:_Byte_System_IConvertible_ToSingle_m3251860967
Ywu:_emscripten_glVertexPointer__wrapper
Xnc:__ZN15dense_hashtableINSt3__24pairIKP29AssetBundleLoadAssetOperationbEES3_19PointerHashFunctionIS3_EN14dense_hash_mapIS3_bS7_NS0_8equal_toIS3_EENS0_9allocatorIS5_EEE9SelectKeyESA_SC_E12maybe_shrinkEv
uGa:__ZN23ShaderVariantCollection13WarmupShadersEv
uon:_Context_set_ProtocolNegotiated_m1177527245
uEn:_FtpWebRequest_ResolveHost_m3345380023
G_m:_AnimatorControllerPlayable_INTERNAL_CALL_GetAnimatorTransitionInfoInternal_m2259454958
tPk:_UInt32_System_IConvertible_ToChar_m1056040486
xha:__Z25GetCommonScriptingClassesv
stl:_ValueCollection_System_Collections_Generic_ICollectionU3CTValueU3E_Add_m3594901543_gshared
JBa:__Z27scripting_gc_collect_unsafei
M2:__ZN11AudioModule20SuspendVideoTexturesEv
$bp:_IOSSocialManager_remove_OnFacebookPostResult_m934686651
Ztc:__ZN12CubemapArrayC2E18MemLabelIdentifier18ObjectCreationMode
E7e:__Z59Register_UnityEngine_CharacterController_INTERNAL_CALL_Movev
Jje:__ZN5physx13NpRigidStaticC2ERKNS_11PxTransformE
u3i:_Array_get_swapper_TisJsonPosition_t687338249_m3279041055_gshared
lGi:_Convert_ToByte_m395020137
wRb:__Z26CalculateBlendedSkinMatrixILi2EEvRN4math8float4x4EPK10Matrix4x4fPKvj
HVp:_XmlDocument__cctor_m3596304516
Jkt:__ZL25UnresolvedVirtualCall_143P12Il2CppObjectfS0_S0_PK10MethodInfo
bkf:_UNITY_FT_GlyphLoader_CheckPoints
dJn:_NumberFormatter_InitialFloatingPrecision_m3709563090
bAe:__ZN5physxL20PxcSweepBoxTrianglesERKNS_11PxsCCDShapeES2_RKNS_11PxTransformES5_S5_S5_fRNS_6PxVec3ES7_RNS_10PxcNpCacheERNS_18PxcNpThreadContextERKNS_2Cm23FastVertex2ShapeScalingERNS_2Gu9TriangleVEf
u5l:_GameCenterManager_onAchievementProgressChanged_m2943766714
vJd:__ZN5physx3Cct15ObstacleContextD0Ev
syb:__ZN15SharedLightData7PrecalcEv
sCa:__ZN10Matrix4x4fmLERKS_
j8j:_SmoothCameraOrbit__ctor_m2399836750
DPp:_Array_InternalArray__get_Item_TisDouble_t4078015681_m2215331088_gshared
D8p:_XsollaPaymentImpl_GetPaymentsInfo_m1364533893
qml:_XmlSerializationWriter_WriteStartDocument_m941228367
Sbq:_XsollaPaystationController_OpenError_m2753635697
yrb:__ZN19StreamedBinaryWriteILb0EE19TransferSTLStyleMapINSt3__28multimapIN4core12basic_stringIcNS4_20StringStorageDefaultIcEEEEN11AssetBundle9AssetInfoENS2_4lessIS8_EENS2_9allocatorINS2_4pairIKS8_SA_EEEEEEEEvRT_17TransferMetaFlags
Zem:_MSCompatUnicodeTable_IsIgnorable_m2816251577
Izl:_Dictionary_2_Init_m3666073812_gshared
qBb:__ZN10GUITexture5ResetEv
IBr:_DebugLogger_Info_m3402754055
H_a:__ZN15ArchiveReadFileD0Ev
Zlm:_SymmetricTransform_TransformBlock_m1524716432
vma:__ZN18ConcurrentFreeListI28FileTextureUploadInstructionE7CleanUpEv
qaj:_Array_compare_TisColor32_t874517518_m3842009370_gshared
Mse:__ZN5physx3Scb9Aggregate9syncStateERNS0_5SceneE
aGs:_ReadOnlyCollection_1_System_Collections_Generic_ICollectionU3CTU3E_Remove_m974176789_gshared
dQi:_Delegate_return_type_match_m4278947849
vCj:_InputField_GenerateHightlight_m1346735465
S_k:_WallHackDetector_set_Instance_m3444342971
s8k:_ObscuredUInt_InternalDecrypt_m3924011097
gya:__ZN6prcoreL17RemapGenericFloatI15TexFormatRFloat18TexFormatRGBAFloatEEvPKNS_9InnerInfoE
zFi:_GC_SuppressFinalize_m953228702
Zjf:_FT_MSB
qP:__ZN29AnimationStateNetworkProvider24SetNetworkAnimationStateER9AnimationPK24AnimationStateForNetworki
Q9m:_GUIStyle_get_clipping_m2754700641
MNt:__ZN15dense_hashtableINSt3__24pairIK10KeyWrapperINS1_IP11Il2CppClassjEEES4_EES6_N6il2cpp8metadata14ArrayClassHashEN14dense_hash_mapIS6_S4_SB_NS6_14EqualsComparerINSA_17ArrayClassCompareEEENS0_9allocatorIS8_EEE9SelectKeyESF_SH_E3endEv
_vc:__ZZL23RegisterLightPropertiesR22GenericPropertyBindingEN29Wrapper_LightShadowNormalBias13GetFloatValueEPv
C9t:__ZN6il2cpp6icalls8mscorlib4Mono8Security12Cryptography18KeyPairPersistence10_CanSecureEP12Il2CppString
Tgo:__Z141RuntimeInvoker_Void_t1841601450_Il2CppObject_Int32_t2071877448_Int32_t2071877448_Int32_t2071877448_SByte_t454417549_SByte_t454417549_IntPtr_tPK10MethodInfoPvPS2_
r_d:__ZN5physx7NpActor17resolveReferencesERNS_24PxDeserializationContextE
t6e:__ZN9Rigidbody15InitializeClassEv
Rfk:_TweenWidth_OnUpdate_m3867522834
Z3r:_Action_1_Invoke_m4180501989_gshared
KMr:_Slider__ctor_m3124136916
MIm:_AndroidInAppPurchaseManager_remove_ActionProductConsumed_m2666864308
_8c:__ZN13InitialModule8TransferI19StreamedBinaryWriteILb0EEEEvRT_
E1k:_ObscuredDecimal_Equals_m449518878
WHa:__ZN13GfxDeviceGLES14SetRasterStateEPK17DeviceRasterState
sb:invoke_iiiifffi
MMa:__ZNK13TranslateGLES11BlendFactorE9BlendMode
oll:_XmlSerializationReaderInterpreter_FillList_m743640462
qfl:_XmlAnyElementAttributes_get_Item_m2470546
HMd:__ZN5physx6shdfnd8internal8HashBaseINS0_4PairIKPKNS_2Sc8ShapeSimENS4_10NPhaseCore16ClothListElementEEES7_NS0_4HashIS7_EENS1_11HashMapBaseIS7_SA_SD_NS0_9AllocatorEE6GetKeyESF_Lb1EE5eraseERS8_
lBj:_InputField_set_caretPositionInternal_m231166704
mMd:__ZN5physx5Elems17setStaticAABBDataEjRKNS_17PxcAABBDataStaticE
Qnn:_TlsServerHello__ctor_m3032108168
ijp:_CueShotChecker_queue_shot_m2612364654
vra:__ZN14SafeBinaryRead11EndTransferEv
DBf:__ZL98ILGenerator_t99948092_CustomAttributesCacheGenerator_ILGenerator_Mono_GetCurrentOffset_m3553856682P21CustomAttributesCache
K2b:__ZN14SafeBinaryRead8TransferI8MonoPPtrEEvRT_PKc17TransferMetaFlags
Ynk:_WebConnection_Close_m1644251019
yrt:_UrlSchemes__ctor_m3477293358
DZq:_InternalEnumerator_1_System_Collections_IEnumerator_get_Current_m1533037706_gshared
GTa:__ZN21UniformBufferTFMethod13MapBoneBufferEj
OEj:_UICenterOnChild__ctor_m1106337531
Grn:_RecordProtocol_SendChangeCipherSpec_m3542001341
qct:_StringUtils_IsLowSurrogate_m613166546
u0d:__ZN5physx6shdfnd4sortIPvNS0_4LessIS2_EENS0_19ReflectionAllocatorINS_2Cm5BlockIhLj128EEEEEEEvPT_jRKT0_RKT1_j
Z1p:_XmlTextWriter_WriteIndentEndElement_m1275860268
ZPt:__ZNSt3__26vectorIcNS_9allocatorIcEEEC2Ej
Uds:_Bounds_SetMinMax_m1523110422
Ycm:_GoogleCloudManager_add_ActionStateLoaded_m1194052291
wnj:_ExecuteEvents_get_updateSelectedHandler_m4157356548
pZk:_ChatGui_OnGetMessages_m2831431503
sQc:__Z40Register_UnityEngine_Input_GetKeyDownIntv
Xjm:_KeyPairPersistence_CanSecure_m2251009700
AHq:_ReturnMessage_get_Properties_m531965085
iSn:_GenericTypeParameterBuilder_IsSubclassOf_m563999142
cia:__ZN14SerializedFileD2Ev
v9e:__ZNSt3__26vectorIN20TextRenderingPrivate8FontImpl7IntRectE13stl_allocatorIS3_L18MemLabelIdentifier34ELi16EEE21__push_back_slow_pathIKS3_EEvRT_
u$c:__Z30Event_Get_Custom_PropModifiersP12Il2CppObject
uSd:__ZN5physx6shdfnd5ArrayIPvNS0_16AlignedAllocatorILj64ENS0_9AllocatorEEEE15growAndPushBackERKS2_
Gae:__ZN5physx6shdfnd5ArrayINS_35PxClothParticleSeparationConstraintENS0_19ReflectionAllocatorIS2_EEE6resizeEjRKS2_
CG:__ZN7mecanim9animation16CreateClipOutputEPKNS0_4ClipERNS_6memory9AllocatorE
zD:__ZN7mecanim9animation23ClearAnimationNodeStateEPNS0_18AnimationNodeStateEb
ohj:_Array_InternalArray__Insert_TisDecimal_t724701077_m1429254816_gshared
c7n:__Z76RuntimeInvoker_IntPtr_t_SByte_t454417549_Il2CppObject_BooleanU26_t3168250738PK10MethodInfoPvPS2_
M7c:__ZN27ParticleSystemEmissionBurst8TransferI24GenerateTypeTreeTransferEEvRT_
CFt:__ZN6il2cpp2vm10Reflection17GetAssemblyObjectEPK14Il2CppAssembly
sap:_IOSNotificationController_add_OnDeviceTokenReceived_m2425652833
Bto:__Z91RuntimeInvoker_Boolean_t3825574718_Single_t2076509932_Single_t2076509932_Single_t2076509932PK10MethodInfoPvPS2_
IPa:__ZN18AsyncUploadManager17DoScaledPaddedJobEP28FileTextureUploadInstruction
XYt:__ZNSt3__212basic_stringIDsNS_11char_traitsIDsEENS_9allocatorIDsEEE9__grow_byEjjjjjj
KId:__ZN5physx3Cct12SweptCapsuleC2Ev
Pdc:__ZN6Shader21AwakeFromLoadThreadedEv
wTp:_XmlAttributeCollection_get_ItemOf_m2084104187
Gdl:_ClassMap_get_SimpleContentBaseType_m1187631275
yya:__ZN6prcoreL17RemapGenericFloatI17TexFormatRGBFloat17TexFormatRGBAHalfEEvPKNS_9InnerInfoE
Rsr:_TextEditor_MoveDown_m3610827042
ftg:__ZL70InputField_t1631627530_CustomAttributesCacheGenerator_m_CharacterLimitP21CustomAttributesCache
Y3e:__ZN5physx24PxcContactBoxHeightFieldERKNS_2Gu13GeometryUnionES3_RKNS_11PxTransformES6_RKfRNS_10PxcNpCacheERNS0_13ContactBufferE
b7o:_U3CSaveScreenshotU3Ec__Iterator0_MoveNext_m3580717732
Jau:__ZN6il2cpp2os9SemaphoreC2Eii
Yyl:_Dictionary_2_OnDeserialization_m3662399051_gshared
NOq:_InternalEnumerator_1_get_Current_m2960188445_AdjustorThunk
M2b:__ZNSt3__26vectorI8MonoPPtr13stl_allocatorIS1_L18MemLabelIdentifier1ELi16EEE8__appendEj
jOr:_Text_set_alignByGeometry_m1514652028
o7a:__ZN14qsort_internal30FindAndMovePivotToLastPositionIP17RODataReplacementi19ROSorterReplacementEEvT_S4_T0_T1_
RTa:__ZN15UniformTFMethod20IsBoneCountSupportedEi
dQl:_UM_InAppPurchaseManager_IOS_OnRestoreComplete_m2801061737
kFe:__ZNK5physx23AggregateAABBUpdateTask7getNameEv
T$r:_BetterList_1_AllocateMore_m1192708083_gshared
h9o:_IOSMessage_onPopUpCallBack_m607113905
Olr:_Rect_Contains_m1334685291_AdjustorThunk
BAm:_FileStream_get_Position_m465478322
lol:_Transform_1_BeginInvoke_m1856627011_gshared
Gtt:__ZN14dense_hash_setI10KeyWrapperIPK19Il2CppGenericMethodEN6il2cpp8metadata23Il2CppGenericMethodHashENS4_14EqualsComparerINS6_26Il2CppGenericMethodCompareEEENSt3__29allocatorIS4_EEEC2EjRKS7_RKSA_
Vru:dynCall_viidi
shj:_Array_InternalArray__Insert_TisInt64_t909078037_m3039874636_gshared
dyp:_GooglePlayManager__ctor_m2656753493
tml:_XmlSerializationWriter_WriteValue_m1102476497
Qrn:_RSASslSignatureDeformatter_SetKey_m1150106904
Kca:__ZN24ScriptingMethodFiltering17FilterOnSignatureENS_18MethodSearchFilterE
s9c:__ZN11TrailModule8TransferI19StreamedBinaryWriteILb0EEEEvRT_
fRe:__ZN5physx13NpClothFabric16scaleRestlengthsEf
$1:__ZN13ProduceHelperI9AudioClipLb0EE7ProduceE18MemLabelIdentifier18ObjectCreationMode
n8:__ZN18ScreenManagerWebGL13SetLockCursorE14CursorLockMode
vjf:_cf2_arrstack_finalize
Iat:_WWW_get_url_m1007081849
APn:_DerivedType_GetMethods_m165266904
Ohl:_XmlReflectionImporter_ImportIncludedTypes_m3032390036
Elm:_RSAManaged_EncryptValue_m4089823119
Bnu:__ZNSt3__26localeD2Ev
B5k:_ObscuredPrefs_DecryptByteArrayValue_m1388646637
Tpc:__ZN13MonoBehaviour19HandleNotificationsEPviR11MessageData
qle:__ZN5physx6shdfnd5ArrayIPNS_2Sc17ParticleSystemSimENS0_19ReflectionAllocatorIS4_EEE8recreateEj
qKn:_NumberFormatter_NumberToString_m3858766744
Mkb:__Z14SetPlayerFocusb
SYk:_CCEditText_U3CAwakeU3Em__0_m2789852482
W8m:_GUIStyle_set_focused_m1547304893
SWr:_XmlTokenInfo_Clear_m3024590392
L4r:_Action_1_Invoke_m3472061792_gshared
q_o:_PhotonPeer_get_UsedProtocol_m231967813
Osa:__ZNK11NamedObject26GetTypeInfoVirtualInternalEv
gVj:_PhotonNetwork_get_player_m1618354671
NAl:_Dictionary_2_Add_m3435012856_gshared
$bm:_GoogleAnalyticsClient_SetProductActionList_m2948743006
cvu:b58
dvu:b59
T2a:__ZN25CameraStackRenderingState18EndStereoRenderingEv
Xuu:b52
fJe:__ZN5physx9PxTaskMgrD0Ev
Ckm:_SmallXmlParser_ReadReference_m4174977204
_uu:b54
$uu:b55
e_e:__ZN19CharacterController8TransferI14SafeBinaryReadEEvRT_
g7k:_ObscuredSByte_ToString_m2394704264_AdjustorThunk
VVr:_DTDReader_get_LineNumber_m1287802086
Zzs:_ReadOnlyCollection_1_System_Collections_Generic_IListU3CTU3E_set_Item_m1532495847_gshared
y4j:_PlayServiceCustomLBExample_OpenUI_m12240135
A$n:__Z67RuntimeInvoker_Void_t1841601450_Int32_t2071877448_Int16_t4041245914PK10MethodInfoPvPS2_
nCh:_List_1__ctor_m701976248_gshared
_7j:_U3CU3Ec__Iterator1_MoveNext_m2865546986
Gki:_NetworkingPeer_GameEnteredOnGameServer_m2827288734
Ghp:_Constant__cctor_m297168850
Tkm:_MACAlgorithm_Core_m2390605245
E7j:_JSONNode_Parse_m2367447255
Ioc:__ZN10GameObject12CleanupClassEv
ZWj:_OpenPaystation_InitPaystation_m1589206877
eVd:__ZN5physx3Scb5Scene13addRigidNoSimINS0_11RigidStaticELb0ELb1EEEvRT_RNS0_13ObjectTrackerE
uOl:_UM_GameServiceManager_SubmitScore_m3350887276
jus:_DllImportAttribute__ctor_m1165454237
zIa:__ZN9GfxDevice25SetShaderPropertiesSharedERK19ShaderPropertySheet
OXs:_IndexedSet_1_GetEnumerator_m3646001838_gshared
AAc:__ZN19SpriteMeshGenerator4path9clip_edgeEi
TNr:_Text_get_cachedTextGeneratorForLayout_m1357670532
tTm:_AudioObject_InverseTransformVolume_m3809020403
kvc:__ZL25InitializeDefaultMaterialv
vub:__ZN21ArchiveStorageCreatorD2Ev
r2q:_Comparer_1__cctor_m581228891_gshared
Eth:_Enumerator_System_Collections_IEnumerator_get_Current_m3175039148_AdjustorThunk
Lli:_NetworkManager_send_m4002595837
xPr:_VertexHelper_AddVert_m3290455716
bIs:_ReadOnlyCollection_1_System_Collections_IList_set_Item_m2652301485_gshared
rUk:_BBundleEventListener_BBundleDownloadStarted_m1161504294
fFa:__ZN17PersistentManager12UnloadStreamERKN4core12basic_stringIcNS0_20StringStorageDefaultIcEEEEb
l$l:_GameCenter_RTM__ctor_m4119891116
VAh:_List_1_RemoveAll_m261710809_gshared
fqd:__ZN10ClipperLib11ClipperBase7AddPathERKNSt3__26vectorINS_8IntPointENS1_9allocatorIS3_EEEENS_8PolyTypeEb
Evt:__ZN6il2cpp2vm13MetadataCache21GetInteropDataForTypeEPK10Il2CppType
g2s:_Nullable_1_GetValueOrDefault_m4264653786_AdjustorThunk
eN:__ZN15SerializeTraitsI9OffsetPtrIN7mecanim9animation17BlendTreeConstantEEE8TransferI19StreamedBinaryWriteILb0EEEEvRS4_RT_
e8:__ZN13ScreenManager17RequestResolutionEiibi
Kdn:_Mathf_Log_m2145566002
kDt:_il2cpp_unity_liveness_calculation_from_statics
mSl:_U3CPostFBScreenshotU3Ec__Iterator2_MoveNext_m2496282687
NUp:_XmlConvert_ToInt64_m4199079136
MKk:_Scheduler_get_Instance_m1989471839
Xxj:_GraphicRaycaster_get_eventCamera_m4031517334
jPn:_ConstructorBuilder_GetCustomAttributes_m1698596385
xqk:_WebRequest_System_Runtime_Serialization_ISerializable_GetObjectData_m3377822910
fLb:__ZN8Renderer8TransferI17RemapPPtrTransferEEvRT_
m9k:_ObscuredULong_op_Decrement_m1273660729
W4h:_Collection_1_Contains_m1299140035_gshared
d_e:__ZN5physx23PxCapsuleControllerDesc12setToDefaultEv
Wvu:_glBlitFramebuffer__wrapper
TVm:_AudioFader_get_time_m1731081756
VPc:__Z22Input_CUSTOM_GetKeyInti
h4:__Z47AudioSource_Set_Custom_PropIgnoreListenerVolumeP12Il2CppObjecth
aIj:_UIEventListener_OnSubmit_m2957253720
_Ph:_List_1_GetIndex_m3262928832_gshared
Eae:__ZNK5physx2Sc9ClothCore16getCollisionDataEPNS_22PxClothCollisionSphereEPjPNS_21PxClothCollisionPlaneES4_PNS_24PxClothCollisionTriangleE
bVc:__Z33Sprite_CUSTOM_INTERNAL_get_borderP12Il2CppObjectP8Vector4f
mhb:__ZN16ReflectionProbes9GetCameraEv
xDn:_FtpDataStream_EndRead_m85311356
Pgd:__ZN22ParticleSystemRenderer8TransferI14SafeBinaryReadEEvRT_
mpm:_ArgumentException__ctor_m2105824819
Wbj:_Array_InternalArray__IndexOf_TisInt64_t909078037_m617406809_gshared
Tqf:__ZN2UI6Canvas17SetSortingLayerIDEi
frj:_BaseMeshEffect_get_graphic_m3358796463
B1q:_Comparer_1__cctor_m3696903153_gshared
cRq:_InternalEnumerator_1_get_Current_m966604531_gshared
Bqi:_OnClickDestroy_OnClick_m4104683501
wEn:_FtpWebResponse_UpdateStatus_m1392245858
Rvh:_Enumerator_VerifyState_m825848279_AdjustorThunk
$yb:__ZN20TierGraphicsSettings8TransferI24GenerateTypeTreeTransferEEvRT_
S2r:_SingletonMonoBehaviour_1_SetSingletonType_m216237101_gshared
Yoq:_AN_SoomlaProxy_OnSocialLogin_m868871849
y$p:_XmlReader_get_Item_m262748378
g4b:__ZN14SafeBinaryRead21TransferSTLStyleArrayI13dynamic_arrayI4AABBLj4EEEEvRT_17TransferMetaFlags
WIb:_output_message
Xva:__ZN18UnityPropertySheet8TransferI19StreamedBinaryWriteILb0EEEEvRT_
Tiq:_AN_ActivityTemplate_ToXmlElement_m147071123
hXj:_PanWithMouse__ctor_m2600594243
nna:__ZNSt3__26__treeINS_12__value_typeIiN11TypeManager18TypeCallbackStructEEENS_19__map_value_compareIiS4_NS_4lessIiEELb1EEENS_9allocatorIS4_EEE7destroyEPNS_11__tree_nodeIS4_PvEE
Kmm:_PKCS12_Decrypt_m2353135969
BHp:_GUICustomAuth_OnCustomAuthenticationFailed_m407717864
tms:_PersistentCallGroup_Initialize_m3908067069
MIn:_SocketAddress_ToString_m1143970952
Ath:_Enumerator_System_Collections_IEnumerator_get_Current_m3175039148_gshared
PVr:_DTDReader_ExpectAfterWhitespace_m1985518503
yYc:__Z27WWW_Get_Custom_PropProgressP12Il2CppObject
$Zo:_PhotonPeer_set_Listener_m862200510
fXn:_MonoEvent_ToString_m386956596
Zfg:__ZL70RuntimePlatform_t1869584967_CustomAttributesCacheGenerator_FlashPlayerP21CustomAttributesCache
t_b:__ZN39AssetBundleLoadFromStreamAsyncOperationC2ERKN4core12basic_stringIcNS0_20StringStorageDefaultIcEEEE
Gyc:__ZNK14PlayableOutput23GetSourcePlayableUnsafeEv
Bsa:__ZL19GetCameraTargetRectRK6Camerabb
D8k:_ObscuredUInt_op_Implicit_m1794176731
Ygr:_Transform_1_BeginInvoke_m1786442111_gshared
Gad:__ZN14ParticleSystem8Update1bER24ParticleSystemUpdateDatafNS_11UpdateFlagsEi
xno:__Z113RuntimeInvoker_Void_t1841601450_Il2CppObject_Il2CppObject_DateTime_t693205669_Il2CppObject_Nullable_1_t3251239280PK10MethodInfoPvPS2_
Gpb:__ZN21UnityDefaultAllocatorI17LowLevelAllocatorE10DeallocateEPv
Kaa:__GLOBAL__sub_I_runtime_camera2_lump_cpp
nAb:__ZN15SharedLightData22UpdateCookieTextureRefEv
Ky:__ZN15PackedIntVector8TransferI14SafeBinaryReadEEvRT_
HVn:_FieldInfo_get_IsLiteral_m267898096
hQa:__ZN17SharedTextureDataD0Ev
wYd:__ZNK5physx19NpArticulationJoint20getTangentialDampingEv
Mat:_WWW_LoadFromCacheOrDownload_m2048032378
ctn:_SslStreamBase_EndNegotiateHandshake_m1732321201
tX:__ZN13AudioListener8DoUpdateEv
xxd:__ZN5physx3Cct10Controller22setUpDirectionInternalERKNS_6PxVec3E
r1k:_ObscuredDecimal_op_Implicit_m2407908339
yws:_ConfigHandler_CheckPath_m2296459741
gGi:__Z13bankers_roundd
QMb:__ZN14SafeBinaryRead8TransferI5RectTIfEEEvRT_PKc17TransferMetaFlags
ok:_emscripten_glGenFramebuffers
KT:__Z48Register_UnityEngine_Animator_SetFloatStringDampv
ina:__ZN17BaseObjectManager16StaticInitializeEPv
wel:_ReflectionHelper__cctor_m2345495467
WOn:_ConstructorBuilder_get_IsCompilerContext_m2796899803
rSt:__ZNSt3__26__treeINS_12basic_stringIcNS_11char_traitsIcEENS_9allocatorIcEEEENS_4lessIS6_EENS4_IS6_EEE7destroyEPNS_11__tree_nodeIS6_PvEE
D0s:_Nullable_1_Equals_m1089953100_AdjustorThunk
Y3i:_Array_InternalArray__ICollection_Contains_TisGP_QuestsSelect_t2071002355_m4010401422_gshared
VGp:_GPaymnetManagerExample_OnProductPurchased_m1999632618
fbj:_Array_IndexOf_TisUIVertex_t1204258818_m613887160_gshared
EXb:__ZN18StreamedBinaryReadILb0EE19TransferSTLStyleMapINSt3__28multimapIN4core12basic_stringIcNS4_20StringStorageDefaultIcEEEE4PPtrI6ObjectENS2_4lessIS8_EE13stl_allocatorINS2_4pairIKS8_SB_EEL18MemLabelIdentifier51ELi16EEEEEEvRT_17TransferMetaFlags
HGi:_DateTime_CoreParse_m2014268103
hNh:_List_1__ctor_m3698273726_gshared
Xzl:_Dictionary_2_TryGetValue_m3187691483_gshared
Hsa:__ZN13RenderTexture15ThreadedCleanupEv
C4m:_GUI_CallWindowDelegate_m2039577415
FCb:__ZN12CubemapArray23VirtualRedirectTransferER14SafeBinaryRead
kGn:_HttpWebRequest_SetResponseError_m1533253571
qbe:__ZNK5physx2Sc9ClothCore23getNbCollisionTrianglesEv
A7d:__ZN5physx7NpShape16setFlagsInternalENS_7PxFlagsINS_11PxShapeFlag4EnumEhEE
G5q:_Enumerator_MoveNext_m3809319098_gshared
hGs:_ReadOnlyCollection_1_System_Collections_IList_Add_m616574295_gshared
Ium:_Int32_ProcessTrailingWhitespace_m2812079777
yTc:__Z43RectTransform_CUSTOM_INTERNAL_set_sizeDeltaP12Il2CppObjectRK13Vector2fIcall
EFd:__ZN5physx2Gu30distanceSegmentTriangleSquaredERKNS_6shdfnd3aos5Vec3VES5_S5_S5_S5_RS3_S6_
jqk:_WebProxy__ctor_m3679722173
PWt:__ZN15dense_hashtableINSt3__24pairIK10KeyWrapperINS1_IPKcS4_EEEiEES6_24NamespaceAndNamePairHashN14dense_hash_mapIS6_iS9_NS6_14EqualsComparerI26NamespaceAndNamePairEqualsEENS0_9allocatorIS8_EEE9SelectKeyESD_SF_E6insertERKS8_
Rra:__ZN24GenerateTypeTreeTransfer18BeginArrayTransferEPKcS1_Ri17TransferMetaFlags
bPa:__Z16DecompressCrunchPKhRjR13TextureFormatiiii18MemLabelIdentifier
q1p:_XmlTextReader_MoveToNextAttribute_m2954530581
no:___syscall51
ro:___syscall54
NZn:__Z107RuntimeInvoker_Boolean_t3825574718_SByte_t454417549_Il2CppObject_Int32_t2071877448_ExceptionU26_t1467204777PK10MethodInfoPvPS2_
K1j:_PhotonTransformViewPositionControl_GetOldestStoredNetworkPosition_m949989015
Cai:_Collection_1_System_Collections_IList_Insert_m3167746667_gshared
JOt:__ZN6il2cpp2vm6Thread45CheckCurrentThreadForAbortAndThrowIfNecessaryEv
zrp:_EventDelegate_Clear_m4274405105
q4p:_ValidatorInputField_U3CStartU3Em__0_m612479703
B4m:_GUI_INTERNAL_CALL_Internal_DoModalWindow_m837208975
Oqu:dynCall_fiifffiii
x2m:_GUIStyle_Draw_m2055025106
oB:__ZNK8Animator20IsAnyRendererVisibleEv
ckf:_cff_builder_add_point1
UXt:__ZN6il2cpp2vm5Image21GetCachedResourceDataEPK11Il2CppImageRKNSt3__212basic_stringIcNS5_11char_traitsIcEENS5_9allocatorIcEEEE
Qyj:_HorizontalOrVerticalLayoutGroup_set_childControlWidth_m4209477792
K1b:__Z18Transfer_BlittableI14SafeBinaryReadLb0E10ColorRGBAfEvRK29SerializationCommandArgumentsR31RuntimeSerializationCommandInfo
Ons:_CharacterClass__ctor_m3360242115
Ofd:__ZN21InheritVelocityModuleD2Ev
qb:invoke_iiiiiiiiii
zwr:_Utilities_ParseLastRefreshFromResult_m1674143120
f_j:_PhotonManager_Update_m1435640975
Rdr:_KeyCollection_System_Collections_Generic_ICollectionU3CTKeyU3E_Remove_m3249442509_gshared
bQl:_UM_InAppPurchaseManager_IOS_OnTransactionComplete_m832681985
B3m:_GUI_get_enabled_m3504357730
wnr:_Renderer_get_material_m2553789785
VWc:__Z31Transform_CUSTOM_DetachChildrenP12Il2CppObject
iBa:__ZN18LoadSceneOperation19IntegrateTimeSlicedEi
T_j:_PhotonNetwork_SetMasterClient_m4039216477
YKk:_Scheduler_SchedulerThread_m2209572785
Ffm:_SortKeyBuffer_GetResultAndReset_m2516956577
eCe:__ZN5physx36solveContactPreBlock_WriteBackStaticEPKNS_23PxcSolverConstraintDescEjRNS_16PxcSolverContextEPNS_25PxcThresholdStreamElementEjPi
cSf:__ZL68XmlSchemaForm_t1143227640_CustomAttributesCacheGenerator_UnqualifiedP21CustomAttributesCache
pnb:__ZN10FileSystem19SetCurrentDirectoryERKN4core12basic_stringIcNS0_20StringStorageDefaultIcEEEE
vLo:_ProfileScene_OnImage_m1202332840
Sha:__ZN16ScriptingManager24NotifyScriptCacheReleaseEi
cet:_ChatClient_Connect_m326038010
WKc:__Z47Register_UnityEngine_Coroutine_ReleaseCoroutinev
cVd:__ZN10ScSceneFnsIN5physx3Scb11RigidStaticEE6insertERNS0_2Sc5SceneERS2_
vSl:_U3CPostScreenshotU3Ec__Iterator0_Reset_m4096949456
sJl:_UITooltip_Update_m3264814559
gY:__ZN15AudioReverbZone13SetFMODValuesEv
Mbd:__ZNK17SizeBySpeedModule12UpdateSingleERK22ParticleSystemParticlebR8Vector3f
hfa:__ZL19StaticDestroyShaderPv
ze:_glRenderbufferStorageMultisample
DJj:_UIFont_get_defaultSize_m322943281
Vqk:_WebResponse_GetMustImplement_m2853142170
mJ:__ZN23AnimationPlayableOutput17SetTargetAnimatorEP8Animator
Rds:_Bounds_get_min_m2405290441_AdjustorThunk
qNs:_X509Chain__ctor_m1113875360
t4b:__Z35Transfer_Blittable_SingleValueFieldI14SafeBinaryReadfEvRT_R17GeneralMonoObjectRK23StaticTransferFieldInfo
xqn:_TlsServerHello_processProtocol_m1241336522
r1r:_List_1_IndexOf_m131628331_gshared
XFd:__ZN5physx2Gu20sweepCCTBoxTrianglesEjPKNS_10PxTriangleEbRKNS_13PxBoxGeometryERKNS_11PxTransformERKNS_6PxVec3EfRSA_SD_RfRjPKjfNS_7PxFlagsINS_9PxHitFlag4EnumEtEE
uzd:__ZN5physx2Gu15OBBTriangleTestC2ERKNS0_3BoxE
Rxs:_ContextAttribute_IsContextOK_m3281216012
CCm:_PathTooLongException__ctor_m3212099251
G8t:__ZN6il2cpp2os6Locale10InitializeEv
Ocd:__Z25EvaluateRandomGradientHDRIL12GradientMode0ELS0_0EEN4math8floatNx4ERK14MinMaxGradientRKNS1_7_float4ES8_
cBd:__ZN5physx2Gu21computeMTD_SphereMeshERNS_6PxVec3ERfRKNS0_6SphereERKNS_22PxTriangleMeshGeometryERKNS_11PxTransformE
Fck:_TournamentUserUI_SetViewFromIndex_m3288621509
fA:__ZN17PackedFloatVector8TransferI18StreamedBinaryReadILb0EEEEvRT_
lDb:__ZN7Cubemap23VirtualRedirectTransferER17RemapPPtrTransfer
uUt:__ZN6il2cpp8metadata15GenericMetadata7InflateEPK10MethodInfoP11Il2CppClassPK20Il2CppGenericContext
Bml:_XmlSerializationWriterInterpreter_WriteMembers_m1847972076
PWe:__ZN5physx12SubSortQuick5sort4EPjjRNS_6shdfnd5ArrayINS_11RTreeNodeNQENS2_19ReflectionAllocatorIS4_EEEERjRNS_10PxBounds3VEj
K1a:_longest_match_fast
uTd:__ZN5physx6shdfnd5ArrayIPNS_2Sc8BodyCoreENS0_19ReflectionAllocatorIS4_EEE15growAndPushBackERKS4_
Ver:_ShimEnumerator_Reset_m2247049027_gshared
gxj:_Graphic_Rebuild_m2617722358
yBg:__ZL117AndroidInAppPurchaseManager_t2155442111_CustomAttributesCacheGenerator_AndroidInAppPurchaseManager_consume_m505221254P21CustomAttributesCache
zDe:__ZN5physx16PxsBroadPhaseMBPC2ERNS_19PxcScratchAllocatorERNS_2Cm13EventProfilerERKNS_11PxSceneDescEPNS_14PxsAABBManagerE
HQd:__ZThn24_N5physx2Sc21ConstraintInteractionD1Ev
W_e:__ZN14PhysicsManager23VirtualRedirectTransferER14SafeBinaryRead
XN:__ZN6Avatar23VirtualRedirectTransferER14SafeBinaryRead
uNi:_DateTime_ToString_m3108726445_AdjustorThunk
gCs:_ReadOnlyCollection_1_System_Collections_Generic_ICollectionU3CTU3E_Remove_m1860213292_gshared
Hjb:__ZN13dynamic_arrayIN23ReflectionProbesContext23ReflectionProbeCubeInfoELj4EE18resize_initializedEjRKS1_12ResizePolicy
bPp:_Array_InternalArray__get_Item_TisTableRange_t2011406615_m602485977_gshared
oCj:_InputField_Append_m2623574152
B0d:__ZN5physx7NpActor14onActorReleaseEPNS_7PxActorE
GU:__Z116Register_UnityEngine_Experimental_Director_AnimatorControllerPlayable_INTERNAL_CALL_GetNextAnimatorStateInfoInternalv
fpm:_ApplicationException__ctor_m1120437222
ZId:__ZN5physx3Cct26CharacterControllerManager19computeInteractionsEfPNS_26PxControllerFilterCallbackE
Os:stackAlloc
MRd:__ZN5physx6shdfnd8PoolBaseINS_2Cm5BlockIhLj256EEENS0_19ReflectionAllocatorIS4_EEE12allocateSlabEv
NLc:__Z44Camera_CUSTOM_INTERNAL_CALL_ScreenPointToRayP12Il2CppObjectRK8Vector3fR3Ray
SYa:__ZN25SingleBlockMemoryFileData4LockEPPv
iqp:_DemoMecanimGUI_OnJoinedRoom_m3949776390
MTn:_MethodBuilder_GetHashCode_m1713271764
J7j:_JSONNode_SaveToCompressedBase64_m714380442
obn:_Input_GetKeyDown_m1771960377
Ous:_Marshal__cctor_m802981325
T6q:_Enumerator_System_Collections_IEnumerator_get_Current_m2010873149_gshared
b0h:_Collection_1_IsSynchronized_m1319022347_gshared
Pem:_MSCompatUnicodeTable_GetResource_m3816716847
BNc:__Z32RectOffset_Get_Custom_PropBottomP12Il2CppObject
KAs:_ReadOnlyCollection_1_System_Collections_IList_Remove_m3182494192_gshared
lik:_UIButtonColor_set_state_m2825045061
xqt:__ZN6il2cpp2vm5Class6IsEnumEPK11Il2CppClass
Qri:_Array_CreateInstance_m15016505
Nnj:_PhysicsRaycaster_set_eventMask_m2504275837
Mdu:_stat
Rk:_JS_Eval_ClearTimeout
Bsp:_LoadbalancingPeer_OpSetCustomPropertiesOfRoom_m3681091879
_sk:_X509Chain_Process_m2508784250
dgj:_Array_InternalArray__ICollection_CopyTo_TisUInt16_t986882611_m3228377237_gshared
Qtg:__ZL68Navigation_t1571958496_CustomAttributesCacheGenerator_m_SelectOnDownP21CustomAttributesCache
V8j:_SpringPosition_Begin_m2925710007
X4i:_Array_InternalArray__ICollection_Contains_TisUInt64_t2909196914_m4127618946_gshared
_ds:_Bounds_op_Inequality_m2315096783
$kd:__ZN15b2DistanceJoint23InitVelocityConstraintsERK12b2SolverData
PWq:_InternalEnumerator_1_System_Collections_IEnumerator_get_Current_m3065287496_gshared
bOa:__ZN7ApiGLES16SetPatchVerticesEi
HGe:__ZN5physx2Gu21findUniqueConvexEdgesEjPNS0_10ConvexEdgeEjPKNS0_15HullPolygonDataEPKh
l$m:_AnimatorControllerPlayable_CrossFadeInFixedTimeInternal_m793606818
n7l:_GamePlayUI_Start_m974547461
Eje:__ZN5physx20NpRigidActorTemplateINS_14PxRigidDynamicEED0Ev
nZi:_RC2_set_KeySize_m2015782960
ya:invoke_iiiiiiiiiiii
sBe:__ZN5physx43solveContactCoulombPreBlock_WriteBackStaticEPKNS_23PxcSolverConstraintDescEjRNS_16PxcSolverContextEPNS_25PxcThresholdStreamElementEjPi
jVc:__Z48Register_UnityEngine_Sprite_INTERNAL_CALL_Createv
ymm:_StrongName_get_PublicKey_m3777577320
eek:_TweenColor_SetCurrentValueToEnd_m4211671971
sVo:_NCommand__ctor_m1219899358
KRd:__ZN5physx2Sc5Scene23allocateConstraintBlockEj
IOc:__Z43Register_UnityEngine_GameObject_SendMessagev
iLo:_ProfileScene_ActivateTabPanel_m2318164100
flu:__ZNKSt3__27codecvtIDic11__mbstate_tE6do_outERS1_PKDiS5_RS5_PcS7_RS7_
Ika:__ZNSt3__26__treeINS_12__value_typeIN4core12basic_stringIcNS2_20StringStorageDefaultIcEEEES6_EENS_19__map_value_compareIS6_S7_NS_4lessIS6_EELb1EEE13stl_allocatorIS7_L18MemLabelIdentifier12ELi16EEE7destroyEPNS_11__tree_nodeIS7_PvEE
rpt:__ZN6il2cpp2vm17SetupFieldsLockedEP11Il2CppClassRKNS_2os12FastAutoLockE
hCm:_MonoIOStat_t1621921065_marshal_pinvoke
B2s:_Predicate_1_BeginInvoke_m3328781072_gshared
B$:__ZN11AudioSourceD0Ev
Eun:_OSX509Certificates_CFRelease_m2060304737
mgs:_CanvasRenderer_set_hasPopInstruction_m1388844875
_Sd:__ZN5physx2Sc5Actor15onElementDetachERNS0_7ElementE
Eys:_ReadOnlyCollection_1_System_Collections_IList_get_Item_m1784089691_gshared
psp:_LoadbalancingPeer_OpJoinLobby_m3034519545
Rnb:__ZN16MemoryFileSystem4NameEv
Wlj:_BaseRaycaster_OnEnable_m3641767070
X$:__ZN11AudioSource16UpdateParametersE12SoundChannel
c_p:_EmptyNodeList__cctor_m1873892799
Y_e:__ZN14PhysicsManager9onContactERKN5physx19PxContactPairHeaderEPKNS0_13PxContactPairEj
hin:_PrimeGeneratorBase_get_PrimalityTest_m308005118
wbj:_Array_InternalArray__IndexOf_TisArraySegment_1_t2594217482_m2717128208_gshared
Q_c:__ZNK8GUIStyle8CalcSizeER10GUIContent
dur:_TextGenerationSettings_CompareColors_m991725620_AdjustorThunk
rHh:_List_1_CheckIndex_m2328469916_gshared
Qsn:_SslStreamBase_AsyncHandshakeCallback_m1101580486
bxd:__ZN5physx3Cct13BoxController13setHalfHeightEf
Gen:_Mesh_GetTrianglesImpl_m3976840238
Nse:__ZN5physx3Scb13ObjectTracker5clearEv
oaf:_UNITY_FT_New_Size
qGc:__Z42ScriptingGetComponentsOfTypeFromGameObjectRK26ScriptingGetComponentsArgs
H$p:_XmlReader_IsContent_m1996106507
c$s:_U3CCreateSelectIteratorU3Ec__Iterator10_2_Dispose_m228712283_gshared
TLs:_X509ExtensionCollection__ctor_m2672322588
bws:_CrossAppDomainChannel_get_ChannelName_m3211498928
ZUh:_List_1_System_Collections_IList_Remove_m1862465754_gshared
syd:__ZL23GeomMTDCallback_BoxMeshRN5physx6PxVec3ERfRKNS_10PxGeometryERKNS_11PxTransformES5_S8_
HTh:_List_1_get_Item_m3157283227_gshared
j1m:_GameObject_BroadcastMessage_m3735465996
kNt:__ZNK15dense_hashtableINSt3__24pairIK10KeyWrapperIP11Il2CppClassES4_EES5_N6il2cpp8metadata16SZArrayClassHashEN14dense_hash_mapIS5_S4_SA_NS5_14EqualsComparerINS9_19SZArrayClassCompareEEENS0_9allocatorIS7_EEE9SelectKeyESE_SG_E5beginEv
TJr:_Selectable_FindSelectableOnRight_m1439791817
NVs:_InvokableCall_4_Invoke_m1555001411_gshared
_Ji:_Convert_ToString_m2915777777
R3c:__ZN35ClampVelocityModulePropertyBindings13SetFloatValueER14ParticleSystemif
u3q:_Enumerator_System_Collections_IEnumerator_Reset_m705110025_gshared
x9d:__ZNK5physx7NpCloth22getNbCollisionCapsulesEv
ywa:__ZNSt3__27__sort4IRPFbRKNS_4pairIN9ShaderLab16FastPropertyNameEN18UnityPropertySheet11UnityTexEnvEEES8_EPS6_EEjT0_SD_SD_SD_T_
bAn:_Cookie_hash_m3727374953
rjf:_cf2_hintmap_build
Wio:__Z92RuntimeInvoker_AnimatorStateInfo_t2577870592_PlayableHandleU26_t3483893774_Int32_t2071877448PK10MethodInfoPvPS2_
Kqo:__Z127RuntimeInvoker_Void_t1841601450_Il2CppObject_Il2CppObject_Il2CppObject_Single_t2076509932_Single_t2076509932_Single_t2076509932PK10MethodInfoPvPS2_
WNj:_UILabel_set_effectDistance_m3437349220
yyt:__ZNSt3__213__vector_baseIP17Il2CppAsyncResultN6il2cpp2gc9AllocatorIS2_EEED2Ev
fhf:_Line_Up
jIm:_MonoType_GetGenericTypeDefinition_m2363776160
wrp:_EventDelegate_get_isEnabled_m2583839878
ayd:__ZL28GeomMTDCallback_SphereSphereRN5physx6PxVec3ERfRKNS_10PxGeometryERKNS_11PxTransformES5_S8_
Eon:_Context_set_SentConnectionEnd_m2641458842
ag:_emscripten_glBufferSubData
OSk:_BallEvents_BM_get_balls_walls_m2508824472
_yj:_Image_set_overrideSprite_m3362535904
Flj:_ExecuteEvents_get_pointerExitHandler_m3250605428
pWd:__ZN5physx6shdfnd5ArrayIPvNS0_15InlineAllocatorILj256ENS0_19ReflectionAllocatorINS_7NpShapeEEEEEE15growAndPushBackERKS2_
qSm:_AudioItem__IsValidSubItem_m2071887193
y7q:_Enumerator_System_Collections_IEnumerator_Reset_m3225937576_AdjustorThunk
Exa:__ZN6prcoreL12RemapGenericI15TexFormatRGB88817TexFormatARGB8888EEvPKNS_9InnerInfoE
PR:__Z17CalculateGlobalRS23TransformAccessReadOnly
LAs:_ReadOnlyCollection_1_System_Collections_IList_RemoveAt_m572840272_gshared
cqe:__ZN5physx15PxsParticleData13onOriginShiftERKNS_6PxVec3E
eso:__Z112RuntimeInvoker_Vector2_t2243707579_Vector2_t2243707579_Vector2_t2243707579_Single_t2076509932_Single_t2076509932PK10MethodInfoPvPS2_
hfs:_Camera_ScreenPointToRay_m614889538
ohm:_Kernel_multiByteDivide_m735279869
WBl:_Dictionary_2_ToTValue_m542772656_gshared
K4p:_XsollaCountries__ctor_m3363462663
Dma:__ZN33InstancedMeshIntermediateRenderer13StaticDestroyEPv
vKk:_Thread_GetNewManagedId_internal_m3211695465
T1a:_unity_z_deflateReset
qOd:__ZN5physx2Sc19ContactReportBuffer23reallocateNotThreadSafeEjRjjj
KXo:_IPhotonSocket_HandleException_m1416820696
S1m:_SkinChangedDelegate_Invoke_m2801964040
zCi:_Hashtable_GetEnumerator_m3331430084
JOa:__ZN17GenericDynamicVBO17DrawChunkInternalERK21DynamicVBOChunkHandle17ShaderChannelMaskS3_P17VertexDeclarationP16DrawBuffersRangeij
WQd:__ZN5physx2Sc5Actor19registerInteractionEPNS0_11InteractionE
Cdc:__ZN22MemoryCacherReadBlocks14LockCacheBlockEjPPhS1_
mui:_Boolean_System_IConvertible_ToChar_m2637404801_AdjustorThunk
I2i:_SecurityContext_Capture_m2535194991
KOk:_UInt16_System_IConvertible_ToSByte_m3044765342_AdjustorThunk
Ov:__ZN15dense_hashtableINSt3__24pairIK7CurveIDjEES2_10hash_curveN14dense_hash_mapIS2_jS5_NS0_8equal_toIS2_EE13stl_allocatorIS4_L18MemLabelIdentifier1ELi16EEE9SelectKeyES8_SB_E12resize_deltaEjj
dHb:_decompress_onepass
dZt:__ZN4utf88internal15increase_safelyIPKcEENS0_9utf_errorERT_S5_
m9e:__ZN20TextRenderingPrivate8FontImpl16CacheFontForTextEPtiifjPK13dynamic_arrayINS_16TextFormatChangeELj4EE
xLl:_UIWrapContent_OnValidate_m2065446881
WUr:_XmlTextReader_ReadReference_m3213921956
h6e:__ZN13PhysicsModule19CreateNxHeightFieldEPv
v8k:_ObscuredUInt_Decrypt_m162878906
eOo:_ReplayKitUseExample_OnDestroy_m1273788732
ykj:_Array_qsort_TisUIVertex_t1204258818_TisUIVertex_t1204258818_m512606409_gshared
Frh:__Z21ArrayElementTypeCheckP11Il2CppArrayPv
ywn:_NameValueCollection_AsSingleString_m10599052
Ftd:__ZN17PhysicsMaterial2D16CheckConsistencyEv
Unu:__ZNSt3__212basic_stringIcNS_11char_traitsIcEENS_9allocatorIcEEE6appendEjc
MKn:_Object_InternalGetHashCode_m1371384246
PHr:_Navigation_get_defaultNavigation_m2185194207
IYk:_CCEditText__ctor_m1225162868
uvm:_Int32_System_IConvertible_ToSByte_m1449623243_AdjustorThunk
wom:_AccessViolationException__ctor_m1270251537
ztf:__Z42Register_UnityEngine_Canvas_get_rootCanvasv
kTc:__Z27Random_Get_Custom_PropValuev
vys:_ReadOnlyCollection_1_System_Collections_IList_Contains_m132552976_gshared
JNs:_X509ExtensionCollection_IndexOf_m3972100651
J2b:__Z14resize_trimmedINSt3__26vectorI8MonoPPtr13stl_allocatorIS2_L18MemLabelIdentifier1ELi16EEEEEvRT_j
iub:__ZN39AssetBundleLoadFromStreamAsyncOperation11GetProgressEv
Ng:_TTF_RenderText_Solid
A0b:__ZN13MonoBehaviour25TransferEngineAndInstanceI24GenerateTypeTreeTransferEEvRT_
FPk:_UInt32_System_IConvertible_ToInt64_m3091851828
oGm:_MissingMethodException__ctor_m3898429715
sJq:_RemotingConfiguration_RegisterClientProviderTemplate_m514821425
X6q:_Enumerator_System_Collections_IEnumerator_Reset_m3085583937_gshared
g5:__Z49Register_UnityEngine_AudioSource_get_spatialBlendv
Flm:_RSAManaged_ExportParameters_m2873993187
pyn:_GZipStream_EndRead_m3433427983
j2s:_Nullable_1__ctor_m3568989592_gshared
mXh:_Enumerator__ctor_m2816143215_AdjustorThunk
O$j:_PhotonNetwork_JoinRandomRoom_m3652550651
Qoq:_AN_SoomlaProxy_OnMarketPurchaseCancelled_m2320176111
Fxk:_Interval_get_IsSingleton_m1888598248
Etk:_X509Chain_FindParent_m404663796
Xwq:_GridView_Draw_m405618205
mGm:_MissingMemberException__ctor_m2164043278
fNm:_Parser_get_NextChar_m2461194639
AZb:__ZN13EmscriptenWWW10OnProgressEPvjj
Fwk:_Interpreter_GetGroupInfo_m312421921
X4p:_XsollaError__ctor_m2068410653
D5b:__Z19TransferField_ArrayI17RemapPPtrTransfer27Converter_UnityEngineObjectEvRK23StaticTransferFieldInfoR31RuntimeSerializationCommandInfoRT0_
wAn:_CookieContainer_CheckExpiration_m1872209538
M4e:__Z13RegisterClassI19CharacterControllerEvv
Bne:__ZNK5physx2Sc7BodySim13isConnectedToERKNS0_8RigidSimERb
U_e:__ZN14PhysicsManager23VirtualRedirectTransferER17RemapPPtrTransfer
Fnf:__Z37Register_UnityEngine_GUIText_set_textv
fvt:__ZN15dense_hashtableINSt3__24pairIK10KeyWrapperI13dynamic_arrayIPK10Il2CppTypeLj4EEEPFvvEEES8_N6il2cpp8metadata19Il2CppSignatureHashEN14dense_hash_mapIS8_SB_SF_NS8_14EqualsComparerINSE_22Il2CppSignatureCompareEEENS0_9allocatorISC_EEE9SelectKeyESJ_SL_E15set_deleted_keyERKSC_
x9l:_GK_TBM_Participant_SetOutcome_m1613224645
ZZ:__ZN4FMOD6System9createDSPEP20FMOD_DSP_DESCRIPTIONPPNS_3DSPE
_th:_LinkedList_1_CopyTo_m3700485924_gshared
Dhp:_ConnectionButton_Start_m4180543887
jdn:_Material_HasProperty_m3175512802
dJ:__ZN7mecanim9animation26DestroyControllerWorkspaceEPNS0_19ControllerWorkspaceERNS_6memory9AllocatorE
Z9l:_GoogleAnalyticsClient__ctor_m2586125519
wbi:_ReadOnlyCollection_1_System_Collections_IList_RemoveAt_m2948919698_gshared
uni:_NGUIText_ReplaceSpaceWithNewline_m1051766721
jys:_ReadOnlyCollection_1_System_Collections_Generic_ICollectionU3CTU3E_Add_m2850733623_gshared
pys:_ReadOnlyCollection_1_System_Collections_Generic_IListU3CTU3E_set_Item_m2069169051_gshared
eW:__ZN4FMOD8ChannelI11EndCallbackEv
X0i:_ToBase64Transform_TransformBlock_m2201454137
O6n:__Z82RuntimeInvoker_Void_t1841601450_SByte_t454417549_SByte_t454417549_SByte_t454417549PK10MethodInfoPvPS2_
rsr:_TextAsset_get_bytes_m1699690326
E_c:__ZN8GUIStyle14SetDefaultFontEPN13TextRendering4FontE
v7c:__ZN11ForceModule8TransferI24GenerateTypeTreeTransferEEvRT_
Wyk:_PatternCompiler_EmitCount_m3609178511
gMb:__ZN15QualitySettings23VirtualRedirectTransferER24GenerateTypeTreeTransfer
C9m:_GUIStyle_Internal_GetCursorStringIndex_m1491806746
Was:_Application_get_persistentDataPath_m3129298355
zir:_Physics2D_Internal_OverlapPoint_m2212084430
tHe:__ZN5physx2Gu32PCMConvexVsMeshContactGeneration35generateTriangleFullContactManifoldERNS0_9TriangleVEjPKjhRKNS0_13PolygonalDataEPNS0_16SupportLocalImplIS2_EEPNS0_12SupportLocalEPNS0_21MeshPersistentContactERjRKNS_6shdfnd3aos6FloatVERNSI_5Vec3VE
QDt:__ZN6il2cpp2os10FileHandleC2Ev
dRj:_UIPlayTween_OnToggle_m2303376725
BFi:_Console_WriteLine_m2104336289
ySc:__Z59Register_UnityEngine_MonoBehaviour_Internal_CancelInvokeAllv
tL:__ZN14SafeBinaryRead21TransferSTLStyleArrayI22OffsetPtrArrayTransferI9OffsetPtrIN7mecanim12statemachine17ConditionConstantEEEEEvRT_17TransferMetaFlags
ctt:__ZN30dense_hashtable_const_iteratorINSt3__24pairIK10KeyWrapperIPK19Il2CppGenericMethodEPK26Il2CppGenericMethodIndicesEES6_N6il2cpp8metadata23Il2CppGenericMethodHashEN14dense_hash_mapIS6_SA_SE_NS6_14EqualsComparerINSD_26Il2CppGenericMethodCompareEEENS0_9allocatorISB_EEE9SelectKeyESI_SK_EppEv
mts:_ResourceEnumerator_Reset_m3908209103
jxe:__ZNK16OBBAABBTest_SIMDclERKN5physx2Sq9BucketBoxE
Cwl:_Dictionary_2_System_Collections_IDictionary_Remove_m1340861369_gshared
Adn:_Mathf_Cos_m238853451
S9e:_UNITY_FT_Request_Metrics
ySt:__ZN6il2cpp6icalls8mscorlib6System10Reflection10MonoMethod29get_IsGenericMethodDefinitionEP22Il2CppReflectionMethod
Sdi:_Localization_LoadCSV_m419108425
Tml:_XmlSerializationWriterInterpreter_WriteObjectElementAttributes_m615426555
o$m:_AnimatorControllerPlayable_CrossFadeInFixedTime_m2153894334
uro:__Z96RuntimeInvoker_Il2CppObject_Il2CppObject_Il2CppObject_SByte_t454417549_Il2CppObject_Il2CppObjectPK10MethodInfoPvPS2_
Oxl:_Dictionary_2_Init_m1675630076_gshared
JGi:_DateTime_YearMonthDayFormats_m4204607055
Lsj:_ColorBlock_set_disabledColor_m3502887543_AdjustorThunk
wlq:_AN_GMSRTMProxy_TBM_LoadAllMatchesInfo_m2050164414
s1t:__ZN30dense_hashtable_const_iteratorINSt3__24pairIK10KeyWrapperIPK19Il2CppGenericMethodEP10MethodInfoEES6_N6il2cpp8metadata23Il2CppGenericMethodHashEN14dense_hash_mapIS6_S9_SD_NS6_14EqualsComparerINSC_26Il2CppGenericMethodCompareEEENS0_9allocatorISA_EEE9SelectKeyESH_SJ_EppEv
i2:__Z13RegisterClassI13AudioListenerEvv
RR:__ZN23AnimationOffsetPlayable11GetPositionEv
V1l:_GameCenter_TBM_OnEndTurnResult_m465643886
g1t:__ZN15dense_hashtableINSt3__24pairIK10KeyWrapperIPK19Il2CppGenericMethodEP10MethodInfoEES6_N6il2cpp8metadata23Il2CppGenericMethodHashEN14dense_hash_mapIS6_S9_SD_NS6_14EqualsComparerINSC_26Il2CppGenericMethodCompareEEENS0_9allocatorISA_EEE9SelectKeyESH_SJ_E15set_deleted_keyERKSA_
Nh:_emscripten_glUniform4i
sgq:_XsollaTextAll_Parse_m262094563
fid:__ZNSt3__227__insertion_sort_incompleteIRN10vector_mapIi22ParticleModulePropertyNS_4lessIiEENS_9allocatorINS_4pairIiS2_EEEEE13value_compareEPS7_EEbT0_SD_T_
ULm:_AndroidRateUsPopUp_Create_m2002060404
exj:_Graphic_OnDisable_m2360886868
wHd:__ZN16RayRTreeCallbackILi0ELb1EED2Ev
Yg:_emscripten_glUniform4f
mFa:__ZN6Object22CheckInstanceIDsLoadedEPii
ul:___unlock
jLr:_ScrollRect_InternalCalculateOffset_m3083065267
X$e:__ZN14SphereCollider10SmartResetEv
MAi:_Comparer_Compare_m4132969818
Axp:_GooglePlayGiftRequestResult__ctor_m384602130
h0:__ZN20SoundChannelInstance19setReverbPropertiesEP29FMOD_REVERB_CHANNELPROPERTIES
gub:__ZN38AssetBundleLoadFromCacheAsyncOperationD2Ev
sCr:_FB_API_m2469039629
pR:__ZNK26AnimatorControllerPlayable14IsInTransitionEi
ltq:_WP8AdMobController_CreateAdBanner_m1340206372
oGl:_DefaultComparer_Equals_m2171836276_gshared
RQt:__ZN6il2cpp2vm9Exception18GetFormatExceptionEPKc
Dvm:_Int32_System_IConvertible_ToUInt64_m2888588559
BXc:__Z40Register_UnityEngine_Transform_IsChildOfv
AId:__ZN5physx3Cct17CapsuleController15setClimbingModeENS_21PxCapsuleClimbingMode4EnumE
kze:__ZN5physx6shdfnd9atomicAddEPVii
gzp:_GooglePlayManager_reportAchievement_m690711144
tvg:__ZL55CanvasScaler_t2574720772_CustomAttributesCacheGeneratorP21CustomAttributesCache
QWm:_AudioObject__ScheduleNextInLoopSequence_m2417253909
eKr:_ScrollRect__ctor_m2760636366
fFj:_UICenterOnChild_CenterOn_m1214471092
qNc:__Z45Register_UnityEngine_Display_GetSystemExtImplv
zbr:_KeyCollection_System_Collections_Generic_ICollectionU3CTKeyU3E_Remove_m264937066_gshared
